
stm32-can-ecu-diagnostic-simulator.elf:     file format elf32-littlearm

Sections:
Idx Name          Size      VMA       LMA       File off  Algn
  0 .isr_vector   000001c8  08000000  08000000  00001000  2**0
                  CONTENTS, ALLOC, LOAD, READONLY, DATA
  1 .text         000062a8  080001d0  080001d0  000011d0  2**4
                  CONTENTS, ALLOC, LOAD, READONLY, CODE
  2 .rodata       00000bbc  08006478  08006478  00007478  2**2
                  CONTENTS, ALLOC, LOAD, READONLY, DATA
  3 .ARM.extab    00000000  08007034  08007034  0000905c  2**0
                  CONTENTS
  4 .ARM          00000008  08007034  08007034  00008034  2**2
                  CONTENTS, ALLOC, LOAD, READONLY, DATA
  5 .preinit_array 00000000  0800703c  0800703c  0000905c  2**0
                  CONTENTS, ALLOC, LOAD, DATA
  6 .init_array   00000004  0800703c  0800703c  0000803c  2**2
                  CONTENTS, ALLOC, LOAD, READONLY, DATA
  7 .fini_array   00000004  08007040  08007040  00008040  2**2
                  CONTENTS, ALLOC, LOAD, READONLY, DATA
  8 .data         0000005c  20000000  08007044  00009000  2**2
                  CONTENTS, ALLOC, LOAD, DATA
  9 .bss          000002c4  2000005c  080070a0  0000905c  2**2
                  ALLOC
 10 ._user_heap_stack 00000600  20000320  080070a0  00009320  2**0
                  ALLOC
 11 .ARM.attributes 00000030  00000000  00000000  0000905c  2**0
                  CONTENTS, READONLY
 12 .debug_info   0000d844  00000000  00000000  0000908c  2**0
                  CONTENTS, READONLY, DEBUGGING, OCTETS
 13 .debug_abbrev 00002634  00000000  00000000  000168d0  2**0
                  CONTENTS, READONLY, DEBUGGING, OCTETS
 14 .debug_aranges 00000ae0  00000000  00000000  00018f08  2**3
                  CONTENTS, READONLY, DEBUGGING, OCTETS
 15 .debug_rnglists 00000831  00000000  00000000  000199e8  2**0
                  CONTENTS, READONLY, DEBUGGING, OCTETS
 16 .debug_macro  0002635b  00000000  00000000  0001a219  2**0
                  CONTENTS, READONLY, DEBUGGING, OCTETS
 17 .debug_line   0000f4b1  00000000  00000000  00040574  2**0
                  CONTENTS, READONLY, DEBUGGING, OCTETS
 18 .debug_str    000e8ece  00000000  00000000  0004fa25  2**0
                  CONTENTS, READONLY, DEBUGGING, OCTETS
 19 .comment      00000043  00000000  00000000  001388f3  2**0
                  CONTENTS, READONLY
 20 .debug_frame  00002f90  00000000  00000000  00138938  2**2
                  CONTENTS, READONLY, DEBUGGING, OCTETS
 21 .debug_line_str 00000077  00000000  00000000  0013b8c8  2**0
                  CONTENTS, READONLY, DEBUGGING, OCTETS

Disassembly of section .text:

080001d0 <__do_global_dtors_aux>:
 80001d0:	b510      	push	{r4, lr}
 80001d2:	4c05      	ldr	r4, [pc, #20]	@ (80001e8 <__do_global_dtors_aux+0x18>)
 80001d4:	7823      	ldrb	r3, [r4, #0]
 80001d6:	b933      	cbnz	r3, 80001e6 <__do_global_dtors_aux+0x16>
 80001d8:	4b04      	ldr	r3, [pc, #16]	@ (80001ec <__do_global_dtors_aux+0x1c>)
 80001da:	b113      	cbz	r3, 80001e2 <__do_global_dtors_aux+0x12>
 80001dc:	4804      	ldr	r0, [pc, #16]	@ (80001f0 <__do_global_dtors_aux+0x20>)
 80001de:	f3af 8000 	nop.w
 80001e2:	2301      	movs	r3, #1
 80001e4:	7023      	strb	r3, [r4, #0]
 80001e6:	bd10      	pop	{r4, pc}
 80001e8:	2000005c 	.word	0x2000005c
 80001ec:	00000000 	.word	0x00000000
 80001f0:	08006460 	.word	0x08006460

080001f4 <frame_dummy>:
 80001f4:	b508      	push	{r3, lr}
 80001f6:	4b03      	ldr	r3, [pc, #12]	@ (8000204 <frame_dummy+0x10>)
 80001f8:	b11b      	cbz	r3, 8000202 <frame_dummy+0xe>
 80001fa:	4903      	ldr	r1, [pc, #12]	@ (8000208 <frame_dummy+0x14>)
 80001fc:	4803      	ldr	r0, [pc, #12]	@ (800020c <frame_dummy+0x18>)
 80001fe:	f3af 8000 	nop.w
 8000202:	bd08      	pop	{r3, pc}
 8000204:	00000000 	.word	0x00000000
 8000208:	20000060 	.word	0x20000060
 800020c:	08006460 	.word	0x08006460

08000210 <strcmp>:
 8000210:	f810 2b01 	ldrb.w	r2, [r0], #1
 8000214:	f811 3b01 	ldrb.w	r3, [r1], #1
 8000218:	2a01      	cmp	r2, #1
 800021a:	bf28      	it	cs
 800021c:	429a      	cmpcs	r2, r3
 800021e:	d0f7      	beq.n	8000210 <strcmp>
 8000220:	1ad0      	subs	r0, r2, r3
 8000222:	4770      	bx	lr

08000224 <strlen>:
 8000224:	4603      	mov	r3, r0
 8000226:	f813 2b01 	ldrb.w	r2, [r3], #1
 800022a:	2a00      	cmp	r2, #0
 800022c:	d1fb      	bne.n	8000226 <strlen+0x2>
 800022e:	1a18      	subs	r0, r3, r0
 8000230:	3801      	subs	r0, #1
 8000232:	4770      	bx	lr
	...

08000240 <memchr>:
 8000240:	f001 01ff 	and.w	r1, r1, #255	@ 0xff
 8000244:	2a10      	cmp	r2, #16
 8000246:	db2b      	blt.n	80002a0 <memchr+0x60>
 8000248:	f010 0f07 	tst.w	r0, #7
 800024c:	d008      	beq.n	8000260 <memchr+0x20>
 800024e:	f810 3b01 	ldrb.w	r3, [r0], #1
 8000252:	3a01      	subs	r2, #1
 8000254:	428b      	cmp	r3, r1
 8000256:	d02d      	beq.n	80002b4 <memchr+0x74>
 8000258:	f010 0f07 	tst.w	r0, #7
 800025c:	b342      	cbz	r2, 80002b0 <memchr+0x70>
 800025e:	d1f6      	bne.n	800024e <memchr+0xe>
 8000260:	b4f0      	push	{r4, r5, r6, r7}
 8000262:	ea41 2101 	orr.w	r1, r1, r1, lsl #8
 8000266:	ea41 4101 	orr.w	r1, r1, r1, lsl #16
 800026a:	f022 0407 	bic.w	r4, r2, #7
 800026e:	f07f 0700 	mvns.w	r7, #0
 8000272:	2300      	movs	r3, #0
 8000274:	e8f0 5602 	ldrd	r5, r6, [r0], #8
 8000278:	3c08      	subs	r4, #8
 800027a:	ea85 0501 	eor.w	r5, r5, r1
 800027e:	ea86 0601 	eor.w	r6, r6, r1
 8000282:	fa85 f547 	uadd8	r5, r5, r7
 8000286:	faa3 f587 	sel	r5, r3, r7
 800028a:	fa86 f647 	uadd8	r6, r6, r7
 800028e:	faa5 f687 	sel	r6, r5, r7
 8000292:	b98e      	cbnz	r6, 80002b8 <memchr+0x78>
 8000294:	d1ee      	bne.n	8000274 <memchr+0x34>
 8000296:	bcf0      	pop	{r4, r5, r6, r7}
 8000298:	f001 01ff 	and.w	r1, r1, #255	@ 0xff
 800029c:	f002 0207 	and.w	r2, r2, #7
 80002a0:	b132      	cbz	r2, 80002b0 <memchr+0x70>
 80002a2:	f810 3b01 	ldrb.w	r3, [r0], #1
 80002a6:	3a01      	subs	r2, #1
 80002a8:	ea83 0301 	eor.w	r3, r3, r1
 80002ac:	b113      	cbz	r3, 80002b4 <memchr+0x74>
 80002ae:	d1f8      	bne.n	80002a2 <memchr+0x62>
 80002b0:	2000      	movs	r0, #0
 80002b2:	4770      	bx	lr
 80002b4:	3801      	subs	r0, #1
 80002b6:	4770      	bx	lr
 80002b8:	2d00      	cmp	r5, #0
 80002ba:	bf06      	itte	eq
 80002bc:	4635      	moveq	r5, r6
 80002be:	3803      	subeq	r0, #3
 80002c0:	3807      	subne	r0, #7
 80002c2:	f015 0f01 	tst.w	r5, #1
 80002c6:	d107      	bne.n	80002d8 <memchr+0x98>
 80002c8:	3001      	adds	r0, #1
 80002ca:	f415 7f80 	tst.w	r5, #256	@ 0x100
 80002ce:	bf02      	ittt	eq
 80002d0:	3001      	addeq	r0, #1
 80002d2:	f415 3fc0 	tsteq.w	r5, #98304	@ 0x18000
 80002d6:	3001      	addeq	r0, #1
 80002d8:	bcf0      	pop	{r4, r5, r6, r7}
 80002da:	3801      	subs	r0, #1
 80002dc:	4770      	bx	lr
 80002de:	bf00      	nop

080002e0 <__aeabi_uldivmod>:
 80002e0:	b953      	cbnz	r3, 80002f8 <__aeabi_uldivmod+0x18>
 80002e2:	b94a      	cbnz	r2, 80002f8 <__aeabi_uldivmod+0x18>
 80002e4:	2900      	cmp	r1, #0
 80002e6:	bf08      	it	eq
 80002e8:	2800      	cmpeq	r0, #0
 80002ea:	bf1c      	itt	ne
 80002ec:	f04f 31ff 	movne.w	r1, #4294967295
 80002f0:	f04f 30ff 	movne.w	r0, #4294967295
 80002f4:	f000 b96a 	b.w	80005cc <__aeabi_idiv0>
 80002f8:	f1ad 0c08 	sub.w	ip, sp, #8
 80002fc:	e96d ce04 	strd	ip, lr, [sp, #-16]!
 8000300:	f000 f806 	bl	8000310 <__udivmoddi4>
 8000304:	f8dd e004 	ldr.w	lr, [sp, #4]
 8000308:	e9dd 2302 	ldrd	r2, r3, [sp, #8]
 800030c:	b004      	add	sp, #16
 800030e:	4770      	bx	lr

08000310 <__udivmoddi4>:
 8000310:	e92d 47f0 	stmdb	sp!, {r4, r5, r6, r7, r8, r9, sl, lr}
 8000314:	9d08      	ldr	r5, [sp, #32]
 8000316:	460c      	mov	r4, r1
 8000318:	2b00      	cmp	r3, #0
 800031a:	d14e      	bne.n	80003ba <__udivmoddi4+0xaa>
 800031c:	4694      	mov	ip, r2
 800031e:	458c      	cmp	ip, r1
 8000320:	4686      	mov	lr, r0
 8000322:	fab2 f282 	clz	r2, r2
 8000326:	d962      	bls.n	80003ee <__udivmoddi4+0xde>
 8000328:	b14a      	cbz	r2, 800033e <__udivmoddi4+0x2e>
 800032a:	f1c2 0320 	rsb	r3, r2, #32
 800032e:	4091      	lsls	r1, r2
 8000330:	fa20 f303 	lsr.w	r3, r0, r3
 8000334:	fa0c fc02 	lsl.w	ip, ip, r2
 8000338:	4319      	orrs	r1, r3
 800033a:	fa00 fe02 	lsl.w	lr, r0, r2
 800033e:	ea4f 471c 	mov.w	r7, ip, lsr #16
 8000342:	fa1f f68c 	uxth.w	r6, ip
 8000346:	fbb1 f4f7 	udiv	r4, r1, r7
 800034a:	ea4f 431e 	mov.w	r3, lr, lsr #16
 800034e:	fb07 1114 	mls	r1, r7, r4, r1
 8000352:	ea43 4301 	orr.w	r3, r3, r1, lsl #16
 8000356:	fb04 f106 	mul.w	r1, r4, r6
 800035a:	4299      	cmp	r1, r3
 800035c:	d90a      	bls.n	8000374 <__udivmoddi4+0x64>
 800035e:	eb1c 0303 	adds.w	r3, ip, r3
 8000362:	f104 30ff 	add.w	r0, r4, #4294967295
 8000366:	f080 8112 	bcs.w	800058e <__udivmoddi4+0x27e>
 800036a:	4299      	cmp	r1, r3
 800036c:	f240 810f 	bls.w	800058e <__udivmoddi4+0x27e>
 8000370:	3c02      	subs	r4, #2
 8000372:	4463      	add	r3, ip
 8000374:	1a59      	subs	r1, r3, r1
 8000376:	fa1f f38e 	uxth.w	r3, lr
 800037a:	fbb1 f0f7 	udiv	r0, r1, r7
 800037e:	fb07 1110 	mls	r1, r7, r0, r1
 8000382:	ea43 4301 	orr.w	r3, r3, r1, lsl #16
 8000386:	fb00 f606 	mul.w	r6, r0, r6
 800038a:	429e      	cmp	r6, r3
 800038c:	d90a      	bls.n	80003a4 <__udivmoddi4+0x94>
 800038e:	eb1c 0303 	adds.w	r3, ip, r3
 8000392:	f100 31ff 	add.w	r1, r0, #4294967295
 8000396:	f080 80fc 	bcs.w	8000592 <__udivmoddi4+0x282>
 800039a:	429e      	cmp	r6, r3
 800039c:	f240 80f9 	bls.w	8000592 <__udivmoddi4+0x282>
 80003a0:	4463      	add	r3, ip
 80003a2:	3802      	subs	r0, #2
 80003a4:	1b9b      	subs	r3, r3, r6
 80003a6:	ea40 4004 	orr.w	r0, r0, r4, lsl #16
 80003aa:	2100      	movs	r1, #0
 80003ac:	b11d      	cbz	r5, 80003b6 <__udivmoddi4+0xa6>
 80003ae:	40d3      	lsrs	r3, r2
 80003b0:	2200      	movs	r2, #0
 80003b2:	e9c5 3200 	strd	r3, r2, [r5]
 80003b6:	e8bd 87f0 	ldmia.w	sp!, {r4, r5, r6, r7, r8, r9, sl, pc}
 80003ba:	428b      	cmp	r3, r1
 80003bc:	d905      	bls.n	80003ca <__udivmoddi4+0xba>
 80003be:	b10d      	cbz	r5, 80003c4 <__udivmoddi4+0xb4>
 80003c0:	e9c5 0100 	strd	r0, r1, [r5]
 80003c4:	2100      	movs	r1, #0
 80003c6:	4608      	mov	r0, r1
 80003c8:	e7f5      	b.n	80003b6 <__udivmoddi4+0xa6>
 80003ca:	fab3 f183 	clz	r1, r3
 80003ce:	2900      	cmp	r1, #0
 80003d0:	d146      	bne.n	8000460 <__udivmoddi4+0x150>
 80003d2:	42a3      	cmp	r3, r4
 80003d4:	d302      	bcc.n	80003dc <__udivmoddi4+0xcc>
 80003d6:	4290      	cmp	r0, r2
 80003d8:	f0c0 80f0 	bcc.w	80005bc <__udivmoddi4+0x2ac>
 80003dc:	1a86      	subs	r6, r0, r2
 80003de:	eb64 0303 	sbc.w	r3, r4, r3
 80003e2:	2001      	movs	r0, #1
 80003e4:	2d00      	cmp	r5, #0
 80003e6:	d0e6      	beq.n	80003b6 <__udivmoddi4+0xa6>
 80003e8:	e9c5 6300 	strd	r6, r3, [r5]
 80003ec:	e7e3      	b.n	80003b6 <__udivmoddi4+0xa6>
 80003ee:	2a00      	cmp	r2, #0
 80003f0:	f040 8090 	bne.w	8000514 <__udivmoddi4+0x204>
 80003f4:	eba1 040c 	sub.w	r4, r1, ip
 80003f8:	ea4f 481c 	mov.w	r8, ip, lsr #16
 80003fc:	fa1f f78c 	uxth.w	r7, ip
 8000400:	2101      	movs	r1, #1
 8000402:	fbb4 f6f8 	udiv	r6, r4, r8
 8000406:	ea4f 431e 	mov.w	r3, lr, lsr #16
 800040a:	fb08 4416 	mls	r4, r8, r6, r4
 800040e:	ea43 4304 	orr.w	r3, r3, r4, lsl #16
 8000412:	fb07 f006 	mul.w	r0, r7, r6
 8000416:	4298      	cmp	r0, r3
 8000418:	d908      	bls.n	800042c <__udivmoddi4+0x11c>
 800041a:	eb1c 0303 	adds.w	r3, ip, r3
 800041e:	f106 34ff 	add.w	r4, r6, #4294967295
 8000422:	d202      	bcs.n	800042a <__udivmoddi4+0x11a>
 8000424:	4298      	cmp	r0, r3
 8000426:	f200 80cd 	bhi.w	80005c4 <__udivmoddi4+0x2b4>
 800042a:	4626      	mov	r6, r4
 800042c:	1a1c      	subs	r4, r3, r0
 800042e:	fa1f f38e 	uxth.w	r3, lr
 8000432:	fbb4 f0f8 	udiv	r0, r4, r8
 8000436:	fb08 4410 	mls	r4, r8, r0, r4
 800043a:	ea43 4304 	orr.w	r3, r3, r4, lsl #16
 800043e:	fb00 f707 	mul.w	r7, r0, r7
 8000442:	429f      	cmp	r7, r3
 8000444:	d908      	bls.n	8000458 <__udivmoddi4+0x148>
 8000446:	eb1c 0303 	adds.w	r3, ip, r3
 800044a:	f100 34ff 	add.w	r4, r0, #4294967295
 800044e:	d202      	bcs.n	8000456 <__udivmoddi4+0x146>
 8000450:	429f      	cmp	r7, r3
 8000452:	f200 80b0 	bhi.w	80005b6 <__udivmoddi4+0x2a6>
 8000456:	4620      	mov	r0, r4
 8000458:	1bdb      	subs	r3, r3, r7
 800045a:	ea40 4006 	orr.w	r0, r0, r6, lsl #16
 800045e:	e7a5      	b.n	80003ac <__udivmoddi4+0x9c>
 8000460:	f1c1 0620 	rsb	r6, r1, #32
 8000464:	408b      	lsls	r3, r1
 8000466:	fa22 f706 	lsr.w	r7, r2, r6
 800046a:	431f      	orrs	r7, r3
 800046c:	fa20 fc06 	lsr.w	ip, r0, r6
 8000470:	fa04 f301 	lsl.w	r3, r4, r1
 8000474:	ea43 030c 	orr.w	r3, r3, ip
 8000478:	40f4      	lsrs	r4, r6
 800047a:	fa00 f801 	lsl.w	r8, r0, r1
 800047e:	0c38      	lsrs	r0, r7, #16
 8000480:	ea4f 4913 	mov.w	r9, r3, lsr #16
 8000484:	fbb4 fef0 	udiv	lr, r4, r0
 8000488:	fa1f fc87 	uxth.w	ip, r7
 800048c:	fb00 441e 	mls	r4, r0, lr, r4
 8000490:	ea49 4404 	orr.w	r4, r9, r4, lsl #16
 8000494:	fb0e f90c 	mul.w	r9, lr, ip
 8000498:	45a1      	cmp	r9, r4
 800049a:	fa02 f201 	lsl.w	r2, r2, r1
 800049e:	d90a      	bls.n	80004b6 <__udivmoddi4+0x1a6>
 80004a0:	193c      	adds	r4, r7, r4
 80004a2:	f10e 3aff 	add.w	sl, lr, #4294967295
 80004a6:	f080 8084 	bcs.w	80005b2 <__udivmoddi4+0x2a2>
 80004aa:	45a1      	cmp	r9, r4
 80004ac:	f240 8081 	bls.w	80005b2 <__udivmoddi4+0x2a2>
 80004b0:	f1ae 0e02 	sub.w	lr, lr, #2
 80004b4:	443c      	add	r4, r7
 80004b6:	eba4 0409 	sub.w	r4, r4, r9
 80004ba:	fa1f f983 	uxth.w	r9, r3
 80004be:	fbb4 f3f0 	udiv	r3, r4, r0
 80004c2:	fb00 4413 	mls	r4, r0, r3, r4
 80004c6:	ea49 4404 	orr.w	r4, r9, r4, lsl #16
 80004ca:	fb03 fc0c 	mul.w	ip, r3, ip
 80004ce:	45a4      	cmp	ip, r4
 80004d0:	d907      	bls.n	80004e2 <__udivmoddi4+0x1d2>
 80004d2:	193c      	adds	r4, r7, r4
 80004d4:	f103 30ff 	add.w	r0, r3, #4294967295
 80004d8:	d267      	bcs.n	80005aa <__udivmoddi4+0x29a>
 80004da:	45a4      	cmp	ip, r4
 80004dc:	d965      	bls.n	80005aa <__udivmoddi4+0x29a>
 80004de:	3b02      	subs	r3, #2
 80004e0:	443c      	add	r4, r7
 80004e2:	ea43 400e 	orr.w	r0, r3, lr, lsl #16
 80004e6:	fba0 9302 	umull	r9, r3, r0, r2
 80004ea:	eba4 040c 	sub.w	r4, r4, ip
 80004ee:	429c      	cmp	r4, r3
 80004f0:	46ce      	mov	lr, r9
 80004f2:	469c      	mov	ip, r3
 80004f4:	d351      	bcc.n	800059a <__udivmoddi4+0x28a>
 80004f6:	d04e      	beq.n	8000596 <__udivmoddi4+0x286>
 80004f8:	b155      	cbz	r5, 8000510 <__udivmoddi4+0x200>
 80004fa:	ebb8 030e 	subs.w	r3, r8, lr
 80004fe:	eb64 040c 	sbc.w	r4, r4, ip
 8000502:	fa04 f606 	lsl.w	r6, r4, r6
 8000506:	40cb      	lsrs	r3, r1
 8000508:	431e      	orrs	r6, r3
 800050a:	40cc      	lsrs	r4, r1
 800050c:	e9c5 6400 	strd	r6, r4, [r5]
 8000510:	2100      	movs	r1, #0
 8000512:	e750      	b.n	80003b6 <__udivmoddi4+0xa6>
 8000514:	f1c2 0320 	rsb	r3, r2, #32
 8000518:	fa20 f103 	lsr.w	r1, r0, r3
 800051c:	fa0c fc02 	lsl.w	ip, ip, r2
 8000520:	fa24 f303 	lsr.w	r3, r4, r3
 8000524:	4094      	lsls	r4, r2
 8000526:	430c      	orrs	r4, r1
 8000528:	ea4f 481c 	mov.w	r8, ip, lsr #16
 800052c:	fa00 fe02 	lsl.w	lr, r0, r2
 8000530:	fa1f f78c 	uxth.w	r7, ip
 8000534:	fbb3 f0f8 	udiv	r0, r3, r8
 8000538:	fb08 3110 	mls	r1, r8, r0, r3
 800053c:	0c23      	lsrs	r3, r4, #16
 800053e:	ea43 4301 	orr.w	r3, r3, r1, lsl #16
 8000542:	fb00 f107 	mul.w	r1, r0, r7
 8000546:	4299      	cmp	r1, r3
 8000548:	d908      	bls.n	800055c <__udivmoddi4+0x24c>
 800054a:	eb1c 0303 	adds.w	r3, ip, r3
 800054e:	f100 36ff 	add.w	r6, r0, #4294967295
 8000552:	d22c      	bcs.n	80005ae <__udivmoddi4+0x29e>
 8000554:	4299      	cmp	r1, r3
 8000556:	d92a      	bls.n	80005ae <__udivmoddi4+0x29e>
 8000558:	3802      	subs	r0, #2
 800055a:	4463      	add	r3, ip
 800055c:	1a5b      	subs	r3, r3, r1
 800055e:	b2a4      	uxth	r4, r4
 8000560:	fbb3 f1f8 	udiv	r1, r3, r8
 8000564:	fb08 3311 	mls	r3, r8, r1, r3
 8000568:	ea44 4403 	orr.w	r4, r4, r3, lsl #16
 800056c:	fb01 f307 	mul.w	r3, r1, r7
 8000570:	42a3      	cmp	r3, r4
 8000572:	d908      	bls.n	8000586 <__udivmoddi4+0x276>
 8000574:	eb1c 0404 	adds.w	r4, ip, r4
 8000578:	f101 36ff 	add.w	r6, r1, #4294967295
 800057c:	d213      	bcs.n	80005a6 <__udivmoddi4+0x296>
 800057e:	42a3      	cmp	r3, r4
 8000580:	d911      	bls.n	80005a6 <__udivmoddi4+0x296>
 8000582:	3902      	subs	r1, #2
 8000584:	4464      	add	r4, ip
 8000586:	1ae4      	subs	r4, r4, r3
 8000588:	ea41 4100 	orr.w	r1, r1, r0, lsl #16
 800058c:	e739      	b.n	8000402 <__udivmoddi4+0xf2>
 800058e:	4604      	mov	r4, r0
 8000590:	e6f0      	b.n	8000374 <__udivmoddi4+0x64>
 8000592:	4608      	mov	r0, r1
 8000594:	e706      	b.n	80003a4 <__udivmoddi4+0x94>
 8000596:	45c8      	cmp	r8, r9
 8000598:	d2ae      	bcs.n	80004f8 <__udivmoddi4+0x1e8>
 800059a:	ebb9 0e02 	subs.w	lr, r9, r2
 800059e:	eb63 0c07 	sbc.w	ip, r3, r7
 80005a2:	3801      	subs	r0, #1
 80005a4:	e7a8      	b.n	80004f8 <__udivmoddi4+0x1e8>
 80005a6:	4631      	mov	r1, r6
 80005a8:	e7ed      	b.n	8000586 <__udivmoddi4+0x276>
 80005aa:	4603      	mov	r3, r0
 80005ac:	e799      	b.n	80004e2 <__udivmoddi4+0x1d2>
 80005ae:	4630      	mov	r0, r6
 80005b0:	e7d4      	b.n	800055c <__udivmoddi4+0x24c>
 80005b2:	46d6      	mov	lr, sl
 80005b4:	e77f      	b.n	80004b6 <__udivmoddi4+0x1a6>
 80005b6:	4463      	add	r3, ip
 80005b8:	3802      	subs	r0, #2
 80005ba:	e74d      	b.n	8000458 <__udivmoddi4+0x148>
 80005bc:	4606      	mov	r6, r0
 80005be:	4623      	mov	r3, r4
 80005c0:	4608      	mov	r0, r1
 80005c2:	e70f      	b.n	80003e4 <__udivmoddi4+0xd4>
 80005c4:	3e02      	subs	r6, #2
 80005c6:	4463      	add	r3, ip
 80005c8:	e730      	b.n	800042c <__udivmoddi4+0x11c>
 80005ca:	bf00      	nop

080005cc <__aeabi_idiv0>:
 80005cc:	4770      	bx	lr
 80005ce:	bf00      	nop

080005d0 <AppCAN_Init>:
 * AppCAN_Init:
 *
 * Khoi tao filter va start CAN.
 */
void AppCAN_Init(void)
{
 80005d0:	b580      	push	{r7, lr}
 80005d2:	b08a      	sub	sp, #40	@ 0x28
 80005d4:	af00      	add	r7, sp, #0
    CAN_FilterTypeDef canFilter;

    /*
     * Cau hinh filter nhan tat ca CAN ID.
     */
    canFilter.FilterBank = 0;
 80005d6:	2300      	movs	r3, #0
 80005d8:	617b      	str	r3, [r7, #20]
    canFilter.FilterMode = CAN_FILTERMODE_IDMASK;
 80005da:	2300      	movs	r3, #0
 80005dc:	61bb      	str	r3, [r7, #24]
    canFilter.FilterScale = CAN_FILTERSCALE_32BIT;
 80005de:	2301      	movs	r3, #1
 80005e0:	61fb      	str	r3, [r7, #28]
    canFilter.FilterIdHigh = 0x0000;
 80005e2:	2300      	movs	r3, #0
 80005e4:	603b      	str	r3, [r7, #0]
    canFilter.FilterIdLow = 0x0000;
 80005e6:	2300      	movs	r3, #0
 80005e8:	607b      	str	r3, [r7, #4]
    canFilter.FilterMaskIdHigh = 0x0000;
 80005ea:	2300      	movs	r3, #0
 80005ec:	60bb      	str	r3, [r7, #8]
    canFilter.FilterMaskIdLow = 0x0000;
 80005ee:	2300      	movs	r3, #0
 80005f0:	60fb      	str	r3, [r7, #12]
    canFilter.FilterFIFOAssignment = CAN_RX_FIFO0;
 80005f2:	2300      	movs	r3, #0
 80005f4:	613b      	str	r3, [r7, #16]
    canFilter.FilterActivation = ENABLE;
 80005f6:	2301      	movs	r3, #1
 80005f8:	623b      	str	r3, [r7, #32]
    canFilter.SlaveStartFilterBank = 14;
 80005fa:	230e      	movs	r3, #14
 80005fc:	627b      	str	r3, [r7, #36]	@ 0x24

    if (HAL_CAN_ConfigFilter(&hcan1, &canFilter) != HAL_OK)
 80005fe:	463b      	mov	r3, r7
 8000600:	4619      	mov	r1, r3
 8000602:	480d      	ldr	r0, [pc, #52]	@ (8000638 <AppCAN_Init+0x68>)
 8000604:	f001 fd4e 	bl	80020a4 <HAL_CAN_ConfigFilter>
 8000608:	4603      	mov	r3, r0
 800060a:	2b00      	cmp	r3, #0
 800060c:	d003      	beq.n	8000616 <AppCAN_Init+0x46>
    {
        UART_SendString("[ERROR] CAN FILTER CONFIG FAIL\r\n");
 800060e:	480b      	ldr	r0, [pc, #44]	@ (800063c <AppCAN_Init+0x6c>)
 8000610:	f000 ffce 	bl	80015b0 <UART_SendString>
        return;
 8000614:	e00c      	b.n	8000630 <AppCAN_Init+0x60>
    }

    if (HAL_CAN_Start(&hcan1) != HAL_OK)
 8000616:	4808      	ldr	r0, [pc, #32]	@ (8000638 <AppCAN_Init+0x68>)
 8000618:	f001 fe22 	bl	8002260 <HAL_CAN_Start>
 800061c:	4603      	mov	r3, r0
 800061e:	2b00      	cmp	r3, #0
 8000620:	d003      	beq.n	800062a <AppCAN_Init+0x5a>
    {
        UART_SendString("[ERROR] CAN START FAIL\r\n");
 8000622:	4807      	ldr	r0, [pc, #28]	@ (8000640 <AppCAN_Init+0x70>)
 8000624:	f000 ffc4 	bl	80015b0 <UART_SendString>
        return;
 8000628:	e002      	b.n	8000630 <AppCAN_Init+0x60>
//    {
//        UART_SendString("[ERROR] CAN NOTIFICATION FAIL\r\n");
//        return;
//    }

    UART_SendString("[INFO] CAN INIT OK\r\n");
 800062a:	4806      	ldr	r0, [pc, #24]	@ (8000644 <AppCAN_Init+0x74>)
 800062c:	f000 ffc0 	bl	80015b0 <UART_SendString>
}
 8000630:	3728      	adds	r7, #40	@ 0x28
 8000632:	46bd      	mov	sp, r7
 8000634:	bd80      	pop	{r7, pc}
 8000636:	bf00      	nop
 8000638:	20000120 	.word	0x20000120
 800063c:	08006478 	.word	0x08006478
 8000640:	0800649c 	.word	0x0800649c
 8000644:	080064b8 	.word	0x080064b8

08000648 <AppCAN_SendTestFrame>:
 * AppCAN_SendTestFrame:
 *
 * Gui mot CAN frame test.
 */
void AppCAN_SendTestFrame(void)
{
 8000648:	b580      	push	{r7, lr}
 800064a:	b0a4      	sub	sp, #144	@ 0x90
 800064c:	af02      	add	r7, sp, #8
    CAN_TxHeaderTypeDef txHeader;
    uint8_t txData[8] = {0};
 800064e:	2300      	movs	r3, #0
 8000650:	66bb      	str	r3, [r7, #104]	@ 0x68
 8000652:	2300      	movs	r3, #0
 8000654:	66fb      	str	r3, [r7, #108]	@ 0x6c
    uint32_t txMailbox;
    char buffer[96];

    txHeader.StdId = 0x100;
 8000656:	f44f 7380 	mov.w	r3, #256	@ 0x100
 800065a:	673b      	str	r3, [r7, #112]	@ 0x70
    txHeader.ExtId = 0x00;
 800065c:	2300      	movs	r3, #0
 800065e:	677b      	str	r3, [r7, #116]	@ 0x74
    txHeader.IDE = CAN_ID_STD;
 8000660:	2300      	movs	r3, #0
 8000662:	67bb      	str	r3, [r7, #120]	@ 0x78
    txHeader.RTR = CAN_RTR_DATA;
 8000664:	2300      	movs	r3, #0
 8000666:	67fb      	str	r3, [r7, #124]	@ 0x7c
    txHeader.DLC = 1;
 8000668:	2301      	movs	r3, #1
 800066a:	f8c7 3080 	str.w	r3, [r7, #128]	@ 0x80
    txHeader.TransmitGlobalTime = DISABLE;
 800066e:	2300      	movs	r3, #0
 8000670:	f887 3084 	strb.w	r3, [r7, #132]	@ 0x84

    txData[0] = 0x01;
 8000674:	2301      	movs	r3, #1
 8000676:	f887 3068 	strb.w	r3, [r7, #104]	@ 0x68

    if (HAL_CAN_AddTxMessage(&hcan1, &txHeader, txData, &txMailbox) == HAL_OK)
 800067a:	f107 0364 	add.w	r3, r7, #100	@ 0x64
 800067e:	f107 0268 	add.w	r2, r7, #104	@ 0x68
 8000682:	f107 0170 	add.w	r1, r7, #112	@ 0x70
 8000686:	4812      	ldr	r0, [pc, #72]	@ (80006d0 <AppCAN_SendTestFrame+0x88>)
 8000688:	f001 fe2e 	bl	80022e8 <HAL_CAN_AddTxMessage>
 800068c:	4603      	mov	r3, r0
 800068e:	2b00      	cmp	r3, #0
 8000690:	d10d      	bne.n	80006ae <AppCAN_SendTestFrame+0x66>
    {
        snprintf(buffer,
 8000692:	6f3b      	ldr	r3, [r7, #112]	@ 0x70
                 sizeof(buffer),
                 "[INFO] CAN TX ID=0x%03lX DATA=%02X\r\n",
                 txHeader.StdId,
                 txData[0]);
 8000694:	f897 2068 	ldrb.w	r2, [r7, #104]	@ 0x68
        snprintf(buffer,
 8000698:	1d38      	adds	r0, r7, #4
 800069a:	9200      	str	r2, [sp, #0]
 800069c:	4a0d      	ldr	r2, [pc, #52]	@ (80006d4 <AppCAN_SendTestFrame+0x8c>)
 800069e:	2160      	movs	r1, #96	@ 0x60
 80006a0:	f005 fa16 	bl	8005ad0 <sniprintf>

        UART_SendString(buffer);
 80006a4:	1d3b      	adds	r3, r7, #4
 80006a6:	4618      	mov	r0, r3
 80006a8:	f000 ff82 	bl	80015b0 <UART_SendString>
                 "[ERROR] CAN TX FAIL ERROR=0x%08lX\r\n",
                 HAL_CAN_GetError(&hcan1));

        UART_SendString(buffer);
    }
}
 80006ac:	e00c      	b.n	80006c8 <AppCAN_SendTestFrame+0x80>
        snprintf(buffer,
 80006ae:	4808      	ldr	r0, [pc, #32]	@ (80006d0 <AppCAN_SendTestFrame+0x88>)
 80006b0:	f002 fac0 	bl	8002c34 <HAL_CAN_GetError>
 80006b4:	4603      	mov	r3, r0
 80006b6:	1d38      	adds	r0, r7, #4
 80006b8:	4a07      	ldr	r2, [pc, #28]	@ (80006d8 <AppCAN_SendTestFrame+0x90>)
 80006ba:	2160      	movs	r1, #96	@ 0x60
 80006bc:	f005 fa08 	bl	8005ad0 <sniprintf>
        UART_SendString(buffer);
 80006c0:	1d3b      	adds	r3, r7, #4
 80006c2:	4618      	mov	r0, r3
 80006c4:	f000 ff74 	bl	80015b0 <UART_SendString>
}
 80006c8:	bf00      	nop
 80006ca:	3788      	adds	r7, #136	@ 0x88
 80006cc:	46bd      	mov	sp, r7
 80006ce:	bd80      	pop	{r7, pc}
 80006d0:	20000120 	.word	0x20000120
 80006d4:	080064d0 	.word	0x080064d0
 80006d8:	080064f8 	.word	0x080064f8

080006dc <HAL_CAN_RxFifo0MsgPendingCallback>:
 * HAL_CAN_RxFifo0MsgPendingCallback:
 *
 * Ham nay duoc HAL goi khi CAN FIFO0 co frame moi.
 */
void HAL_CAN_RxFifo0MsgPendingCallback(CAN_HandleTypeDef *hcan)
{
 80006dc:	b5f0      	push	{r4, r5, r6, r7, lr}
 80006de:	b0bb      	sub	sp, #236	@ 0xec
 80006e0:	af0a      	add	r7, sp, #40	@ 0x28
 80006e2:	6178      	str	r0, [r7, #20]
    CAN_RxHeaderTypeDef rxHeader;
    uint8_t rxData[8];
    char buffer[128];

    if (hcan->Instance == CAN1)
 80006e4:	697b      	ldr	r3, [r7, #20]
 80006e6:	681b      	ldr	r3, [r3, #0]
 80006e8:	4a23      	ldr	r2, [pc, #140]	@ (8000778 <HAL_CAN_RxFifo0MsgPendingCallback+0x9c>)
 80006ea:	4293      	cmp	r3, r2
 80006ec:	d13f      	bne.n	800076e <HAL_CAN_RxFifo0MsgPendingCallback+0x92>
    {
        if (HAL_CAN_GetRxMessage(hcan, CAN_RX_FIFO0, &rxHeader, rxData) == HAL_OK)
 80006ee:	f107 039c 	add.w	r3, r7, #156	@ 0x9c
 80006f2:	f107 02a4 	add.w	r2, r7, #164	@ 0xa4
 80006f6:	2100      	movs	r1, #0
 80006f8:	6978      	ldr	r0, [r7, #20]
 80006fa:	f001 fefa 	bl	80024f2 <HAL_CAN_GetRxMessage>
 80006fe:	4603      	mov	r3, r0
 8000700:	2b00      	cmp	r3, #0
 8000702:	d134      	bne.n	800076e <HAL_CAN_RxFifo0MsgPendingCallback+0x92>
        {
            snprintf(buffer,
 8000704:	f8d7 20a4 	ldr.w	r2, [r7, #164]	@ 0xa4
 8000708:	f8d7 30b4 	ldr.w	r3, [r7, #180]	@ 0xb4
 800070c:	613b      	str	r3, [r7, #16]
                     sizeof(buffer),
                     "[INFO] CAN RX ID=0x%03lX DLC=%lu DATA=%02X %02X %02X %02X %02X %02X %02X %02X\r\n",
                     rxHeader.StdId,
                     rxHeader.DLC,
                     rxData[0],
 800070e:	f897 109c 	ldrb.w	r1, [r7, #156]	@ 0x9c
                     rxData[1],
 8000712:	f897 009d 	ldrb.w	r0, [r7, #157]	@ 0x9d
            snprintf(buffer,
 8000716:	4604      	mov	r4, r0
                     rxData[2],
 8000718:	f897 009e 	ldrb.w	r0, [r7, #158]	@ 0x9e
            snprintf(buffer,
 800071c:	4605      	mov	r5, r0
                     rxData[3],
 800071e:	f897 009f 	ldrb.w	r0, [r7, #159]	@ 0x9f
            snprintf(buffer,
 8000722:	4606      	mov	r6, r0
                     rxData[4],
 8000724:	f897 00a0 	ldrb.w	r0, [r7, #160]	@ 0xa0
            snprintf(buffer,
 8000728:	60f8      	str	r0, [r7, #12]
                     rxData[5],
 800072a:	f897 00a1 	ldrb.w	r0, [r7, #161]	@ 0xa1
            snprintf(buffer,
 800072e:	60b8      	str	r0, [r7, #8]
                     rxData[6],
 8000730:	f897 00a2 	ldrb.w	r0, [r7, #162]	@ 0xa2
            snprintf(buffer,
 8000734:	6078      	str	r0, [r7, #4]
                     rxData[7]);
 8000736:	f897 00a3 	ldrb.w	r0, [r7, #163]	@ 0xa3
            snprintf(buffer,
 800073a:	4603      	mov	r3, r0
 800073c:	f107 001c 	add.w	r0, r7, #28
 8000740:	9308      	str	r3, [sp, #32]
 8000742:	687b      	ldr	r3, [r7, #4]
 8000744:	9307      	str	r3, [sp, #28]
 8000746:	68bb      	ldr	r3, [r7, #8]
 8000748:	9306      	str	r3, [sp, #24]
 800074a:	68fb      	ldr	r3, [r7, #12]
 800074c:	9305      	str	r3, [sp, #20]
 800074e:	9604      	str	r6, [sp, #16]
 8000750:	9503      	str	r5, [sp, #12]
 8000752:	9402      	str	r4, [sp, #8]
 8000754:	9101      	str	r1, [sp, #4]
 8000756:	693b      	ldr	r3, [r7, #16]
 8000758:	9300      	str	r3, [sp, #0]
 800075a:	4613      	mov	r3, r2
 800075c:	4a07      	ldr	r2, [pc, #28]	@ (800077c <HAL_CAN_RxFifo0MsgPendingCallback+0xa0>)
 800075e:	2180      	movs	r1, #128	@ 0x80
 8000760:	f005 f9b6 	bl	8005ad0 <sniprintf>

            UART_SendString(buffer);
 8000764:	f107 031c 	add.w	r3, r7, #28
 8000768:	4618      	mov	r0, r3
 800076a:	f000 ff21 	bl	80015b0 <UART_SendString>
        }
    }
}
 800076e:	bf00      	nop
 8000770:	37c4      	adds	r7, #196	@ 0xc4
 8000772:	46bd      	mov	sp, r7
 8000774:	bdf0      	pop	{r4, r5, r6, r7, pc}
 8000776:	bf00      	nop
 8000778:	40006400 	.word	0x40006400
 800077c:	0800651c 	.word	0x0800651c

08000780 <AppCAN_PollRx>:

void AppCAN_PollRx(void)
{
 8000780:	b5f0      	push	{r4, r5, r6, r7, lr}
 8000782:	b0b9      	sub	sp, #228	@ 0xe4
 8000784:	af0a      	add	r7, sp, #40	@ 0x28
    char buffer[128];

    /*
     * Neu FIFO0 khong co frame thi bao ro.
     */
    if (HAL_CAN_GetRxFifoFillLevel(&hcan1, CAN_RX_FIFO0) == 0)
 8000786:	2100      	movs	r1, #0
 8000788:	482e      	ldr	r0, [pc, #184]	@ (8000844 <AppCAN_PollRx+0xc4>)
 800078a:	f001 ffd4 	bl	8002736 <HAL_CAN_GetRxFifoFillLevel>
 800078e:	4603      	mov	r3, r0
 8000790:	2b00      	cmp	r3, #0
 8000792:	d103      	bne.n	800079c <AppCAN_PollRx+0x1c>
    {
        UART_SendString("[WARNING] CAN RX FIFO EMPTY\r\n");
 8000794:	482c      	ldr	r0, [pc, #176]	@ (8000848 <AppCAN_PollRx+0xc8>)
 8000796:	f000 ff0b 	bl	80015b0 <UART_SendString>
 800079a:	e04f      	b.n	800083c <AppCAN_PollRx+0xbc>
        return;
    }

    if (HAL_CAN_GetRxMessage(&hcan1, CAN_RX_FIFO0, &rxHeader, rxData) == HAL_OK)
 800079c:	f107 0394 	add.w	r3, r7, #148	@ 0x94
 80007a0:	f107 029c 	add.w	r2, r7, #156	@ 0x9c
 80007a4:	2100      	movs	r1, #0
 80007a6:	4827      	ldr	r0, [pc, #156]	@ (8000844 <AppCAN_PollRx+0xc4>)
 80007a8:	f001 fea3 	bl	80024f2 <HAL_CAN_GetRxMessage>
 80007ac:	4603      	mov	r3, r0
 80007ae:	2b00      	cmp	r3, #0
 80007b0:	d135      	bne.n	800081e <AppCAN_PollRx+0x9e>
    {
        snprintf(buffer,
 80007b2:	f8d7 209c 	ldr.w	r2, [r7, #156]	@ 0x9c
 80007b6:	f8d7 30ac 	ldr.w	r3, [r7, #172]	@ 0xac
 80007ba:	60fb      	str	r3, [r7, #12]
                 sizeof(buffer),
                 "[INFO] CAN RX ID=0x%03lX DLC=%lu DATA=%02X %02X %02X %02X %02X %02X %02X %02X\r\n",
                 rxHeader.StdId,
                 rxHeader.DLC,
                 rxData[0],
 80007bc:	f897 1094 	ldrb.w	r1, [r7, #148]	@ 0x94
                 rxData[1],
 80007c0:	f897 0095 	ldrb.w	r0, [r7, #149]	@ 0x95
        snprintf(buffer,
 80007c4:	4604      	mov	r4, r0
                 rxData[2],
 80007c6:	f897 0096 	ldrb.w	r0, [r7, #150]	@ 0x96
        snprintf(buffer,
 80007ca:	4605      	mov	r5, r0
                 rxData[3],
 80007cc:	f897 0097 	ldrb.w	r0, [r7, #151]	@ 0x97
        snprintf(buffer,
 80007d0:	4606      	mov	r6, r0
                 rxData[4],
 80007d2:	f897 0098 	ldrb.w	r0, [r7, #152]	@ 0x98
        snprintf(buffer,
 80007d6:	60b8      	str	r0, [r7, #8]
                 rxData[5],
 80007d8:	f897 0099 	ldrb.w	r0, [r7, #153]	@ 0x99
        snprintf(buffer,
 80007dc:	6078      	str	r0, [r7, #4]
                 rxData[6],
 80007de:	f897 009a 	ldrb.w	r0, [r7, #154]	@ 0x9a
        snprintf(buffer,
 80007e2:	6038      	str	r0, [r7, #0]
                 rxData[7]);
 80007e4:	f897 009b 	ldrb.w	r0, [r7, #155]	@ 0x9b
        snprintf(buffer,
 80007e8:	4603      	mov	r3, r0
 80007ea:	f107 0014 	add.w	r0, r7, #20
 80007ee:	9308      	str	r3, [sp, #32]
 80007f0:	683b      	ldr	r3, [r7, #0]
 80007f2:	9307      	str	r3, [sp, #28]
 80007f4:	687b      	ldr	r3, [r7, #4]
 80007f6:	9306      	str	r3, [sp, #24]
 80007f8:	68bb      	ldr	r3, [r7, #8]
 80007fa:	9305      	str	r3, [sp, #20]
 80007fc:	9604      	str	r6, [sp, #16]
 80007fe:	9503      	str	r5, [sp, #12]
 8000800:	9402      	str	r4, [sp, #8]
 8000802:	9101      	str	r1, [sp, #4]
 8000804:	68fb      	ldr	r3, [r7, #12]
 8000806:	9300      	str	r3, [sp, #0]
 8000808:	4613      	mov	r3, r2
 800080a:	4a10      	ldr	r2, [pc, #64]	@ (800084c <AppCAN_PollRx+0xcc>)
 800080c:	2180      	movs	r1, #128	@ 0x80
 800080e:	f005 f95f 	bl	8005ad0 <sniprintf>

        UART_SendString(buffer);
 8000812:	f107 0314 	add.w	r3, r7, #20
 8000816:	4618      	mov	r0, r3
 8000818:	f000 feca 	bl	80015b0 <UART_SendString>
 800081c:	e00e      	b.n	800083c <AppCAN_PollRx+0xbc>
    }
    else
    {
        snprintf(buffer,
 800081e:	4809      	ldr	r0, [pc, #36]	@ (8000844 <AppCAN_PollRx+0xc4>)
 8000820:	f002 fa08 	bl	8002c34 <HAL_CAN_GetError>
 8000824:	4603      	mov	r3, r0
 8000826:	f107 0014 	add.w	r0, r7, #20
 800082a:	4a09      	ldr	r2, [pc, #36]	@ (8000850 <AppCAN_PollRx+0xd0>)
 800082c:	2180      	movs	r1, #128	@ 0x80
 800082e:	f005 f94f 	bl	8005ad0 <sniprintf>
                 sizeof(buffer),
                 "[ERROR] CAN RX FAIL ERROR=0x%08lX\r\n",
                 HAL_CAN_GetError(&hcan1));

        UART_SendString(buffer);
 8000832:	f107 0314 	add.w	r3, r7, #20
 8000836:	4618      	mov	r0, r3
 8000838:	f000 feba 	bl	80015b0 <UART_SendString>
    }
}
 800083c:	37bc      	adds	r7, #188	@ 0xbc
 800083e:	46bd      	mov	sp, r7
 8000840:	bdf0      	pop	{r4, r5, r6, r7, pc}
 8000842:	bf00      	nop
 8000844:	20000120 	.word	0x20000120
 8000848:	0800656c 	.word	0x0800656c
 800084c:	0800651c 	.word	0x0800651c
 8000850:	0800658c 	.word	0x0800658c

08000854 <AppCAN_GetStateString>:
 * AppCAN_GetStateString:
 *
 * Chuyen trang thai CAN thanh chuoi de hien thi de doc.
 */
static const char* AppCAN_GetStateString(HAL_CAN_StateTypeDef state)
{
 8000854:	b480      	push	{r7}
 8000856:	b083      	sub	sp, #12
 8000858:	af00      	add	r7, sp, #0
 800085a:	4603      	mov	r3, r0
 800085c:	71fb      	strb	r3, [r7, #7]
    switch (state)
 800085e:	79fb      	ldrb	r3, [r7, #7]
 8000860:	2b05      	cmp	r3, #5
 8000862:	d81b      	bhi.n	800089c <AppCAN_GetStateString+0x48>
 8000864:	a201      	add	r2, pc, #4	@ (adr r2, 800086c <AppCAN_GetStateString+0x18>)
 8000866:	f852 f023 	ldr.w	pc, [r2, r3, lsl #2]
 800086a:	bf00      	nop
 800086c:	08000885 	.word	0x08000885
 8000870:	08000889 	.word	0x08000889
 8000874:	0800088d 	.word	0x0800088d
 8000878:	08000891 	.word	0x08000891
 800087c:	08000895 	.word	0x08000895
 8000880:	08000899 	.word	0x08000899
    {
        case HAL_CAN_STATE_RESET:
            return "RESET";
 8000884:	4b09      	ldr	r3, [pc, #36]	@ (80008ac <AppCAN_GetStateString+0x58>)
 8000886:	e00a      	b.n	800089e <AppCAN_GetStateString+0x4a>

        case HAL_CAN_STATE_READY:
            return "READY";
 8000888:	4b09      	ldr	r3, [pc, #36]	@ (80008b0 <AppCAN_GetStateString+0x5c>)
 800088a:	e008      	b.n	800089e <AppCAN_GetStateString+0x4a>

        case HAL_CAN_STATE_LISTENING:
            return "LISTENING";
 800088c:	4b09      	ldr	r3, [pc, #36]	@ (80008b4 <AppCAN_GetStateString+0x60>)
 800088e:	e006      	b.n	800089e <AppCAN_GetStateString+0x4a>

        case HAL_CAN_STATE_SLEEP_PENDING:
            return "SLEEP_PENDING";
 8000890:	4b09      	ldr	r3, [pc, #36]	@ (80008b8 <AppCAN_GetStateString+0x64>)
 8000892:	e004      	b.n	800089e <AppCAN_GetStateString+0x4a>

        case HAL_CAN_STATE_SLEEP_ACTIVE:
            return "SLEEP_ACTIVE";
 8000894:	4b09      	ldr	r3, [pc, #36]	@ (80008bc <AppCAN_GetStateString+0x68>)
 8000896:	e002      	b.n	800089e <AppCAN_GetStateString+0x4a>

        case HAL_CAN_STATE_ERROR:
            return "ERROR";
 8000898:	4b09      	ldr	r3, [pc, #36]	@ (80008c0 <AppCAN_GetStateString+0x6c>)
 800089a:	e000      	b.n	800089e <AppCAN_GetStateString+0x4a>

        default:
            return "UNKNOWN";
 800089c:	4b09      	ldr	r3, [pc, #36]	@ (80008c4 <AppCAN_GetStateString+0x70>)
    }
}
 800089e:	4618      	mov	r0, r3
 80008a0:	370c      	adds	r7, #12
 80008a2:	46bd      	mov	sp, r7
 80008a4:	f85d 7b04 	ldr.w	r7, [sp], #4
 80008a8:	4770      	bx	lr
 80008aa:	bf00      	nop
 80008ac:	080065b0 	.word	0x080065b0
 80008b0:	080065b8 	.word	0x080065b8
 80008b4:	080065c0 	.word	0x080065c0
 80008b8:	080065cc 	.word	0x080065cc
 80008bc:	080065dc 	.word	0x080065dc
 80008c0:	080065ec 	.word	0x080065ec
 80008c4:	080065f4 	.word	0x080065f4

080008c8 <AppCAN_ShowStatus>:

void AppCAN_ShowStatus(void)
{
 80008c8:	b580      	push	{r7, lr}
 80008ca:	b0a0      	sub	sp, #128	@ 0x80
 80008cc:	af00      	add	r7, sp, #0
    char buffer[128];

    UART_SendString("\r\n===== CAN STATUS =====\r\n");
 80008ce:	4821      	ldr	r0, [pc, #132]	@ (8000954 <AppCAN_ShowStatus+0x8c>)
 80008d0:	f000 fe6e 	bl	80015b0 <UART_SendString>

    snprintf(buffer,
 80008d4:	4820      	ldr	r0, [pc, #128]	@ (8000958 <AppCAN_ShowStatus+0x90>)
 80008d6:	f002 f985 	bl	8002be4 <HAL_CAN_GetState>
 80008da:	4603      	mov	r3, r0
 80008dc:	4618      	mov	r0, r3
 80008de:	f7ff ffb9 	bl	8000854 <AppCAN_GetStateString>
 80008e2:	4603      	mov	r3, r0
 80008e4:	4638      	mov	r0, r7
 80008e6:	4a1d      	ldr	r2, [pc, #116]	@ (800095c <AppCAN_ShowStatus+0x94>)
 80008e8:	2180      	movs	r1, #128	@ 0x80
 80008ea:	f005 f8f1 	bl	8005ad0 <sniprintf>
             sizeof(buffer),
             "CAN State : %s\r\n",
             AppCAN_GetStateString(HAL_CAN_GetState(&hcan1)));
    UART_SendString(buffer);
 80008ee:	463b      	mov	r3, r7
 80008f0:	4618      	mov	r0, r3
 80008f2:	f000 fe5d 	bl	80015b0 <UART_SendString>

    snprintf(buffer,
 80008f6:	4818      	ldr	r0, [pc, #96]	@ (8000958 <AppCAN_ShowStatus+0x90>)
 80008f8:	f002 f99c 	bl	8002c34 <HAL_CAN_GetError>
 80008fc:	4603      	mov	r3, r0
 80008fe:	4638      	mov	r0, r7
 8000900:	4a17      	ldr	r2, [pc, #92]	@ (8000960 <AppCAN_ShowStatus+0x98>)
 8000902:	2180      	movs	r1, #128	@ 0x80
 8000904:	f005 f8e4 	bl	8005ad0 <sniprintf>
             sizeof(buffer),
             "CAN Error : 0x%08lX\r\n",
             HAL_CAN_GetError(&hcan1));
    UART_SendString(buffer);
 8000908:	463b      	mov	r3, r7
 800090a:	4618      	mov	r0, r3
 800090c:	f000 fe50 	bl	80015b0 <UART_SendString>

    snprintf(buffer,
 8000910:	2100      	movs	r1, #0
 8000912:	4811      	ldr	r0, [pc, #68]	@ (8000958 <AppCAN_ShowStatus+0x90>)
 8000914:	f001 ff0f 	bl	8002736 <HAL_CAN_GetRxFifoFillLevel>
 8000918:	4603      	mov	r3, r0
 800091a:	4638      	mov	r0, r7
 800091c:	4a11      	ldr	r2, [pc, #68]	@ (8000964 <AppCAN_ShowStatus+0x9c>)
 800091e:	2180      	movs	r1, #128	@ 0x80
 8000920:	f005 f8d6 	bl	8005ad0 <sniprintf>
             sizeof(buffer),
             "RX FIFO0  : %lu\r\n",
             HAL_CAN_GetRxFifoFillLevel(&hcan1, CAN_RX_FIFO0));
    UART_SendString(buffer);
 8000924:	463b      	mov	r3, r7
 8000926:	4618      	mov	r0, r3
 8000928:	f000 fe42 	bl	80015b0 <UART_SendString>

    snprintf(buffer,
 800092c:	480a      	ldr	r0, [pc, #40]	@ (8000958 <AppCAN_ShowStatus+0x90>)
 800092e:	f001 fdab 	bl	8002488 <HAL_CAN_GetTxMailboxesFreeLevel>
 8000932:	4603      	mov	r3, r0
 8000934:	4638      	mov	r0, r7
 8000936:	4a0c      	ldr	r2, [pc, #48]	@ (8000968 <AppCAN_ShowStatus+0xa0>)
 8000938:	2180      	movs	r1, #128	@ 0x80
 800093a:	f005 f8c9 	bl	8005ad0 <sniprintf>
             sizeof(buffer),
             "TX Free   : %lu\r\n",
             HAL_CAN_GetTxMailboxesFreeLevel(&hcan1));
    UART_SendString(buffer);
 800093e:	463b      	mov	r3, r7
 8000940:	4618      	mov	r0, r3
 8000942:	f000 fe35 	bl	80015b0 <UART_SendString>

    UART_SendString("======================\r\n");
 8000946:	4809      	ldr	r0, [pc, #36]	@ (800096c <AppCAN_ShowStatus+0xa4>)
 8000948:	f000 fe32 	bl	80015b0 <UART_SendString>
}
 800094c:	bf00      	nop
 800094e:	3780      	adds	r7, #128	@ 0x80
 8000950:	46bd      	mov	sp, r7
 8000952:	bd80      	pop	{r7, pc}
 8000954:	080065fc 	.word	0x080065fc
 8000958:	20000120 	.word	0x20000120
 800095c:	08006618 	.word	0x08006618
 8000960:	0800662c 	.word	0x0800662c
 8000964:	08006644 	.word	0x08006644
 8000968:	08006658 	.word	0x08006658
 800096c:	0800666c 	.word	0x0800666c

08000970 <AppCAN_SendDtcFrame>:
 * 0x01 = P0001 SENSOR_FAIL
 * 0x02 = P0002 COMM_TIMEOUT
 * 0x03 = P0003 LOW_VOLTAGE
 */
void AppCAN_SendDtcFrame(void)
{
 8000970:	b590      	push	{r4, r7, lr}
 8000972:	b0ad      	sub	sp, #180	@ 0xb4
 8000974:	af02      	add	r7, sp, #8
    CAN_TxHeaderTypeDef txHeader;
    uint8_t txData[8] = {0};
 8000976:	2300      	movs	r3, #0
 8000978:	f8c7 3088 	str.w	r3, [r7, #136]	@ 0x88
 800097c:	2300      	movs	r3, #0
 800097e:	f8c7 308c 	str.w	r3, [r7, #140]	@ 0x8c
    uint32_t txMailbox;
    char buffer[128];

    txHeader.StdId = 0x321;
 8000982:	f240 3321 	movw	r3, #801	@ 0x321
 8000986:	f8c7 3090 	str.w	r3, [r7, #144]	@ 0x90
    txHeader.ExtId = 0x00;
 800098a:	2300      	movs	r3, #0
 800098c:	f8c7 3094 	str.w	r3, [r7, #148]	@ 0x94
    txHeader.IDE = CAN_ID_STD;
 8000990:	2300      	movs	r3, #0
 8000992:	f8c7 3098 	str.w	r3, [r7, #152]	@ 0x98
    txHeader.RTR = CAN_RTR_DATA;
 8000996:	2300      	movs	r3, #0
 8000998:	f8c7 309c 	str.w	r3, [r7, #156]	@ 0x9c
    txHeader.DLC = 1;
 800099c:	2301      	movs	r3, #1
 800099e:	f8c7 30a0 	str.w	r3, [r7, #160]	@ 0xa0
    txHeader.TransmitGlobalTime = DISABLE;
 80009a2:	2300      	movs	r3, #0
 80009a4:	f887 30a4 	strb.w	r3, [r7, #164]	@ 0xa4

    /*
     * Lay ma DTC hien tai va dua vao data[0].
     */
    txData[0] = (uint8_t)Dtc_GetCode();
 80009a8:	f000 fbe4 	bl	8001174 <Dtc_GetCode>
 80009ac:	4603      	mov	r3, r0
 80009ae:	f887 3088 	strb.w	r3, [r7, #136]	@ 0x88

    if (HAL_CAN_AddTxMessage(&hcan1, &txHeader, txData, &txMailbox) == HAL_OK)
 80009b2:	f107 0384 	add.w	r3, r7, #132	@ 0x84
 80009b6:	f107 0288 	add.w	r2, r7, #136	@ 0x88
 80009ba:	f107 0190 	add.w	r1, r7, #144	@ 0x90
 80009be:	4817      	ldr	r0, [pc, #92]	@ (8000a1c <AppCAN_SendDtcFrame+0xac>)
 80009c0:	f001 fc92 	bl	80022e8 <HAL_CAN_AddTxMessage>
 80009c4:	4603      	mov	r3, r0
 80009c6:	2b00      	cmp	r3, #0
 80009c8:	d117      	bne.n	80009fa <AppCAN_SendDtcFrame+0x8a>
    {
        snprintf(buffer,
 80009ca:	f8d7 4090 	ldr.w	r4, [r7, #144]	@ 0x90
 80009ce:	f000 fbd1 	bl	8001174 <Dtc_GetCode>
 80009d2:	4603      	mov	r3, r0
 80009d4:	4618      	mov	r0, r3
 80009d6:	f000 fbd9 	bl	800118c <Dtc_GetCodeString>
 80009da:	4603      	mov	r3, r0
                 sizeof(buffer),
                 "[INFO] CAN TX DTC ID=0x%03lX DTC=%s DATA=%02X\r\n",
                 txHeader.StdId,
                 Dtc_GetCodeString(Dtc_GetCode()),
                 txData[0]);
 80009dc:	f897 2088 	ldrb.w	r2, [r7, #136]	@ 0x88
        snprintf(buffer,
 80009e0:	1d38      	adds	r0, r7, #4
 80009e2:	9201      	str	r2, [sp, #4]
 80009e4:	9300      	str	r3, [sp, #0]
 80009e6:	4623      	mov	r3, r4
 80009e8:	4a0d      	ldr	r2, [pc, #52]	@ (8000a20 <AppCAN_SendDtcFrame+0xb0>)
 80009ea:	2180      	movs	r1, #128	@ 0x80
 80009ec:	f005 f870 	bl	8005ad0 <sniprintf>

        UART_SendString(buffer);
 80009f0:	1d3b      	adds	r3, r7, #4
 80009f2:	4618      	mov	r0, r3
 80009f4:	f000 fddc 	bl	80015b0 <UART_SendString>
                 "[ERROR] CAN TX DTC FAIL ERROR=0x%08lX\r\n",
                 (uint32_t)HAL_CAN_GetError(&hcan1));

        UART_SendString(buffer);
    }
}
 80009f8:	e00c      	b.n	8000a14 <AppCAN_SendDtcFrame+0xa4>
                 (uint32_t)HAL_CAN_GetError(&hcan1));
 80009fa:	4808      	ldr	r0, [pc, #32]	@ (8000a1c <AppCAN_SendDtcFrame+0xac>)
 80009fc:	f002 f91a 	bl	8002c34 <HAL_CAN_GetError>
 8000a00:	4603      	mov	r3, r0
        snprintf(buffer,
 8000a02:	1d38      	adds	r0, r7, #4
 8000a04:	4a07      	ldr	r2, [pc, #28]	@ (8000a24 <AppCAN_SendDtcFrame+0xb4>)
 8000a06:	2180      	movs	r1, #128	@ 0x80
 8000a08:	f005 f862 	bl	8005ad0 <sniprintf>
        UART_SendString(buffer);
 8000a0c:	1d3b      	adds	r3, r7, #4
 8000a0e:	4618      	mov	r0, r3
 8000a10:	f000 fdce 	bl	80015b0 <UART_SendString>
}
 8000a14:	bf00      	nop
 8000a16:	37ac      	adds	r7, #172	@ 0xac
 8000a18:	46bd      	mov	sp, r7
 8000a1a:	bd90      	pop	{r4, r7, pc}
 8000a1c:	20000120 	.word	0x20000120
 8000a20:	08006688 	.word	0x08006688
 8000a24:	080066b8 	.word	0x080066b8

08000a28 <AppCAN_SendEcuFrame>:
 * 0x02 = RUNNING
 * 0x03 = ERROR
 * 0x04 = SLEEP
 */
void AppCAN_SendEcuFrame(void)
{
 8000a28:	b590      	push	{r4, r7, lr}
 8000a2a:	b0ad      	sub	sp, #180	@ 0xb4
 8000a2c:	af02      	add	r7, sp, #8
    CAN_TxHeaderTypeDef txHeader;
    uint8_t txData[8] = {0};
 8000a2e:	2300      	movs	r3, #0
 8000a30:	f8c7 3088 	str.w	r3, [r7, #136]	@ 0x88
 8000a34:	2300      	movs	r3, #0
 8000a36:	f8c7 308c 	str.w	r3, [r7, #140]	@ 0x8c
    uint32_t txMailbox;
    char buffer[128];

    txHeader.StdId = 0x322;
 8000a3a:	f240 3322 	movw	r3, #802	@ 0x322
 8000a3e:	f8c7 3090 	str.w	r3, [r7, #144]	@ 0x90
    txHeader.ExtId = 0x00;
 8000a42:	2300      	movs	r3, #0
 8000a44:	f8c7 3094 	str.w	r3, [r7, #148]	@ 0x94
    txHeader.IDE = CAN_ID_STD;
 8000a48:	2300      	movs	r3, #0
 8000a4a:	f8c7 3098 	str.w	r3, [r7, #152]	@ 0x98
    txHeader.RTR = CAN_RTR_DATA;
 8000a4e:	2300      	movs	r3, #0
 8000a50:	f8c7 309c 	str.w	r3, [r7, #156]	@ 0x9c
    txHeader.DLC = 1;
 8000a54:	2301      	movs	r3, #1
 8000a56:	f8c7 30a0 	str.w	r3, [r7, #160]	@ 0xa0
    txHeader.TransmitGlobalTime = DISABLE;
 8000a5a:	2300      	movs	r3, #0
 8000a5c:	f887 30a4 	strb.w	r3, [r7, #164]	@ 0xa4

    /*
     * Lay trang thai ECU hien tai va dua vao data[0].
     */
    txData[0] = (uint8_t)Ecu_GetState();
 8000a60:	f000 fc40 	bl	80012e4 <Ecu_GetState>
 8000a64:	4603      	mov	r3, r0
 8000a66:	f887 3088 	strb.w	r3, [r7, #136]	@ 0x88

    if (HAL_CAN_AddTxMessage(&hcan1, &txHeader, txData, &txMailbox) == HAL_OK)
 8000a6a:	f107 0384 	add.w	r3, r7, #132	@ 0x84
 8000a6e:	f107 0288 	add.w	r2, r7, #136	@ 0x88
 8000a72:	f107 0190 	add.w	r1, r7, #144	@ 0x90
 8000a76:	4817      	ldr	r0, [pc, #92]	@ (8000ad4 <AppCAN_SendEcuFrame+0xac>)
 8000a78:	f001 fc36 	bl	80022e8 <HAL_CAN_AddTxMessage>
 8000a7c:	4603      	mov	r3, r0
 8000a7e:	2b00      	cmp	r3, #0
 8000a80:	d117      	bne.n	8000ab2 <AppCAN_SendEcuFrame+0x8a>
    {
        snprintf(buffer,
 8000a82:	f8d7 4090 	ldr.w	r4, [r7, #144]	@ 0x90
 8000a86:	f000 fc2d 	bl	80012e4 <Ecu_GetState>
 8000a8a:	4603      	mov	r3, r0
 8000a8c:	4618      	mov	r0, r3
 8000a8e:	f000 fc35 	bl	80012fc <Ecu_GetStateString>
 8000a92:	4603      	mov	r3, r0
                 sizeof(buffer),
                 "[INFO] CAN TX ECU ID=0x%03lX ECU=%s DATA=%02X\r\n",
                 txHeader.StdId,
                 Ecu_GetStateString(Ecu_GetState()),
                 txData[0]);
 8000a94:	f897 2088 	ldrb.w	r2, [r7, #136]	@ 0x88
        snprintf(buffer,
 8000a98:	1d38      	adds	r0, r7, #4
 8000a9a:	9201      	str	r2, [sp, #4]
 8000a9c:	9300      	str	r3, [sp, #0]
 8000a9e:	4623      	mov	r3, r4
 8000aa0:	4a0d      	ldr	r2, [pc, #52]	@ (8000ad8 <AppCAN_SendEcuFrame+0xb0>)
 8000aa2:	2180      	movs	r1, #128	@ 0x80
 8000aa4:	f005 f814 	bl	8005ad0 <sniprintf>

        UART_SendString(buffer);
 8000aa8:	1d3b      	adds	r3, r7, #4
 8000aaa:	4618      	mov	r0, r3
 8000aac:	f000 fd80 	bl	80015b0 <UART_SendString>
                 "[ERROR] CAN TX ECU FAIL ERROR=0x%08lX\r\n",
                 (uint32_t)HAL_CAN_GetError(&hcan1));

        UART_SendString(buffer);
    }
}
 8000ab0:	e00c      	b.n	8000acc <AppCAN_SendEcuFrame+0xa4>
                 (uint32_t)HAL_CAN_GetError(&hcan1));
 8000ab2:	4808      	ldr	r0, [pc, #32]	@ (8000ad4 <AppCAN_SendEcuFrame+0xac>)
 8000ab4:	f002 f8be 	bl	8002c34 <HAL_CAN_GetError>
 8000ab8:	4603      	mov	r3, r0
        snprintf(buffer,
 8000aba:	1d38      	adds	r0, r7, #4
 8000abc:	4a07      	ldr	r2, [pc, #28]	@ (8000adc <AppCAN_SendEcuFrame+0xb4>)
 8000abe:	2180      	movs	r1, #128	@ 0x80
 8000ac0:	f005 f806 	bl	8005ad0 <sniprintf>
        UART_SendString(buffer);
 8000ac4:	1d3b      	adds	r3, r7, #4
 8000ac6:	4618      	mov	r0, r3
 8000ac8:	f000 fd72 	bl	80015b0 <UART_SendString>
}
 8000acc:	bf00      	nop
 8000ace:	37ac      	adds	r7, #172	@ 0xac
 8000ad0:	46bd      	mov	sp, r7
 8000ad2:	bd90      	pop	{r4, r7, pc}
 8000ad4:	20000120 	.word	0x20000120
 8000ad8:	080066e0 	.word	0x080066e0
 8000adc:	08006710 	.word	0x08006710

08000ae0 <AppCAN_SetAutoTransmit>:
 * AppCAN_SetAutoTransmit:
 *
 * Bat hoac tat che do gui CAN tu dong.
 */
void AppCAN_SetAutoTransmit(uint8_t enable)
{
 8000ae0:	b580      	push	{r7, lr}
 8000ae2:	b09a      	sub	sp, #104	@ 0x68
 8000ae4:	af00      	add	r7, sp, #0
 8000ae6:	4603      	mov	r3, r0
 8000ae8:	71fb      	strb	r3, [r7, #7]
    char buffer[96];

    if (enable != 0)
 8000aea:	79fb      	ldrb	r3, [r7, #7]
 8000aec:	2b00      	cmp	r3, #0
 8000aee:	d00b      	beq.n	8000b08 <AppCAN_SetAutoTransmit+0x28>
    {
        canAutoTransmitEnabled = 1;
 8000af0:	4b11      	ldr	r3, [pc, #68]	@ (8000b38 <AppCAN_SetAutoTransmit+0x58>)
 8000af2:	2201      	movs	r2, #1
 8000af4:	701a      	strb	r2, [r3, #0]
        lastAutoCanTick = HAL_GetTick();
 8000af6:	f001 f9a9 	bl	8001e4c <HAL_GetTick>
 8000afa:	4603      	mov	r3, r0
 8000afc:	4a0f      	ldr	r2, [pc, #60]	@ (8000b3c <AppCAN_SetAutoTransmit+0x5c>)
 8000afe:	6013      	str	r3, [r2, #0]

        UART_SendString("[INFO] CAN AUTO TRANSMIT ON\r\n");
 8000b00:	480f      	ldr	r0, [pc, #60]	@ (8000b40 <AppCAN_SetAutoTransmit+0x60>)
 8000b02:	f000 fd55 	bl	80015b0 <UART_SendString>
 8000b06:	e005      	b.n	8000b14 <AppCAN_SetAutoTransmit+0x34>
    }
    else
    {
        canAutoTransmitEnabled = 0;
 8000b08:	4b0b      	ldr	r3, [pc, #44]	@ (8000b38 <AppCAN_SetAutoTransmit+0x58>)
 8000b0a:	2200      	movs	r2, #0
 8000b0c:	701a      	strb	r2, [r3, #0]

        UART_SendString("[INFO] CAN AUTO TRANSMIT OFF\r\n");
 8000b0e:	480d      	ldr	r0, [pc, #52]	@ (8000b44 <AppCAN_SetAutoTransmit+0x64>)
 8000b10:	f000 fd4e 	bl	80015b0 <UART_SendString>
    }

    snprintf(buffer,
 8000b14:	f107 0008 	add.w	r0, r7, #8
 8000b18:	f241 3388 	movw	r3, #5000	@ 0x1388
 8000b1c:	4a0a      	ldr	r2, [pc, #40]	@ (8000b48 <AppCAN_SetAutoTransmit+0x68>)
 8000b1e:	2160      	movs	r1, #96	@ 0x60
 8000b20:	f004 ffd6 	bl	8005ad0 <sniprintf>
             sizeof(buffer),
             "[INFO] CAN AUTO PERIOD=%lu ms\r\n",
             (uint32_t)CAN_AUTO_PERIOD_MS);

    UART_SendString(buffer);
 8000b24:	f107 0308 	add.w	r3, r7, #8
 8000b28:	4618      	mov	r0, r3
 8000b2a:	f000 fd41 	bl	80015b0 <UART_SendString>
}
 8000b2e:	bf00      	nop
 8000b30:	3768      	adds	r7, #104	@ 0x68
 8000b32:	46bd      	mov	sp, r7
 8000b34:	bd80      	pop	{r7, pc}
 8000b36:	bf00      	nop
 8000b38:	20000078 	.word	0x20000078
 8000b3c:	2000007c 	.word	0x2000007c
 8000b40:	08006738 	.word	0x08006738
 8000b44:	08006758 	.word	0x08006758
 8000b48:	08006778 	.word	0x08006778

08000b4c <AppCAN_GetAutoTransmit>:
 * AppCAN_GetAutoTransmit:
 *
 * Lay trang thai bat/tat cua che do gui CAN tu dong.
 */
uint8_t AppCAN_GetAutoTransmit(void)
{
 8000b4c:	b480      	push	{r7}
 8000b4e:	af00      	add	r7, sp, #0
    return canAutoTransmitEnabled;
 8000b50:	4b03      	ldr	r3, [pc, #12]	@ (8000b60 <AppCAN_GetAutoTransmit+0x14>)
 8000b52:	781b      	ldrb	r3, [r3, #0]
}
 8000b54:	4618      	mov	r0, r3
 8000b56:	46bd      	mov	sp, r7
 8000b58:	f85d 7b04 	ldr.w	r7, [sp], #4
 8000b5c:	4770      	bx	lr
 8000b5e:	bf00      	nop
 8000b60:	20000078 	.word	0x20000078

08000b64 <AppCAN_ProcessAutoTransmit>:
 *
 * Xu ly gui CAN tu dong theo chu ky.
 * Ham nay phai duoc goi lap lai trong while(1).
 */
void AppCAN_ProcessAutoTransmit(void)
{
 8000b64:	b580      	push	{r7, lr}
 8000b66:	b082      	sub	sp, #8
 8000b68:	af00      	add	r7, sp, #0
    uint32_t currentTick;

    /*
     * Neu chua bat auto transmit thi thoat.
     */
    if (canAutoTransmitEnabled == 0)
 8000b6a:	4b13      	ldr	r3, [pc, #76]	@ (8000bb8 <AppCAN_ProcessAutoTransmit+0x54>)
 8000b6c:	781b      	ldrb	r3, [r3, #0]
 8000b6e:	2b00      	cmp	r3, #0
 8000b70:	d01c      	beq.n	8000bac <AppCAN_ProcessAutoTransmit+0x48>
    {
        return;
    }

    currentTick = HAL_GetTick();
 8000b72:	f001 f96b 	bl	8001e4c <HAL_GetTick>
 8000b76:	6078      	str	r0, [r7, #4]

    /*
     * Neu chua du chu ky thi thoat.
     */
    if ((currentTick - lastAutoCanTick) < CAN_AUTO_PERIOD_MS)
 8000b78:	4b10      	ldr	r3, [pc, #64]	@ (8000bbc <AppCAN_ProcessAutoTransmit+0x58>)
 8000b7a:	681b      	ldr	r3, [r3, #0]
 8000b7c:	687a      	ldr	r2, [r7, #4]
 8000b7e:	1ad3      	subs	r3, r2, r3
 8000b80:	f241 3287 	movw	r2, #4999	@ 0x1387
 8000b84:	4293      	cmp	r3, r2
 8000b86:	d913      	bls.n	8000bb0 <AppCAN_ProcessAutoTransmit+0x4c>
    {
        return;
    }

    lastAutoCanTick = currentTick;
 8000b88:	4a0c      	ldr	r2, [pc, #48]	@ (8000bbc <AppCAN_ProcessAutoTransmit+0x58>)
 8000b8a:	687b      	ldr	r3, [r7, #4]
 8000b8c:	6013      	str	r3, [r2, #0]

    /*
     * Gui frame ECU state.
     */
    AppCAN_SendEcuFrame();
 8000b8e:	f7ff ff4b 	bl	8000a28 <AppCAN_SendEcuFrame>
    HAL_Delay(10);
 8000b92:	200a      	movs	r0, #10
 8000b94:	f001 f966 	bl	8001e64 <HAL_Delay>
    AppCAN_PollRx();
 8000b98:	f7ff fdf2 	bl	8000780 <AppCAN_PollRx>

    /*
     * Gui frame DTC.
     */
    AppCAN_SendDtcFrame();
 8000b9c:	f7ff fee8 	bl	8000970 <AppCAN_SendDtcFrame>
    HAL_Delay(10);
 8000ba0:	200a      	movs	r0, #10
 8000ba2:	f001 f95f 	bl	8001e64 <HAL_Delay>
    AppCAN_PollRx();
 8000ba6:	f7ff fdeb 	bl	8000780 <AppCAN_PollRx>
 8000baa:	e002      	b.n	8000bb2 <AppCAN_ProcessAutoTransmit+0x4e>
        return;
 8000bac:	bf00      	nop
 8000bae:	e000      	b.n	8000bb2 <AppCAN_ProcessAutoTransmit+0x4e>
        return;
 8000bb0:	bf00      	nop
}
 8000bb2:	3708      	adds	r7, #8
 8000bb4:	46bd      	mov	sp, r7
 8000bb6:	bd80      	pop	{r7, pc}
 8000bb8:	20000078 	.word	0x20000078
 8000bbc:	2000007c 	.word	0x2000007c

08000bc0 <AppCAN_PollRxAfterTx>:
 *
 * Cho CAN loopback xu ly frame vua gui,
 * sau do doc frame tu FIFO0.
 */
void AppCAN_PollRxAfterTx(void)
{
 8000bc0:	b580      	push	{r7, lr}
 8000bc2:	af00      	add	r7, sp, #0
    /*
     * Delay rat nho de CAN loopback kip dua frame vao FIFO.
     * Hien tai dung 10ms de don gian va on dinh khi test.
     */
    HAL_Delay(10);
 8000bc4:	200a      	movs	r0, #10
 8000bc6:	f001 f94d 	bl	8001e64 <HAL_Delay>

    AppCAN_PollRx();
 8000bca:	f7ff fdd9 	bl	8000780 <AppCAN_PollRx>
}
 8000bce:	bf00      	nop
 8000bd0:	bd80      	pop	{r7, pc}
	...

08000bd4 <Command_ShowHelp>:
 * Command_ShowHelp:
 *
 * Ham nay hien thi danh sach lenh ho tro.
 */
static void Command_ShowHelp(void)
{
 8000bd4:	b580      	push	{r7, lr}
 8000bd6:	af00      	add	r7, sp, #0
    UART_SendString("\r\n===== COMMAND LIST =====\r\n");
 8000bd8:	4820      	ldr	r0, [pc, #128]	@ (8000c5c <Command_ShowHelp+0x88>)
 8000bda:	f000 fce9 	bl	80015b0 <UART_SendString>
    UART_SendString("help              : Show command list\r\n");
 8000bde:	4820      	ldr	r0, [pc, #128]	@ (8000c60 <Command_ShowHelp+0x8c>)
 8000be0:	f000 fce6 	bl	80015b0 <UART_SendString>
    UART_SendString("status            : Show ECU status\r\n");
 8000be4:	481f      	ldr	r0, [pc, #124]	@ (8000c64 <Command_ShowHelp+0x90>)
 8000be6:	f000 fce3 	bl	80015b0 <UART_SendString>
    UART_SendString("start             : Start ECU\r\n");
 8000bea:	481f      	ldr	r0, [pc, #124]	@ (8000c68 <Command_ShowHelp+0x94>)
 8000bec:	f000 fce0 	bl	80015b0 <UART_SendString>
    UART_SendString("stop              : Stop ECU\r\n");
 8000bf0:	481e      	ldr	r0, [pc, #120]	@ (8000c6c <Command_ShowHelp+0x98>)
 8000bf2:	f000 fcdd 	bl	80015b0 <UART_SendString>
    UART_SendString("reset             : Reset ECU\r\n");
 8000bf6:	481e      	ldr	r0, [pc, #120]	@ (8000c70 <Command_ShowHelp+0x9c>)
 8000bf8:	f000 fcda 	bl	80015b0 <UART_SendString>
    UART_SendString("sleep             : Put ECU to sleep\r\n");
 8000bfc:	481d      	ldr	r0, [pc, #116]	@ (8000c74 <Command_ShowHelp+0xa0>)
 8000bfe:	f000 fcd7 	bl	80015b0 <UART_SendString>
    UART_SendString("set dtc P0001     : Set SENSOR_FAIL fault\r\n");
 8000c02:	481d      	ldr	r0, [pc, #116]	@ (8000c78 <Command_ShowHelp+0xa4>)
 8000c04:	f000 fcd4 	bl	80015b0 <UART_SendString>
    UART_SendString("set dtc P0002     : Set COMM_TIMEOUT fault\r\n");
 8000c08:	481c      	ldr	r0, [pc, #112]	@ (8000c7c <Command_ShowHelp+0xa8>)
 8000c0a:	f000 fcd1 	bl	80015b0 <UART_SendString>
    UART_SendString("set dtc P0003     : Set LOW_VOLTAGE fault\r\n");
 8000c0e:	481c      	ldr	r0, [pc, #112]	@ (8000c80 <Command_ShowHelp+0xac>)
 8000c10:	f000 fcce 	bl	80015b0 <UART_SendString>
    UART_SendString("clear dtc         : Clear current DTC\r\n");
 8000c14:	481b      	ldr	r0, [pc, #108]	@ (8000c84 <Command_ShowHelp+0xb0>)
 8000c16:	f000 fccb 	bl	80015b0 <UART_SendString>
    UART_SendString("can test          : Send CAN test frame\r\n");
 8000c1a:	481b      	ldr	r0, [pc, #108]	@ (8000c88 <Command_ShowHelp+0xb4>)
 8000c1c:	f000 fcc8 	bl	80015b0 <UART_SendString>
    UART_SendString("can status        : Show CAN status\r\n");
 8000c20:	481a      	ldr	r0, [pc, #104]	@ (8000c8c <Command_ShowHelp+0xb8>)
 8000c22:	f000 fcc5 	bl	80015b0 <UART_SendString>
    UART_SendString("can dtc           : Send current DTC over CAN\r\n");
 8000c26:	481a      	ldr	r0, [pc, #104]	@ (8000c90 <Command_ShowHelp+0xbc>)
 8000c28:	f000 fcc2 	bl	80015b0 <UART_SendString>
    UART_SendString("can ecu           : Send current ECU state over CAN\r\n");
 8000c2c:	4819      	ldr	r0, [pc, #100]	@ (8000c94 <Command_ShowHelp+0xc0>)
 8000c2e:	f000 fcbf 	bl	80015b0 <UART_SendString>
    UART_SendString("can all           : Send ECU state and DTC over CAN\r\n");
 8000c32:	4819      	ldr	r0, [pc, #100]	@ (8000c98 <Command_ShowHelp+0xc4>)
 8000c34:	f000 fcbc 	bl	80015b0 <UART_SendString>
    UART_SendString("diag report       : Show full diagnostic report\r\n");
 8000c38:	4818      	ldr	r0, [pc, #96]	@ (8000c9c <Command_ShowHelp+0xc8>)
 8000c3a:	f000 fcb9 	bl	80015b0 <UART_SendString>
    UART_SendString("can auto on       : Enable periodic CAN report\r\n");
 8000c3e:	4818      	ldr	r0, [pc, #96]	@ (8000ca0 <Command_ShowHelp+0xcc>)
 8000c40:	f000 fcb6 	bl	80015b0 <UART_SendString>
    UART_SendString("can auto off      : Disable periodic CAN report\r\n");
 8000c44:	4817      	ldr	r0, [pc, #92]	@ (8000ca4 <Command_ShowHelp+0xd0>)
 8000c46:	f000 fcb3 	bl	80015b0 <UART_SendString>
    UART_SendString("can auto status   : Show CAN auto status\r\n");
 8000c4a:	4817      	ldr	r0, [pc, #92]	@ (8000ca8 <Command_ShowHelp+0xd4>)
 8000c4c:	f000 fcb0 	bl	80015b0 <UART_SendString>
    UART_SendString("========================\r\n");
 8000c50:	4816      	ldr	r0, [pc, #88]	@ (8000cac <Command_ShowHelp+0xd8>)
 8000c52:	f000 fcad 	bl	80015b0 <UART_SendString>
}
 8000c56:	bf00      	nop
 8000c58:	bd80      	pop	{r7, pc}
 8000c5a:	bf00      	nop
 8000c5c:	08006798 	.word	0x08006798
 8000c60:	080067b8 	.word	0x080067b8
 8000c64:	080067e0 	.word	0x080067e0
 8000c68:	08006808 	.word	0x08006808
 8000c6c:	08006828 	.word	0x08006828
 8000c70:	08006848 	.word	0x08006848
 8000c74:	08006868 	.word	0x08006868
 8000c78:	08006890 	.word	0x08006890
 8000c7c:	080068bc 	.word	0x080068bc
 8000c80:	080068ec 	.word	0x080068ec
 8000c84:	08006918 	.word	0x08006918
 8000c88:	08006940 	.word	0x08006940
 8000c8c:	0800696c 	.word	0x0800696c
 8000c90:	08006994 	.word	0x08006994
 8000c94:	080069c4 	.word	0x080069c4
 8000c98:	080069fc 	.word	0x080069fc
 8000c9c:	08006a34 	.word	0x08006a34
 8000ca0:	08006a68 	.word	0x08006a68
 8000ca4:	08006a9c 	.word	0x08006a9c
 8000ca8:	08006ad0 	.word	0x08006ad0
 8000cac:	08006afc 	.word	0x08006afc

08000cb0 <Command_ShowStatus>:
 * Command_ShowStatus:
 *
 * Ham nay gui trang thai hien tai cua ECU ra UART.
 */
static void Command_ShowStatus(void)
{
 8000cb0:	b580      	push	{r7, lr}
 8000cb2:	b098      	sub	sp, #96	@ 0x60
 8000cb4:	af00      	add	r7, sp, #0
    char buffer[96];

    UART_SendString("\r\n===== ECU STATUS =====\r\n");
 8000cb6:	4823      	ldr	r0, [pc, #140]	@ (8000d44 <Command_ShowStatus+0x94>)
 8000cb8:	f000 fc7a 	bl	80015b0 <UART_SendString>

    /*
     * Gui trang thai ECU.
     */
    snprintf(buffer,
 8000cbc:	f000 fb12 	bl	80012e4 <Ecu_GetState>
 8000cc0:	4603      	mov	r3, r0
 8000cc2:	4618      	mov	r0, r3
 8000cc4:	f000 fb1a 	bl	80012fc <Ecu_GetStateString>
 8000cc8:	4603      	mov	r3, r0
 8000cca:	4638      	mov	r0, r7
 8000ccc:	4a1e      	ldr	r2, [pc, #120]	@ (8000d48 <Command_ShowStatus+0x98>)
 8000cce:	2160      	movs	r1, #96	@ 0x60
 8000cd0:	f004 fefe 	bl	8005ad0 <sniprintf>
             sizeof(buffer),
             "ECU State : %s\r\n",
             Ecu_GetStateString(Ecu_GetState()));
    UART_SendString(buffer);
 8000cd4:	463b      	mov	r3, r7
 8000cd6:	4618      	mov	r0, r3
 8000cd8:	f000 fc6a 	bl	80015b0 <UART_SendString>

    /*
     * Gui ma loi DTC hien tai.
     */
    snprintf(buffer,
 8000cdc:	f000 fa4a 	bl	8001174 <Dtc_GetCode>
 8000ce0:	4603      	mov	r3, r0
 8000ce2:	4618      	mov	r0, r3
 8000ce4:	f000 fa52 	bl	800118c <Dtc_GetCodeString>
 8000ce8:	4603      	mov	r3, r0
 8000cea:	4638      	mov	r0, r7
 8000cec:	4a17      	ldr	r2, [pc, #92]	@ (8000d4c <Command_ShowStatus+0x9c>)
 8000cee:	2160      	movs	r1, #96	@ 0x60
 8000cf0:	f004 feee 	bl	8005ad0 <sniprintf>
             sizeof(buffer),
             "DTC Code  : %s\r\n",
             Dtc_GetCodeString(Dtc_GetCode()));
    UART_SendString(buffer);
 8000cf4:	463b      	mov	r3, r7
 8000cf6:	4618      	mov	r0, r3
 8000cf8:	f000 fc5a 	bl	80015b0 <UART_SendString>

    /*
     * Gui mo ta loi DTC hien tai.
     */
    snprintf(buffer,
 8000cfc:	f000 fa3a 	bl	8001174 <Dtc_GetCode>
 8000d00:	4603      	mov	r3, r0
 8000d02:	4618      	mov	r0, r3
 8000d04:	f000 fa70 	bl	80011e8 <Dtc_GetDescription>
 8000d08:	4603      	mov	r3, r0
 8000d0a:	4638      	mov	r0, r7
 8000d0c:	4a10      	ldr	r2, [pc, #64]	@ (8000d50 <Command_ShowStatus+0xa0>)
 8000d0e:	2160      	movs	r1, #96	@ 0x60
 8000d10:	f004 fede 	bl	8005ad0 <sniprintf>
             sizeof(buffer),
             "DTC Desc  : %s\r\n",
             Dtc_GetDescription(Dtc_GetCode()));
    UART_SendString(buffer);
 8000d14:	463b      	mov	r3, r7
 8000d16:	4618      	mov	r0, r3
 8000d18:	f000 fc4a 	bl	80015b0 <UART_SendString>

    /*
     * Gui log moi nhat.
     */
    snprintf(buffer,
 8000d1c:	f000 fbf6 	bl	800150c <Log_GetLastEvent>
 8000d20:	4603      	mov	r3, r0
 8000d22:	4638      	mov	r0, r7
 8000d24:	4a0b      	ldr	r2, [pc, #44]	@ (8000d54 <Command_ShowStatus+0xa4>)
 8000d26:	2160      	movs	r1, #96	@ 0x60
 8000d28:	f004 fed2 	bl	8005ad0 <sniprintf>
             sizeof(buffer),
             "Last Log  : %s\r\n",
             Log_GetLastEvent());
    UART_SendString(buffer);
 8000d2c:	463b      	mov	r3, r7
 8000d2e:	4618      	mov	r0, r3
 8000d30:	f000 fc3e 	bl	80015b0 <UART_SendString>

    UART_SendString("======================\r\n");
 8000d34:	4808      	ldr	r0, [pc, #32]	@ (8000d58 <Command_ShowStatus+0xa8>)
 8000d36:	f000 fc3b 	bl	80015b0 <UART_SendString>
}
 8000d3a:	bf00      	nop
 8000d3c:	3760      	adds	r7, #96	@ 0x60
 8000d3e:	46bd      	mov	sp, r7
 8000d40:	bd80      	pop	{r7, pc}
 8000d42:	bf00      	nop
 8000d44:	08006b18 	.word	0x08006b18
 8000d48:	08006b34 	.word	0x08006b34
 8000d4c:	08006b48 	.word	0x08006b48
 8000d50:	08006b5c 	.word	0x08006b5c
 8000d54:	08006b70 	.word	0x08006b70
 8000d58:	08006b84 	.word	0x08006b84

08000d5c <Command_ShowDiagReport>:
 * Command_ShowDiagReport:
 *
 * Hien thi bao cao chan doan tong hop.
 */
static void Command_ShowDiagReport(void)
{
 8000d5c:	b580      	push	{r7, lr}
 8000d5e:	b0a0      	sub	sp, #128	@ 0x80
 8000d60:	af00      	add	r7, sp, #0
    char buffer[128];

    UART_SendString("\r\n===== DIAGNOSTIC REPORT =====\r\n");
 8000d62:	4835      	ldr	r0, [pc, #212]	@ (8000e38 <Command_ShowDiagReport+0xdc>)
 8000d64:	f000 fc24 	bl	80015b0 <UART_SendString>

    /*
     * Hien thi trang thai ECU.
     */
    snprintf(buffer,
 8000d68:	f000 fabc 	bl	80012e4 <Ecu_GetState>
 8000d6c:	4603      	mov	r3, r0
 8000d6e:	4618      	mov	r0, r3
 8000d70:	f000 fac4 	bl	80012fc <Ecu_GetStateString>
 8000d74:	4603      	mov	r3, r0
 8000d76:	4638      	mov	r0, r7
 8000d78:	4a30      	ldr	r2, [pc, #192]	@ (8000e3c <Command_ShowDiagReport+0xe0>)
 8000d7a:	2180      	movs	r1, #128	@ 0x80
 8000d7c:	f004 fea8 	bl	8005ad0 <sniprintf>
             sizeof(buffer),
             "ECU State    : %s\r\n",
             Ecu_GetStateString(Ecu_GetState()));
    UART_SendString(buffer);
 8000d80:	463b      	mov	r3, r7
 8000d82:	4618      	mov	r0, r3
 8000d84:	f000 fc14 	bl	80015b0 <UART_SendString>

    /*
     * Hien thi ma loi DTC hien tai.
     */
    snprintf(buffer,
 8000d88:	f000 f9f4 	bl	8001174 <Dtc_GetCode>
 8000d8c:	4603      	mov	r3, r0
 8000d8e:	4618      	mov	r0, r3
 8000d90:	f000 f9fc 	bl	800118c <Dtc_GetCodeString>
 8000d94:	4603      	mov	r3, r0
 8000d96:	4638      	mov	r0, r7
 8000d98:	4a29      	ldr	r2, [pc, #164]	@ (8000e40 <Command_ShowDiagReport+0xe4>)
 8000d9a:	2180      	movs	r1, #128	@ 0x80
 8000d9c:	f004 fe98 	bl	8005ad0 <sniprintf>
             sizeof(buffer),
             "DTC Code     : %s\r\n",
             Dtc_GetCodeString(Dtc_GetCode()));
    UART_SendString(buffer);
 8000da0:	463b      	mov	r3, r7
 8000da2:	4618      	mov	r0, r3
 8000da4:	f000 fc04 	bl	80015b0 <UART_SendString>

    /*
     * Hien thi mo ta loi DTC.
     */
    snprintf(buffer,
 8000da8:	f000 f9e4 	bl	8001174 <Dtc_GetCode>
 8000dac:	4603      	mov	r3, r0
 8000dae:	4618      	mov	r0, r3
 8000db0:	f000 fa1a 	bl	80011e8 <Dtc_GetDescription>
 8000db4:	4603      	mov	r3, r0
 8000db6:	4638      	mov	r0, r7
 8000db8:	4a22      	ldr	r2, [pc, #136]	@ (8000e44 <Command_ShowDiagReport+0xe8>)
 8000dba:	2180      	movs	r1, #128	@ 0x80
 8000dbc:	f004 fe88 	bl	8005ad0 <sniprintf>
             sizeof(buffer),
             "DTC Desc     : %s\r\n",
             Dtc_GetDescription(Dtc_GetCode()));
    UART_SendString(buffer);
 8000dc0:	463b      	mov	r3, r7
 8000dc2:	4618      	mov	r0, r3
 8000dc4:	f000 fbf4 	bl	80015b0 <UART_SendString>

    /*
     * Hien thi log gan nhat.
     */
    snprintf(buffer,
 8000dc8:	f000 fba0 	bl	800150c <Log_GetLastEvent>
 8000dcc:	4603      	mov	r3, r0
 8000dce:	4638      	mov	r0, r7
 8000dd0:	4a1d      	ldr	r2, [pc, #116]	@ (8000e48 <Command_ShowDiagReport+0xec>)
 8000dd2:	2180      	movs	r1, #128	@ 0x80
 8000dd4:	f004 fe7c 	bl	8005ad0 <sniprintf>
             sizeof(buffer),
             "Last Event   : %s\r\n",
             Log_GetLastEvent());
    UART_SendString(buffer);
 8000dd8:	463b      	mov	r3, r7
 8000dda:	4618      	mov	r0, r3
 8000ddc:	f000 fbe8 	bl	80015b0 <UART_SendString>
     * Hien thi so luong log theo muc.
     */
    snprintf(buffer,
             sizeof(buffer),
             "Info Count   : %lu\r\n",
             (uint32_t)Log_GetInfoCount());
 8000de0:	f000 fbc2 	bl	8001568 <Log_GetInfoCount>
 8000de4:	4603      	mov	r3, r0
    snprintf(buffer,
 8000de6:	4638      	mov	r0, r7
 8000de8:	4a18      	ldr	r2, [pc, #96]	@ (8000e4c <Command_ShowDiagReport+0xf0>)
 8000dea:	2180      	movs	r1, #128	@ 0x80
 8000dec:	f004 fe70 	bl	8005ad0 <sniprintf>
    UART_SendString(buffer);
 8000df0:	463b      	mov	r3, r7
 8000df2:	4618      	mov	r0, r3
 8000df4:	f000 fbdc 	bl	80015b0 <UART_SendString>

    snprintf(buffer,
             sizeof(buffer),
             "Warn Count   : %lu\r\n",
             (uint32_t)Log_GetWarningCount());
 8000df8:	f000 fbc2 	bl	8001580 <Log_GetWarningCount>
 8000dfc:	4603      	mov	r3, r0
    snprintf(buffer,
 8000dfe:	4638      	mov	r0, r7
 8000e00:	4a13      	ldr	r2, [pc, #76]	@ (8000e50 <Command_ShowDiagReport+0xf4>)
 8000e02:	2180      	movs	r1, #128	@ 0x80
 8000e04:	f004 fe64 	bl	8005ad0 <sniprintf>
    UART_SendString(buffer);
 8000e08:	463b      	mov	r3, r7
 8000e0a:	4618      	mov	r0, r3
 8000e0c:	f000 fbd0 	bl	80015b0 <UART_SendString>

    snprintf(buffer,
             sizeof(buffer),
             "Error Count  : %lu\r\n",
             (uint32_t)Log_GetErrorCount());
 8000e10:	f000 fbc2 	bl	8001598 <Log_GetErrorCount>
 8000e14:	4603      	mov	r3, r0
    snprintf(buffer,
 8000e16:	4638      	mov	r0, r7
 8000e18:	4a0e      	ldr	r2, [pc, #56]	@ (8000e54 <Command_ShowDiagReport+0xf8>)
 8000e1a:	2180      	movs	r1, #128	@ 0x80
 8000e1c:	f004 fe58 	bl	8005ad0 <sniprintf>
    UART_SendString(buffer);
 8000e20:	463b      	mov	r3, r7
 8000e22:	4618      	mov	r0, r3
 8000e24:	f000 fbc4 	bl	80015b0 <UART_SendString>

    UART_SendString("=============================\r\n");
 8000e28:	480b      	ldr	r0, [pc, #44]	@ (8000e58 <Command_ShowDiagReport+0xfc>)
 8000e2a:	f000 fbc1 	bl	80015b0 <UART_SendString>
}
 8000e2e:	bf00      	nop
 8000e30:	3780      	adds	r7, #128	@ 0x80
 8000e32:	46bd      	mov	sp, r7
 8000e34:	bd80      	pop	{r7, pc}
 8000e36:	bf00      	nop
 8000e38:	08006ba0 	.word	0x08006ba0
 8000e3c:	08006bc4 	.word	0x08006bc4
 8000e40:	08006bd8 	.word	0x08006bd8
 8000e44:	08006bec 	.word	0x08006bec
 8000e48:	08006c00 	.word	0x08006c00
 8000e4c:	08006c14 	.word	0x08006c14
 8000e50:	08006c2c 	.word	0x08006c2c
 8000e54:	08006c44 	.word	0x08006c44
 8000e58:	08006c5c 	.word	0x08006c5c

08000e5c <Command_Process>:
 * Vi du:
 * Command_Process("start");
 * Command_Process("set dtc P0001");
 */
void Command_Process(const char* cmd)
{
 8000e5c:	b580      	push	{r7, lr}
 8000e5e:	b082      	sub	sp, #8
 8000e60:	af00      	add	r7, sp, #0
 8000e62:	6078      	str	r0, [r7, #4]
    /*
     * Neu cmd la NULL thi bao loi va thoat.
     */
    if (cmd == 0)
 8000e64:	687b      	ldr	r3, [r7, #4]
 8000e66:	2b00      	cmp	r3, #0
 8000e68:	d103      	bne.n	8000e72 <Command_Process+0x16>
    {
        Log_Error("NULL COMMAND");
 8000e6a:	4881      	ldr	r0, [pc, #516]	@ (8001070 <Command_Process+0x214>)
 8000e6c:	f000 fb42 	bl	80014f4 <Log_Error>
        return;
 8000e70:	e0fa      	b.n	8001068 <Command_Process+0x20c>
    }
    /*
     * Lenh help:
     * Hien thi danh sach lenh.
     */
    if (strcmp(cmd, "help") == 0)
 8000e72:	4980      	ldr	r1, [pc, #512]	@ (8001074 <Command_Process+0x218>)
 8000e74:	6878      	ldr	r0, [r7, #4]
 8000e76:	f7ff f9cb 	bl	8000210 <strcmp>
 8000e7a:	4603      	mov	r3, r0
 8000e7c:	2b00      	cmp	r3, #0
 8000e7e:	d102      	bne.n	8000e86 <Command_Process+0x2a>
    {
        Command_ShowHelp();
 8000e80:	f7ff fea8 	bl	8000bd4 <Command_ShowHelp>
 8000e84:	e0f0      	b.n	8001068 <Command_Process+0x20c>

    /*
     * Lenh start:
     * Dua ECU sang RUNNING.
     */
    else if (strcmp(cmd, "start") == 0)
 8000e86:	497c      	ldr	r1, [pc, #496]	@ (8001078 <Command_Process+0x21c>)
 8000e88:	6878      	ldr	r0, [r7, #4]
 8000e8a:	f7ff f9c1 	bl	8000210 <strcmp>
 8000e8e:	4603      	mov	r3, r0
 8000e90:	2b00      	cmp	r3, #0
 8000e92:	d105      	bne.n	8000ea0 <Command_Process+0x44>
    {
        Ecu_Start();
 8000e94:	f000 f9e6 	bl	8001264 <Ecu_Start>
        Log_Info("ECU START");
 8000e98:	4878      	ldr	r0, [pc, #480]	@ (800107c <Command_Process+0x220>)
 8000e9a:	f000 fb13 	bl	80014c4 <Log_Info>
 8000e9e:	e0e3      	b.n	8001068 <Command_Process+0x20c>

    /*
     * Lenh stop:
     * Dua ECU ve IDLE.
     */
    else if (strcmp(cmd, "stop") == 0)
 8000ea0:	4977      	ldr	r1, [pc, #476]	@ (8001080 <Command_Process+0x224>)
 8000ea2:	6878      	ldr	r0, [r7, #4]
 8000ea4:	f7ff f9b4 	bl	8000210 <strcmp>
 8000ea8:	4603      	mov	r3, r0
 8000eaa:	2b00      	cmp	r3, #0
 8000eac:	d105      	bne.n	8000eba <Command_Process+0x5e>
    {
        Ecu_Stop();
 8000eae:	f000 f9e9 	bl	8001284 <Ecu_Stop>
        Log_Info("ECU STOP");
 8000eb2:	4874      	ldr	r0, [pc, #464]	@ (8001084 <Command_Process+0x228>)
 8000eb4:	f000 fb06 	bl	80014c4 <Log_Info>
 8000eb8:	e0d6      	b.n	8001068 <Command_Process+0x20c>

    /*
     * Lenh reset:
     * Reset ECU ve IDLE.
     */
    else if (strcmp(cmd, "reset") == 0)
 8000eba:	4973      	ldr	r1, [pc, #460]	@ (8001088 <Command_Process+0x22c>)
 8000ebc:	6878      	ldr	r0, [r7, #4]
 8000ebe:	f7ff f9a7 	bl	8000210 <strcmp>
 8000ec2:	4603      	mov	r3, r0
 8000ec4:	2b00      	cmp	r3, #0
 8000ec6:	d107      	bne.n	8000ed8 <Command_Process+0x7c>
    {
        Ecu_Reset();
 8000ec8:	f000 f9e8 	bl	800129c <Ecu_Reset>
        Dtc_Clear();
 8000ecc:	f000 f93e 	bl	800114c <Dtc_Clear>
        Log_Info("ECU RESET");
 8000ed0:	486e      	ldr	r0, [pc, #440]	@ (800108c <Command_Process+0x230>)
 8000ed2:	f000 faf7 	bl	80014c4 <Log_Info>
 8000ed6:	e0c7      	b.n	8001068 <Command_Process+0x20c>

    /*
     * Lenh sleep:
     * Dua ECU sang SLEEP.
     */
    else if (strcmp(cmd, "sleep") == 0)
 8000ed8:	496d      	ldr	r1, [pc, #436]	@ (8001090 <Command_Process+0x234>)
 8000eda:	6878      	ldr	r0, [r7, #4]
 8000edc:	f7ff f998 	bl	8000210 <strcmp>
 8000ee0:	4603      	mov	r3, r0
 8000ee2:	2b00      	cmp	r3, #0
 8000ee4:	d105      	bne.n	8000ef2 <Command_Process+0x96>
    {
        Ecu_Sleep();
 8000ee6:	f000 f9f1 	bl	80012cc <Ecu_Sleep>
        Log_Info("ECU SLEEP");
 8000eea:	486a      	ldr	r0, [pc, #424]	@ (8001094 <Command_Process+0x238>)
 8000eec:	f000 faea 	bl	80014c4 <Log_Info>
 8000ef0:	e0ba      	b.n	8001068 <Command_Process+0x20c>

    /*
     * Lenh set dtc P0001:
     * Gia lap loi SENSOR_FAIL.
     */
    else if (strcmp(cmd, "set dtc P0001") == 0)
 8000ef2:	4969      	ldr	r1, [pc, #420]	@ (8001098 <Command_Process+0x23c>)
 8000ef4:	6878      	ldr	r0, [r7, #4]
 8000ef6:	f7ff f98b 	bl	8000210 <strcmp>
 8000efa:	4603      	mov	r3, r0
 8000efc:	2b00      	cmp	r3, #0
 8000efe:	d108      	bne.n	8000f12 <Command_Process+0xb6>
    {
        Dtc_Set(DTC_SENSOR_FAIL);
 8000f00:	2001      	movs	r0, #1
 8000f02:	f000 f905 	bl	8001110 <Dtc_Set>
        Ecu_SetError();
 8000f06:	f000 f9d5 	bl	80012b4 <Ecu_SetError>
        Log_Error("DTC P0001 SENSOR_FAIL");
 8000f0a:	4864      	ldr	r0, [pc, #400]	@ (800109c <Command_Process+0x240>)
 8000f0c:	f000 faf2 	bl	80014f4 <Log_Error>
 8000f10:	e0aa      	b.n	8001068 <Command_Process+0x20c>

    /*
     * Lenh set dtc P0002:
     * Gia lap loi COMM_TIMEOUT.
     */
    else if (strcmp(cmd, "set dtc P0002") == 0)
 8000f12:	4963      	ldr	r1, [pc, #396]	@ (80010a0 <Command_Process+0x244>)
 8000f14:	6878      	ldr	r0, [r7, #4]
 8000f16:	f7ff f97b 	bl	8000210 <strcmp>
 8000f1a:	4603      	mov	r3, r0
 8000f1c:	2b00      	cmp	r3, #0
 8000f1e:	d108      	bne.n	8000f32 <Command_Process+0xd6>
    {
        Dtc_Set(DTC_COMM_TIMEOUT);
 8000f20:	2002      	movs	r0, #2
 8000f22:	f000 f8f5 	bl	8001110 <Dtc_Set>
        Ecu_SetError();
 8000f26:	f000 f9c5 	bl	80012b4 <Ecu_SetError>
        Log_Error("DTC P0002 COMM_TIMEOUT");
 8000f2a:	485e      	ldr	r0, [pc, #376]	@ (80010a4 <Command_Process+0x248>)
 8000f2c:	f000 fae2 	bl	80014f4 <Log_Error>
 8000f30:	e09a      	b.n	8001068 <Command_Process+0x20c>

    /*
     * Lenh set dtc P0003:
     * Gia lap loi LOW_VOLTAGE.
     */
    else if (strcmp(cmd, "set dtc P0003") == 0)
 8000f32:	495d      	ldr	r1, [pc, #372]	@ (80010a8 <Command_Process+0x24c>)
 8000f34:	6878      	ldr	r0, [r7, #4]
 8000f36:	f7ff f96b 	bl	8000210 <strcmp>
 8000f3a:	4603      	mov	r3, r0
 8000f3c:	2b00      	cmp	r3, #0
 8000f3e:	d108      	bne.n	8000f52 <Command_Process+0xf6>
    {
        Dtc_Set(DTC_LOW_VOLTAGE);
 8000f40:	2003      	movs	r0, #3
 8000f42:	f000 f8e5 	bl	8001110 <Dtc_Set>
        Ecu_SetError();
 8000f46:	f000 f9b5 	bl	80012b4 <Ecu_SetError>
        Log_Error("DTC P0003 LOW_VOLTAGE");
 8000f4a:	4858      	ldr	r0, [pc, #352]	@ (80010ac <Command_Process+0x250>)
 8000f4c:	f000 fad2 	bl	80014f4 <Log_Error>
 8000f50:	e08a      	b.n	8001068 <Command_Process+0x20c>

    /*
     * Lenh clear dtc:
     * Xoa loi DTC hien tai.
     */
    else if (strcmp(cmd, "clear dtc") == 0)
 8000f52:	4957      	ldr	r1, [pc, #348]	@ (80010b0 <Command_Process+0x254>)
 8000f54:	6878      	ldr	r0, [r7, #4]
 8000f56:	f7ff f95b 	bl	8000210 <strcmp>
 8000f5a:	4603      	mov	r3, r0
 8000f5c:	2b00      	cmp	r3, #0
 8000f5e:	d104      	bne.n	8000f6a <Command_Process+0x10e>
    {
        Dtc_Clear();
 8000f60:	f000 f8f4 	bl	800114c <Dtc_Clear>
        Ecu_Reset();
 8000f64:	f000 f99a 	bl	800129c <Ecu_Reset>
 8000f68:	e07e      	b.n	8001068 <Command_Process+0x20c>
    }
    /*
     * Lenh status:
     * In trang thai hien tai cua ECU ra UART.
     */
    else if (strcmp(cmd, "status") == 0)
 8000f6a:	4952      	ldr	r1, [pc, #328]	@ (80010b4 <Command_Process+0x258>)
 8000f6c:	6878      	ldr	r0, [r7, #4]
 8000f6e:	f7ff f94f 	bl	8000210 <strcmp>
 8000f72:	4603      	mov	r3, r0
 8000f74:	2b00      	cmp	r3, #0
 8000f76:	d102      	bne.n	8000f7e <Command_Process+0x122>
    {
        Command_ShowStatus();
 8000f78:	f7ff fe9a 	bl	8000cb0 <Command_ShowStatus>
 8000f7c:	e074      	b.n	8001068 <Command_Process+0x20c>
    }
    /*
     * Lenh can test:
     * Gui mot CAN frame test va doc lai FIFO RX neu co.
     */
    else if (strcmp(cmd, "can test") == 0)
 8000f7e:	494e      	ldr	r1, [pc, #312]	@ (80010b8 <Command_Process+0x25c>)
 8000f80:	6878      	ldr	r0, [r7, #4]
 8000f82:	f7ff f945 	bl	8000210 <strcmp>
 8000f86:	4603      	mov	r3, r0
 8000f88:	2b00      	cmp	r3, #0
 8000f8a:	d104      	bne.n	8000f96 <Command_Process+0x13a>
    {
        AppCAN_SendTestFrame();
 8000f8c:	f7ff fb5c 	bl	8000648 <AppCAN_SendTestFrame>

        /*
         * Doc lai frame CAN loopback sau khi gui.
         */
        AppCAN_PollRxAfterTx();
 8000f90:	f7ff fe16 	bl	8000bc0 <AppCAN_PollRxAfterTx>
 8000f94:	e068      	b.n	8001068 <Command_Process+0x20c>

    /*
     * Lenh can status:
     * Hien thi trang thai CAN hien tai.
     */
    else if (strcmp(cmd, "can status") == 0)
 8000f96:	4949      	ldr	r1, [pc, #292]	@ (80010bc <Command_Process+0x260>)
 8000f98:	6878      	ldr	r0, [r7, #4]
 8000f9a:	f7ff f939 	bl	8000210 <strcmp>
 8000f9e:	4603      	mov	r3, r0
 8000fa0:	2b00      	cmp	r3, #0
 8000fa2:	d102      	bne.n	8000faa <Command_Process+0x14e>
    {
        AppCAN_ShowStatus();
 8000fa4:	f7ff fc90 	bl	80008c8 <AppCAN_ShowStatus>
 8000fa8:	e05e      	b.n	8001068 <Command_Process+0x20c>
    }
    /*
     * Lenh can dtc:
     * Gui ma loi DTC hien tai qua CAN.
     */
    else if (strcmp(cmd, "can dtc") == 0)
 8000faa:	4945      	ldr	r1, [pc, #276]	@ (80010c0 <Command_Process+0x264>)
 8000fac:	6878      	ldr	r0, [r7, #4]
 8000fae:	f7ff f92f 	bl	8000210 <strcmp>
 8000fb2:	4603      	mov	r3, r0
 8000fb4:	2b00      	cmp	r3, #0
 8000fb6:	d104      	bne.n	8000fc2 <Command_Process+0x166>
    {
        AppCAN_SendDtcFrame();
 8000fb8:	f7ff fcda 	bl	8000970 <AppCAN_SendDtcFrame>

        AppCAN_PollRxAfterTx();
 8000fbc:	f7ff fe00 	bl	8000bc0 <AppCAN_PollRxAfterTx>
 8000fc0:	e052      	b.n	8001068 <Command_Process+0x20c>
    }
    /*
     * Lenh can ecu:
     * Gui trang thai ECU hien tai qua CAN.
     */
    else if (strcmp(cmd, "can ecu") == 0)
 8000fc2:	4940      	ldr	r1, [pc, #256]	@ (80010c4 <Command_Process+0x268>)
 8000fc4:	6878      	ldr	r0, [r7, #4]
 8000fc6:	f7ff f923 	bl	8000210 <strcmp>
 8000fca:	4603      	mov	r3, r0
 8000fcc:	2b00      	cmp	r3, #0
 8000fce:	d104      	bne.n	8000fda <Command_Process+0x17e>
    {
        AppCAN_SendEcuFrame();
 8000fd0:	f7ff fd2a 	bl	8000a28 <AppCAN_SendEcuFrame>

        AppCAN_PollRxAfterTx();
 8000fd4:	f7ff fdf4 	bl	8000bc0 <AppCAN_PollRxAfterTx>
 8000fd8:	e046      	b.n	8001068 <Command_Process+0x20c>
    }
    /*
     * Lenh can all:
     * Gui ca trang thai ECU va DTC hien tai qua CAN.
     */
    else if (strcmp(cmd, "can all") == 0)
 8000fda:	493b      	ldr	r1, [pc, #236]	@ (80010c8 <Command_Process+0x26c>)
 8000fdc:	6878      	ldr	r0, [r7, #4]
 8000fde:	f7ff f917 	bl	8000210 <strcmp>
 8000fe2:	4603      	mov	r3, r0
 8000fe4:	2b00      	cmp	r3, #0
 8000fe6:	d108      	bne.n	8000ffa <Command_Process+0x19e>
    {
        AppCAN_SendEcuFrame();
 8000fe8:	f7ff fd1e 	bl	8000a28 <AppCAN_SendEcuFrame>

        AppCAN_PollRxAfterTx();
 8000fec:	f7ff fde8 	bl	8000bc0 <AppCAN_PollRxAfterTx>

        AppCAN_SendDtcFrame();
 8000ff0:	f7ff fcbe 	bl	8000970 <AppCAN_SendDtcFrame>

        AppCAN_PollRxAfterTx();
 8000ff4:	f7ff fde4 	bl	8000bc0 <AppCAN_PollRxAfterTx>
 8000ff8:	e036      	b.n	8001068 <Command_Process+0x20c>
    }
    /*
     * Lenh diag report:
     * Hien thi bao cao chan doan tong hop.
     */
    else if (strcmp(cmd, "diag report") == 0)
 8000ffa:	4934      	ldr	r1, [pc, #208]	@ (80010cc <Command_Process+0x270>)
 8000ffc:	6878      	ldr	r0, [r7, #4]
 8000ffe:	f7ff f907 	bl	8000210 <strcmp>
 8001002:	4603      	mov	r3, r0
 8001004:	2b00      	cmp	r3, #0
 8001006:	d102      	bne.n	800100e <Command_Process+0x1b2>
    {
        Command_ShowDiagReport();
 8001008:	f7ff fea8 	bl	8000d5c <Command_ShowDiagReport>
 800100c:	e02c      	b.n	8001068 <Command_Process+0x20c>
    }
    /*
     * Lenh can auto on:
     * Bat gui CAN tu dong theo chu ky.
     */
    else if (strcmp(cmd, "can auto on") == 0)
 800100e:	4930      	ldr	r1, [pc, #192]	@ (80010d0 <Command_Process+0x274>)
 8001010:	6878      	ldr	r0, [r7, #4]
 8001012:	f7ff f8fd 	bl	8000210 <strcmp>
 8001016:	4603      	mov	r3, r0
 8001018:	2b00      	cmp	r3, #0
 800101a:	d103      	bne.n	8001024 <Command_Process+0x1c8>
    {
        AppCAN_SetAutoTransmit(1);
 800101c:	2001      	movs	r0, #1
 800101e:	f7ff fd5f 	bl	8000ae0 <AppCAN_SetAutoTransmit>
 8001022:	e021      	b.n	8001068 <Command_Process+0x20c>

    /*
     * Lenh can auto off:
     * Tat gui CAN tu dong.
     */
    else if (strcmp(cmd, "can auto off") == 0)
 8001024:	492b      	ldr	r1, [pc, #172]	@ (80010d4 <Command_Process+0x278>)
 8001026:	6878      	ldr	r0, [r7, #4]
 8001028:	f7ff f8f2 	bl	8000210 <strcmp>
 800102c:	4603      	mov	r3, r0
 800102e:	2b00      	cmp	r3, #0
 8001030:	d103      	bne.n	800103a <Command_Process+0x1de>
    {
        AppCAN_SetAutoTransmit(0);
 8001032:	2000      	movs	r0, #0
 8001034:	f7ff fd54 	bl	8000ae0 <AppCAN_SetAutoTransmit>
 8001038:	e016      	b.n	8001068 <Command_Process+0x20c>

    /*
     * Lenh can auto status:
     * Hien thi trang thai gui CAN tu dong.
     */
    else if (strcmp(cmd, "can auto status") == 0)
 800103a:	4927      	ldr	r1, [pc, #156]	@ (80010d8 <Command_Process+0x27c>)
 800103c:	6878      	ldr	r0, [r7, #4]
 800103e:	f7ff f8e7 	bl	8000210 <strcmp>
 8001042:	4603      	mov	r3, r0
 8001044:	2b00      	cmp	r3, #0
 8001046:	d10c      	bne.n	8001062 <Command_Process+0x206>
    {
        if (AppCAN_GetAutoTransmit() != 0)
 8001048:	f7ff fd80 	bl	8000b4c <AppCAN_GetAutoTransmit>
 800104c:	4603      	mov	r3, r0
 800104e:	2b00      	cmp	r3, #0
 8001050:	d003      	beq.n	800105a <Command_Process+0x1fe>
        {
            UART_SendString("[INFO] CAN AUTO STATUS=ON\r\n");
 8001052:	4822      	ldr	r0, [pc, #136]	@ (80010dc <Command_Process+0x280>)
 8001054:	f000 faac 	bl	80015b0 <UART_SendString>
 8001058:	e006      	b.n	8001068 <Command_Process+0x20c>
        }
        else
        {
            UART_SendString("[INFO] CAN AUTO STATUS=OFF\r\n");
 800105a:	4821      	ldr	r0, [pc, #132]	@ (80010e0 <Command_Process+0x284>)
 800105c:	f000 faa8 	bl	80015b0 <UART_SendString>
 8001060:	e002      	b.n	8001068 <Command_Process+0x20c>
    /*
     * Lenh khong hop le.
     */
    else
    {
        Log_Warning("UNKNOWN COMMAND");
 8001062:	4820      	ldr	r0, [pc, #128]	@ (80010e4 <Command_Process+0x288>)
 8001064:	f000 fa3a 	bl	80014dc <Log_Warning>
    }
}
 8001068:	3708      	adds	r7, #8
 800106a:	46bd      	mov	sp, r7
 800106c:	bd80      	pop	{r7, pc}
 800106e:	bf00      	nop
 8001070:	08006c7c 	.word	0x08006c7c
 8001074:	08006c8c 	.word	0x08006c8c
 8001078:	08006c94 	.word	0x08006c94
 800107c:	08006c9c 	.word	0x08006c9c
 8001080:	08006ca8 	.word	0x08006ca8
 8001084:	08006cb0 	.word	0x08006cb0
 8001088:	08006cbc 	.word	0x08006cbc
 800108c:	08006cc4 	.word	0x08006cc4
 8001090:	08006cd0 	.word	0x08006cd0
 8001094:	08006cd8 	.word	0x08006cd8
 8001098:	08006ce4 	.word	0x08006ce4
 800109c:	08006cf4 	.word	0x08006cf4
 80010a0:	08006d0c 	.word	0x08006d0c
 80010a4:	08006d1c 	.word	0x08006d1c
 80010a8:	08006d34 	.word	0x08006d34
 80010ac:	08006d44 	.word	0x08006d44
 80010b0:	08006d5c 	.word	0x08006d5c
 80010b4:	08006d68 	.word	0x08006d68
 80010b8:	08006d70 	.word	0x08006d70
 80010bc:	08006d7c 	.word	0x08006d7c
 80010c0:	08006d88 	.word	0x08006d88
 80010c4:	08006d90 	.word	0x08006d90
 80010c8:	08006d98 	.word	0x08006d98
 80010cc:	08006da0 	.word	0x08006da0
 80010d0:	08006dac 	.word	0x08006dac
 80010d4:	08006db8 	.word	0x08006db8
 80010d8:	08006dc8 	.word	0x08006dc8
 80010dc:	08006dd8 	.word	0x08006dd8
 80010e0:	08006df4 	.word	0x08006df4
 80010e4:	08006e14 	.word	0x08006e14

080010e8 <Dtc_Init>:
 * Luu trang thai DTC hien tai.
 */
static DtcStatus_t currentStatus;

void Dtc_Init(void)
{
 80010e8:	b580      	push	{r7, lr}
 80010ea:	af00      	add	r7, sp, #0
    /*
     * Ban dau khong co loi.
     */
    currentDtc = DTC_NONE;
 80010ec:	4b05      	ldr	r3, [pc, #20]	@ (8001104 <Dtc_Init+0x1c>)
 80010ee:	2200      	movs	r2, #0
 80010f0:	701a      	strb	r2, [r3, #0]
    currentStatus = DTC_STATUS_INACTIVE;
 80010f2:	4b05      	ldr	r3, [pc, #20]	@ (8001108 <Dtc_Init+0x20>)
 80010f4:	2200      	movs	r2, #0
 80010f6:	701a      	strb	r2, [r3, #0]

    Log_Info("DTC INIT");
 80010f8:	4804      	ldr	r0, [pc, #16]	@ (800110c <Dtc_Init+0x24>)
 80010fa:	f000 f9e3 	bl	80014c4 <Log_Info>
}
 80010fe:	bf00      	nop
 8001100:	bd80      	pop	{r7, pc}
 8001102:	bf00      	nop
 8001104:	20000080 	.word	0x20000080
 8001108:	20000081 	.word	0x20000081
 800110c:	08006e24 	.word	0x08006e24

08001110 <Dtc_Set>:

void Dtc_Set(DtcCode_t code)
{
 8001110:	b580      	push	{r7, lr}
 8001112:	b082      	sub	sp, #8
 8001114:	af00      	add	r7, sp, #0
 8001116:	4603      	mov	r3, r0
 8001118:	71fb      	strb	r3, [r7, #7]
    /*
     * Neu code la DTC_NONE thi xem nhu xoa loi.
     */
    if (code == DTC_NONE)
 800111a:	79fb      	ldrb	r3, [r7, #7]
 800111c:	2b00      	cmp	r3, #0
 800111e:	d102      	bne.n	8001126 <Dtc_Set+0x16>
    {
        Dtc_Clear();
 8001120:	f000 f814 	bl	800114c <Dtc_Clear>
        return;
 8001124:	e008      	b.n	8001138 <Dtc_Set+0x28>
    }

    /*
     * Luu ma loi moi.
     */
    currentDtc = code;
 8001126:	4a06      	ldr	r2, [pc, #24]	@ (8001140 <Dtc_Set+0x30>)
 8001128:	79fb      	ldrb	r3, [r7, #7]
 800112a:	7013      	strb	r3, [r2, #0]
    currentStatus = DTC_STATUS_ACTIVE;
 800112c:	4b05      	ldr	r3, [pc, #20]	@ (8001144 <Dtc_Set+0x34>)
 800112e:	2201      	movs	r2, #1
 8001130:	701a      	strb	r2, [r3, #0]

    /*
     * Ghi log loi.
     */
    Log_Error("DTC SET");
 8001132:	4805      	ldr	r0, [pc, #20]	@ (8001148 <Dtc_Set+0x38>)
 8001134:	f000 f9de 	bl	80014f4 <Log_Error>
}
 8001138:	3708      	adds	r7, #8
 800113a:	46bd      	mov	sp, r7
 800113c:	bd80      	pop	{r7, pc}
 800113e:	bf00      	nop
 8001140:	20000080 	.word	0x20000080
 8001144:	20000081 	.word	0x20000081
 8001148:	08006e30 	.word	0x08006e30

0800114c <Dtc_Clear>:

void Dtc_Clear(void)
{
 800114c:	b580      	push	{r7, lr}
 800114e:	af00      	add	r7, sp, #0
    /*
     * Xoa ma loi hien tai.
     */
    currentDtc = DTC_NONE;
 8001150:	4b05      	ldr	r3, [pc, #20]	@ (8001168 <Dtc_Clear+0x1c>)
 8001152:	2200      	movs	r2, #0
 8001154:	701a      	strb	r2, [r3, #0]
    currentStatus = DTC_STATUS_INACTIVE;
 8001156:	4b05      	ldr	r3, [pc, #20]	@ (800116c <Dtc_Clear+0x20>)
 8001158:	2200      	movs	r2, #0
 800115a:	701a      	strb	r2, [r3, #0]

    Log_Info("DTC CLEARED");
 800115c:	4804      	ldr	r0, [pc, #16]	@ (8001170 <Dtc_Clear+0x24>)
 800115e:	f000 f9b1 	bl	80014c4 <Log_Info>
}
 8001162:	bf00      	nop
 8001164:	bd80      	pop	{r7, pc}
 8001166:	bf00      	nop
 8001168:	20000080 	.word	0x20000080
 800116c:	20000081 	.word	0x20000081
 8001170:	08006e38 	.word	0x08006e38

08001174 <Dtc_GetCode>:

DtcCode_t Dtc_GetCode(void)
{
 8001174:	b480      	push	{r7}
 8001176:	af00      	add	r7, sp, #0
    return currentDtc;
 8001178:	4b03      	ldr	r3, [pc, #12]	@ (8001188 <Dtc_GetCode+0x14>)
 800117a:	781b      	ldrb	r3, [r3, #0]
}
 800117c:	4618      	mov	r0, r3
 800117e:	46bd      	mov	sp, r7
 8001180:	f85d 7b04 	ldr.w	r7, [sp], #4
 8001184:	4770      	bx	lr
 8001186:	bf00      	nop
 8001188:	20000080 	.word	0x20000080

0800118c <Dtc_GetCodeString>:
{
    return currentStatus;
}

const char* Dtc_GetCodeString(DtcCode_t code)
{
 800118c:	b480      	push	{r7}
 800118e:	b083      	sub	sp, #12
 8001190:	af00      	add	r7, sp, #0
 8001192:	4603      	mov	r3, r0
 8001194:	71fb      	strb	r3, [r7, #7]
    switch (code)
 8001196:	79fb      	ldrb	r3, [r7, #7]
 8001198:	2b03      	cmp	r3, #3
 800119a:	d813      	bhi.n	80011c4 <Dtc_GetCodeString+0x38>
 800119c:	a201      	add	r2, pc, #4	@ (adr r2, 80011a4 <Dtc_GetCodeString+0x18>)
 800119e:	f852 f023 	ldr.w	pc, [r2, r3, lsl #2]
 80011a2:	bf00      	nop
 80011a4:	080011b5 	.word	0x080011b5
 80011a8:	080011b9 	.word	0x080011b9
 80011ac:	080011bd 	.word	0x080011bd
 80011b0:	080011c1 	.word	0x080011c1
    {
        case DTC_NONE:
            return "NONE";
 80011b4:	4b07      	ldr	r3, [pc, #28]	@ (80011d4 <Dtc_GetCodeString+0x48>)
 80011b6:	e006      	b.n	80011c6 <Dtc_GetCodeString+0x3a>

        case DTC_SENSOR_FAIL:
            return "P0001";
 80011b8:	4b07      	ldr	r3, [pc, #28]	@ (80011d8 <Dtc_GetCodeString+0x4c>)
 80011ba:	e004      	b.n	80011c6 <Dtc_GetCodeString+0x3a>

        case DTC_COMM_TIMEOUT:
            return "P0002";
 80011bc:	4b07      	ldr	r3, [pc, #28]	@ (80011dc <Dtc_GetCodeString+0x50>)
 80011be:	e002      	b.n	80011c6 <Dtc_GetCodeString+0x3a>

        case DTC_LOW_VOLTAGE:
            return "P0003";
 80011c0:	4b07      	ldr	r3, [pc, #28]	@ (80011e0 <Dtc_GetCodeString+0x54>)
 80011c2:	e000      	b.n	80011c6 <Dtc_GetCodeString+0x3a>

        default:
            return "UNKNOWN";
 80011c4:	4b07      	ldr	r3, [pc, #28]	@ (80011e4 <Dtc_GetCodeString+0x58>)
    }
}
 80011c6:	4618      	mov	r0, r3
 80011c8:	370c      	adds	r7, #12
 80011ca:	46bd      	mov	sp, r7
 80011cc:	f85d 7b04 	ldr.w	r7, [sp], #4
 80011d0:	4770      	bx	lr
 80011d2:	bf00      	nop
 80011d4:	08006e44 	.word	0x08006e44
 80011d8:	08006e4c 	.word	0x08006e4c
 80011dc:	08006e54 	.word	0x08006e54
 80011e0:	08006e5c 	.word	0x08006e5c
 80011e4:	08006e64 	.word	0x08006e64

080011e8 <Dtc_GetDescription>:

const char* Dtc_GetDescription(DtcCode_t code)
{
 80011e8:	b480      	push	{r7}
 80011ea:	b083      	sub	sp, #12
 80011ec:	af00      	add	r7, sp, #0
 80011ee:	4603      	mov	r3, r0
 80011f0:	71fb      	strb	r3, [r7, #7]
    switch (code)
 80011f2:	79fb      	ldrb	r3, [r7, #7]
 80011f4:	2b03      	cmp	r3, #3
 80011f6:	d813      	bhi.n	8001220 <Dtc_GetDescription+0x38>
 80011f8:	a201      	add	r2, pc, #4	@ (adr r2, 8001200 <Dtc_GetDescription+0x18>)
 80011fa:	f852 f023 	ldr.w	pc, [r2, r3, lsl #2]
 80011fe:	bf00      	nop
 8001200:	08001211 	.word	0x08001211
 8001204:	08001215 	.word	0x08001215
 8001208:	08001219 	.word	0x08001219
 800120c:	0800121d 	.word	0x0800121d
    {
        case DTC_NONE:
            return "NO_ERROR";
 8001210:	4b07      	ldr	r3, [pc, #28]	@ (8001230 <Dtc_GetDescription+0x48>)
 8001212:	e006      	b.n	8001222 <Dtc_GetDescription+0x3a>

        case DTC_SENSOR_FAIL:
            return "SENSOR_FAIL";
 8001214:	4b07      	ldr	r3, [pc, #28]	@ (8001234 <Dtc_GetDescription+0x4c>)
 8001216:	e004      	b.n	8001222 <Dtc_GetDescription+0x3a>

        case DTC_COMM_TIMEOUT:
            return "COMM_TIMEOUT";
 8001218:	4b07      	ldr	r3, [pc, #28]	@ (8001238 <Dtc_GetDescription+0x50>)
 800121a:	e002      	b.n	8001222 <Dtc_GetDescription+0x3a>

        case DTC_LOW_VOLTAGE:
            return "LOW_VOLTAGE";
 800121c:	4b07      	ldr	r3, [pc, #28]	@ (800123c <Dtc_GetDescription+0x54>)
 800121e:	e000      	b.n	8001222 <Dtc_GetDescription+0x3a>

        default:
            return "UNKNOWN_ERROR";
 8001220:	4b07      	ldr	r3, [pc, #28]	@ (8001240 <Dtc_GetDescription+0x58>)
    }
}
 8001222:	4618      	mov	r0, r3
 8001224:	370c      	adds	r7, #12
 8001226:	46bd      	mov	sp, r7
 8001228:	f85d 7b04 	ldr.w	r7, [sp], #4
 800122c:	4770      	bx	lr
 800122e:	bf00      	nop
 8001230:	08006e6c 	.word	0x08006e6c
 8001234:	08006e78 	.word	0x08006e78
 8001238:	08006e84 	.word	0x08006e84
 800123c:	08006e94 	.word	0x08006e94
 8001240:	08006ea0 	.word	0x08006ea0

08001244 <Ecu_Init>:
 * static giup bien chi duoc truy cap truc tiep trong file app_ecu.c.
 */
static EcuState_t currentState;

void Ecu_Init(void)
{
 8001244:	b480      	push	{r7}
 8001246:	af00      	add	r7, sp, #0
    /*
     * Khi moi khoi dong, ECU o trang thai INIT.
     */
    currentState = ECU_STATE_INIT;
 8001248:	4b05      	ldr	r3, [pc, #20]	@ (8001260 <Ecu_Init+0x1c>)
 800124a:	2200      	movs	r2, #0
 800124c:	701a      	strb	r2, [r3, #0]

    /*
     * Sau khi init xong, tam thoi dua ve IDLE.
     * Sau nay neu co nhieu buoc init phan cung, ta co the xu ly them.
     */
    currentState = ECU_STATE_IDLE;
 800124e:	4b04      	ldr	r3, [pc, #16]	@ (8001260 <Ecu_Init+0x1c>)
 8001250:	2201      	movs	r2, #1
 8001252:	701a      	strb	r2, [r3, #0]
}
 8001254:	bf00      	nop
 8001256:	46bd      	mov	sp, r7
 8001258:	f85d 7b04 	ldr.w	r7, [sp], #4
 800125c:	4770      	bx	lr
 800125e:	bf00      	nop
 8001260:	20000082 	.word	0x20000082

08001264 <Ecu_Start>:

void Ecu_Start(void)
{
 8001264:	b480      	push	{r7}
 8001266:	af00      	add	r7, sp, #0
    /*
     * Chi cho phep start neu ECU khong bi loi.
     */
    if (currentState != ECU_STATE_ERROR)
 8001268:	4b05      	ldr	r3, [pc, #20]	@ (8001280 <Ecu_Start+0x1c>)
 800126a:	781b      	ldrb	r3, [r3, #0]
 800126c:	2b03      	cmp	r3, #3
 800126e:	d002      	beq.n	8001276 <Ecu_Start+0x12>
    {
        currentState = ECU_STATE_RUNNING;
 8001270:	4b03      	ldr	r3, [pc, #12]	@ (8001280 <Ecu_Start+0x1c>)
 8001272:	2202      	movs	r2, #2
 8001274:	701a      	strb	r2, [r3, #0]
    }
}
 8001276:	bf00      	nop
 8001278:	46bd      	mov	sp, r7
 800127a:	f85d 7b04 	ldr.w	r7, [sp], #4
 800127e:	4770      	bx	lr
 8001280:	20000082 	.word	0x20000082

08001284 <Ecu_Stop>:

void Ecu_Stop(void)
{
 8001284:	b480      	push	{r7}
 8001286:	af00      	add	r7, sp, #0
    /*
     * Stop dua ECU ve IDLE.
     */
    currentState = ECU_STATE_IDLE;
 8001288:	4b03      	ldr	r3, [pc, #12]	@ (8001298 <Ecu_Stop+0x14>)
 800128a:	2201      	movs	r2, #1
 800128c:	701a      	strb	r2, [r3, #0]
}
 800128e:	bf00      	nop
 8001290:	46bd      	mov	sp, r7
 8001292:	f85d 7b04 	ldr.w	r7, [sp], #4
 8001296:	4770      	bx	lr
 8001298:	20000082 	.word	0x20000082

0800129c <Ecu_Reset>:

void Ecu_Reset(void)
{
 800129c:	b480      	push	{r7}
 800129e:	af00      	add	r7, sp, #0
    /*
     * Reset tam thoi dua ECU ve IDLE.
     */
    currentState = ECU_STATE_IDLE;
 80012a0:	4b03      	ldr	r3, [pc, #12]	@ (80012b0 <Ecu_Reset+0x14>)
 80012a2:	2201      	movs	r2, #1
 80012a4:	701a      	strb	r2, [r3, #0]
}
 80012a6:	bf00      	nop
 80012a8:	46bd      	mov	sp, r7
 80012aa:	f85d 7b04 	ldr.w	r7, [sp], #4
 80012ae:	4770      	bx	lr
 80012b0:	20000082 	.word	0x20000082

080012b4 <Ecu_SetError>:

void Ecu_SetError(void)
{
 80012b4:	b480      	push	{r7}
 80012b6:	af00      	add	r7, sp, #0
    /*
     * Khi co loi nghiem trong, ECU chuyen sang ERROR.
     */
    currentState = ECU_STATE_ERROR;
 80012b8:	4b03      	ldr	r3, [pc, #12]	@ (80012c8 <Ecu_SetError+0x14>)
 80012ba:	2203      	movs	r2, #3
 80012bc:	701a      	strb	r2, [r3, #0]
}
 80012be:	bf00      	nop
 80012c0:	46bd      	mov	sp, r7
 80012c2:	f85d 7b04 	ldr.w	r7, [sp], #4
 80012c6:	4770      	bx	lr
 80012c8:	20000082 	.word	0x20000082

080012cc <Ecu_Sleep>:

void Ecu_Sleep(void)
{
 80012cc:	b480      	push	{r7}
 80012ce:	af00      	add	r7, sp, #0
    /*
     * Chuyen ECU sang che do ngu.
     */
    currentState = ECU_STATE_SLEEP;
 80012d0:	4b03      	ldr	r3, [pc, #12]	@ (80012e0 <Ecu_Sleep+0x14>)
 80012d2:	2204      	movs	r2, #4
 80012d4:	701a      	strb	r2, [r3, #0]
}
 80012d6:	bf00      	nop
 80012d8:	46bd      	mov	sp, r7
 80012da:	f85d 7b04 	ldr.w	r7, [sp], #4
 80012de:	4770      	bx	lr
 80012e0:	20000082 	.word	0x20000082

080012e4 <Ecu_GetState>:

EcuState_t Ecu_GetState(void)
{
 80012e4:	b480      	push	{r7}
 80012e6:	af00      	add	r7, sp, #0
    return currentState;
 80012e8:	4b03      	ldr	r3, [pc, #12]	@ (80012f8 <Ecu_GetState+0x14>)
 80012ea:	781b      	ldrb	r3, [r3, #0]
}
 80012ec:	4618      	mov	r0, r3
 80012ee:	46bd      	mov	sp, r7
 80012f0:	f85d 7b04 	ldr.w	r7, [sp], #4
 80012f4:	4770      	bx	lr
 80012f6:	bf00      	nop
 80012f8:	20000082 	.word	0x20000082

080012fc <Ecu_GetStateString>:

const char* Ecu_GetStateString(EcuState_t state)
{
 80012fc:	b480      	push	{r7}
 80012fe:	b083      	sub	sp, #12
 8001300:	af00      	add	r7, sp, #0
 8001302:	4603      	mov	r3, r0
 8001304:	71fb      	strb	r3, [r7, #7]
    switch (state)
 8001306:	79fb      	ldrb	r3, [r7, #7]
 8001308:	2b04      	cmp	r3, #4
 800130a:	d817      	bhi.n	800133c <Ecu_GetStateString+0x40>
 800130c:	a201      	add	r2, pc, #4	@ (adr r2, 8001314 <Ecu_GetStateString+0x18>)
 800130e:	f852 f023 	ldr.w	pc, [r2, r3, lsl #2]
 8001312:	bf00      	nop
 8001314:	08001329 	.word	0x08001329
 8001318:	0800132d 	.word	0x0800132d
 800131c:	08001331 	.word	0x08001331
 8001320:	08001335 	.word	0x08001335
 8001324:	08001339 	.word	0x08001339
    {
        case ECU_STATE_INIT:
            return "INIT";
 8001328:	4b08      	ldr	r3, [pc, #32]	@ (800134c <Ecu_GetStateString+0x50>)
 800132a:	e008      	b.n	800133e <Ecu_GetStateString+0x42>

        case ECU_STATE_IDLE:
            return "IDLE";
 800132c:	4b08      	ldr	r3, [pc, #32]	@ (8001350 <Ecu_GetStateString+0x54>)
 800132e:	e006      	b.n	800133e <Ecu_GetStateString+0x42>

        case ECU_STATE_RUNNING:
            return "RUNNING";
 8001330:	4b08      	ldr	r3, [pc, #32]	@ (8001354 <Ecu_GetStateString+0x58>)
 8001332:	e004      	b.n	800133e <Ecu_GetStateString+0x42>

        case ECU_STATE_ERROR:
            return "ERROR";
 8001334:	4b08      	ldr	r3, [pc, #32]	@ (8001358 <Ecu_GetStateString+0x5c>)
 8001336:	e002      	b.n	800133e <Ecu_GetStateString+0x42>

        case ECU_STATE_SLEEP:
            return "SLEEP";
 8001338:	4b08      	ldr	r3, [pc, #32]	@ (800135c <Ecu_GetStateString+0x60>)
 800133a:	e000      	b.n	800133e <Ecu_GetStateString+0x42>

        default:
            return "UNKNOWN";
 800133c:	4b08      	ldr	r3, [pc, #32]	@ (8001360 <Ecu_GetStateString+0x64>)
    }
}
 800133e:	4618      	mov	r0, r3
 8001340:	370c      	adds	r7, #12
 8001342:	46bd      	mov	sp, r7
 8001344:	f85d 7b04 	ldr.w	r7, [sp], #4
 8001348:	4770      	bx	lr
 800134a:	bf00      	nop
 800134c:	08006eb0 	.word	0x08006eb0
 8001350:	08006eb8 	.word	0x08006eb8
 8001354:	08006ec0 	.word	0x08006ec0
 8001358:	08006ec8 	.word	0x08006ec8
 800135c:	08006ed0 	.word	0x08006ed0
 8001360:	08006ed8 	.word	0x08006ed8

08001364 <Heartbeat_Init>:
 * Luu thoi diem gui heartbeat gan nhat.
 */
static uint32_t lastHeartbeatTick = 0;

void Heartbeat_Init(void)
{
 8001364:	b580      	push	{r7, lr}
 8001366:	af00      	add	r7, sp, #0
    /*
     * Lay tick hien tai lam moc ban dau.
     */
    lastHeartbeatTick = HAL_GetTick();
 8001368:	f000 fd70 	bl	8001e4c <HAL_GetTick>
 800136c:	4603      	mov	r3, r0
 800136e:	4a02      	ldr	r2, [pc, #8]	@ (8001378 <Heartbeat_Init+0x14>)
 8001370:	6013      	str	r3, [r2, #0]
}
 8001372:	bf00      	nop
 8001374:	bd80      	pop	{r7, pc}
 8001376:	bf00      	nop
 8001378:	20000084 	.word	0x20000084

0800137c <Heartbeat_Process>:

void Heartbeat_Process(void)
{
 800137c:	b580      	push	{r7, lr}
 800137e:	b09a      	sub	sp, #104	@ 0x68
 8001380:	af00      	add	r7, sp, #0
    uint32_t currentTick = HAL_GetTick();
 8001382:	f000 fd63 	bl	8001e4c <HAL_GetTick>
 8001386:	6678      	str	r0, [r7, #100]	@ 0x64
    char buffer[96];

    /*
     * Neu chua du thoi gian thi khong gui.
     */
    if ((currentTick - lastHeartbeatTick) < HEARTBEAT_PERIOD_MS)
 8001388:	4b0f      	ldr	r3, [pc, #60]	@ (80013c8 <Heartbeat_Process+0x4c>)
 800138a:	681b      	ldr	r3, [r3, #0]
 800138c:	6e7a      	ldr	r2, [r7, #100]	@ 0x64
 800138e:	1ad3      	subs	r3, r2, r3
 8001390:	f242 720f 	movw	r2, #9999	@ 0x270f
 8001394:	4293      	cmp	r3, r2
 8001396:	d913      	bls.n	80013c0 <Heartbeat_Process+0x44>
    }

    /*
     * Cap nhat moc thoi gian moi.
     */
    lastHeartbeatTick = currentTick;
 8001398:	4a0b      	ldr	r2, [pc, #44]	@ (80013c8 <Heartbeat_Process+0x4c>)
 800139a:	6e7b      	ldr	r3, [r7, #100]	@ 0x64
 800139c:	6013      	str	r3, [r2, #0]

    /*
     * Tao chuoi heartbeat.
     */
    snprintf(buffer,
 800139e:	f7ff ffa1 	bl	80012e4 <Ecu_GetState>
 80013a2:	4603      	mov	r3, r0
 80013a4:	4618      	mov	r0, r3
 80013a6:	f7ff ffa9 	bl	80012fc <Ecu_GetStateString>
 80013aa:	4603      	mov	r3, r0
 80013ac:	1d38      	adds	r0, r7, #4
 80013ae:	4a07      	ldr	r2, [pc, #28]	@ (80013cc <Heartbeat_Process+0x50>)
 80013b0:	2160      	movs	r1, #96	@ 0x60
 80013b2:	f004 fb8d 	bl	8005ad0 <sniprintf>
             sizeof(buffer),
             "[INFO] HEARTBEAT ECU_STATE=%s\r\n",
             Ecu_GetStateString(Ecu_GetState()));

    UART_SendString(buffer);
 80013b6:	1d3b      	adds	r3, r7, #4
 80013b8:	4618      	mov	r0, r3
 80013ba:	f000 f8f9 	bl	80015b0 <UART_SendString>
 80013be:	e000      	b.n	80013c2 <Heartbeat_Process+0x46>
        return;
 80013c0:	bf00      	nop
}
 80013c2:	3768      	adds	r7, #104	@ 0x68
 80013c4:	46bd      	mov	sp, r7
 80013c6:	bd80      	pop	{r7, pc}
 80013c8:	20000084 	.word	0x20000084
 80013cc:	08006ee0 	.word	0x08006ee0

080013d0 <Log_Save>:
 * Log_Save:
 *
 * Ham noi bo de luu log.
 */
static void Log_Save(LogLevel_t level, const char* message)
{
 80013d0:	b580      	push	{r7, lr}
 80013d2:	b09c      	sub	sp, #112	@ 0x70
 80013d4:	af02      	add	r7, sp, #8
 80013d6:	4603      	mov	r3, r0
 80013d8:	6039      	str	r1, [r7, #0]
 80013da:	71fb      	strb	r3, [r7, #7]
    char uartBuffer[96];

    lastLevel = level;
 80013dc:	4a20      	ldr	r2, [pc, #128]	@ (8001460 <Log_Save+0x90>)
 80013de:	79fb      	ldrb	r3, [r7, #7]
 80013e0:	7013      	strb	r3, [r2, #0]

    if (message == 0)
 80013e2:	683b      	ldr	r3, [r7, #0]
 80013e4:	2b00      	cmp	r3, #0
 80013e6:	d101      	bne.n	80013ec <Log_Save+0x1c>
    {
        message = "";
 80013e8:	4b1e      	ldr	r3, [pc, #120]	@ (8001464 <Log_Save+0x94>)
 80013ea:	603b      	str	r3, [r7, #0]
    }

    strncpy(lastEvent, message, APP_LOG_LAST_EVENT_SIZE - 1);
 80013ec:	223f      	movs	r2, #63	@ 0x3f
 80013ee:	6839      	ldr	r1, [r7, #0]
 80013f0:	481d      	ldr	r0, [pc, #116]	@ (8001468 <Log_Save+0x98>)
 80013f2:	f004 fba9 	bl	8005b48 <strncpy>
    lastEvent[APP_LOG_LAST_EVENT_SIZE - 1] = '\0';
 80013f6:	4b1c      	ldr	r3, [pc, #112]	@ (8001468 <Log_Save+0x98>)
 80013f8:	2200      	movs	r2, #0
 80013fa:	f883 203f 	strb.w	r2, [r3, #63]	@ 0x3f

    if (level == LOG_LEVEL_INFO)
 80013fe:	79fb      	ldrb	r3, [r7, #7]
 8001400:	2b00      	cmp	r3, #0
 8001402:	d105      	bne.n	8001410 <Log_Save+0x40>
    {
        infoCount++;
 8001404:	4b19      	ldr	r3, [pc, #100]	@ (800146c <Log_Save+0x9c>)
 8001406:	681b      	ldr	r3, [r3, #0]
 8001408:	3301      	adds	r3, #1
 800140a:	4a18      	ldr	r2, [pc, #96]	@ (800146c <Log_Save+0x9c>)
 800140c:	6013      	str	r3, [r2, #0]
 800140e:	e010      	b.n	8001432 <Log_Save+0x62>
    }
    else if (level == LOG_LEVEL_WARNING)
 8001410:	79fb      	ldrb	r3, [r7, #7]
 8001412:	2b01      	cmp	r3, #1
 8001414:	d105      	bne.n	8001422 <Log_Save+0x52>
    {
        warningCount++;
 8001416:	4b16      	ldr	r3, [pc, #88]	@ (8001470 <Log_Save+0xa0>)
 8001418:	681b      	ldr	r3, [r3, #0]
 800141a:	3301      	adds	r3, #1
 800141c:	4a14      	ldr	r2, [pc, #80]	@ (8001470 <Log_Save+0xa0>)
 800141e:	6013      	str	r3, [r2, #0]
 8001420:	e007      	b.n	8001432 <Log_Save+0x62>
    }
    else if (level == LOG_LEVEL_ERROR)
 8001422:	79fb      	ldrb	r3, [r7, #7]
 8001424:	2b02      	cmp	r3, #2
 8001426:	d104      	bne.n	8001432 <Log_Save+0x62>
    {
        errorCount++;
 8001428:	4b12      	ldr	r3, [pc, #72]	@ (8001474 <Log_Save+0xa4>)
 800142a:	681b      	ldr	r3, [r3, #0]
 800142c:	3301      	adds	r3, #1
 800142e:	4a11      	ldr	r2, [pc, #68]	@ (8001474 <Log_Save+0xa4>)
 8001430:	6013      	str	r3, [r2, #0]
    }

    /*
     * Tao chuoi log va gui ra UART.
     */
    snprintf(uartBuffer,
 8001432:	79fb      	ldrb	r3, [r7, #7]
 8001434:	4618      	mov	r0, r3
 8001436:	f000 f873 	bl	8001520 <Log_GetLevelString>
 800143a:	4603      	mov	r3, r0
 800143c:	f107 0008 	add.w	r0, r7, #8
 8001440:	4a09      	ldr	r2, [pc, #36]	@ (8001468 <Log_Save+0x98>)
 8001442:	9200      	str	r2, [sp, #0]
 8001444:	4a0c      	ldr	r2, [pc, #48]	@ (8001478 <Log_Save+0xa8>)
 8001446:	2160      	movs	r1, #96	@ 0x60
 8001448:	f004 fb42 	bl	8005ad0 <sniprintf>
             sizeof(uartBuffer),
             "[%s] %s\r\n",
             Log_GetLevelString(level),
             lastEvent);

    UART_SendString(uartBuffer);
 800144c:	f107 0308 	add.w	r3, r7, #8
 8001450:	4618      	mov	r0, r3
 8001452:	f000 f8ad 	bl	80015b0 <UART_SendString>
}
 8001456:	bf00      	nop
 8001458:	3768      	adds	r7, #104	@ 0x68
 800145a:	46bd      	mov	sp, r7
 800145c:	bd80      	pop	{r7, pc}
 800145e:	bf00      	nop
 8001460:	200000c8 	.word	0x200000c8
 8001464:	08006f00 	.word	0x08006f00
 8001468:	20000088 	.word	0x20000088
 800146c:	200000cc 	.word	0x200000cc
 8001470:	200000d0 	.word	0x200000d0
 8001474:	200000d4 	.word	0x200000d4
 8001478:	08006f04 	.word	0x08006f04

0800147c <Log_Init>:

void Log_Init(void)
{
 800147c:	b580      	push	{r7, lr}
 800147e:	af00      	add	r7, sp, #0
    /*
     * Dua toan bo thong tin log ve mac dinh.
     */
    strcpy(lastEvent, "SYSTEM INIT");
 8001480:	4b0a      	ldr	r3, [pc, #40]	@ (80014ac <Log_Init+0x30>)
 8001482:	4a0b      	ldr	r2, [pc, #44]	@ (80014b0 <Log_Init+0x34>)
 8001484:	ca07      	ldmia	r2, {r0, r1, r2}
 8001486:	e883 0007 	stmia.w	r3, {r0, r1, r2}
    lastLevel = LOG_LEVEL_INFO;
 800148a:	4b0a      	ldr	r3, [pc, #40]	@ (80014b4 <Log_Init+0x38>)
 800148c:	2200      	movs	r2, #0
 800148e:	701a      	strb	r2, [r3, #0]

    infoCount = 0;
 8001490:	4b09      	ldr	r3, [pc, #36]	@ (80014b8 <Log_Init+0x3c>)
 8001492:	2200      	movs	r2, #0
 8001494:	601a      	str	r2, [r3, #0]
    warningCount = 0;
 8001496:	4b09      	ldr	r3, [pc, #36]	@ (80014bc <Log_Init+0x40>)
 8001498:	2200      	movs	r2, #0
 800149a:	601a      	str	r2, [r3, #0]
    errorCount = 0;
 800149c:	4b08      	ldr	r3, [pc, #32]	@ (80014c0 <Log_Init+0x44>)
 800149e:	2200      	movs	r2, #0
 80014a0:	601a      	str	r2, [r3, #0]

    /*
     * Gui log khoi dong ra UART.
     */
    Log_Info("SYSTEM INIT");
 80014a2:	4803      	ldr	r0, [pc, #12]	@ (80014b0 <Log_Init+0x34>)
 80014a4:	f000 f80e 	bl	80014c4 <Log_Info>
}
 80014a8:	bf00      	nop
 80014aa:	bd80      	pop	{r7, pc}
 80014ac:	20000088 	.word	0x20000088
 80014b0:	08006f10 	.word	0x08006f10
 80014b4:	200000c8 	.word	0x200000c8
 80014b8:	200000cc 	.word	0x200000cc
 80014bc:	200000d0 	.word	0x200000d0
 80014c0:	200000d4 	.word	0x200000d4

080014c4 <Log_Info>:

void Log_Info(const char* message)
{
 80014c4:	b580      	push	{r7, lr}
 80014c6:	b082      	sub	sp, #8
 80014c8:	af00      	add	r7, sp, #0
 80014ca:	6078      	str	r0, [r7, #4]
    Log_Save(LOG_LEVEL_INFO, message);
 80014cc:	6879      	ldr	r1, [r7, #4]
 80014ce:	2000      	movs	r0, #0
 80014d0:	f7ff ff7e 	bl	80013d0 <Log_Save>
}
 80014d4:	bf00      	nop
 80014d6:	3708      	adds	r7, #8
 80014d8:	46bd      	mov	sp, r7
 80014da:	bd80      	pop	{r7, pc}

080014dc <Log_Warning>:

void Log_Warning(const char* message)
{
 80014dc:	b580      	push	{r7, lr}
 80014de:	b082      	sub	sp, #8
 80014e0:	af00      	add	r7, sp, #0
 80014e2:	6078      	str	r0, [r7, #4]
    Log_Save(LOG_LEVEL_WARNING, message);
 80014e4:	6879      	ldr	r1, [r7, #4]
 80014e6:	2001      	movs	r0, #1
 80014e8:	f7ff ff72 	bl	80013d0 <Log_Save>
}
 80014ec:	bf00      	nop
 80014ee:	3708      	adds	r7, #8
 80014f0:	46bd      	mov	sp, r7
 80014f2:	bd80      	pop	{r7, pc}

080014f4 <Log_Error>:

void Log_Error(const char* message)
{
 80014f4:	b580      	push	{r7, lr}
 80014f6:	b082      	sub	sp, #8
 80014f8:	af00      	add	r7, sp, #0
 80014fa:	6078      	str	r0, [r7, #4]
    Log_Save(LOG_LEVEL_ERROR, message);
 80014fc:	6879      	ldr	r1, [r7, #4]
 80014fe:	2002      	movs	r0, #2
 8001500:	f7ff ff66 	bl	80013d0 <Log_Save>
}
 8001504:	bf00      	nop
 8001506:	3708      	adds	r7, #8
 8001508:	46bd      	mov	sp, r7
 800150a:	bd80      	pop	{r7, pc}

0800150c <Log_GetLastEvent>:

const char* Log_GetLastEvent(void)
{
 800150c:	b480      	push	{r7}
 800150e:	af00      	add	r7, sp, #0
    return lastEvent;
 8001510:	4b02      	ldr	r3, [pc, #8]	@ (800151c <Log_GetLastEvent+0x10>)
}
 8001512:	4618      	mov	r0, r3
 8001514:	46bd      	mov	sp, r7
 8001516:	f85d 7b04 	ldr.w	r7, [sp], #4
 800151a:	4770      	bx	lr
 800151c:	20000088 	.word	0x20000088

08001520 <Log_GetLevelString>:
{
    return lastLevel;
}

const char* Log_GetLevelString(LogLevel_t level)
{
 8001520:	b480      	push	{r7}
 8001522:	b083      	sub	sp, #12
 8001524:	af00      	add	r7, sp, #0
 8001526:	4603      	mov	r3, r0
 8001528:	71fb      	strb	r3, [r7, #7]
    switch (level)
 800152a:	79fb      	ldrb	r3, [r7, #7]
 800152c:	2b02      	cmp	r3, #2
 800152e:	d00a      	beq.n	8001546 <Log_GetLevelString+0x26>
 8001530:	2b02      	cmp	r3, #2
 8001532:	dc0a      	bgt.n	800154a <Log_GetLevelString+0x2a>
 8001534:	2b00      	cmp	r3, #0
 8001536:	d002      	beq.n	800153e <Log_GetLevelString+0x1e>
 8001538:	2b01      	cmp	r3, #1
 800153a:	d002      	beq.n	8001542 <Log_GetLevelString+0x22>
 800153c:	e005      	b.n	800154a <Log_GetLevelString+0x2a>
    {
        case LOG_LEVEL_INFO:
            return "INFO";
 800153e:	4b06      	ldr	r3, [pc, #24]	@ (8001558 <Log_GetLevelString+0x38>)
 8001540:	e004      	b.n	800154c <Log_GetLevelString+0x2c>

        case LOG_LEVEL_WARNING:
            return "WARNING";
 8001542:	4b06      	ldr	r3, [pc, #24]	@ (800155c <Log_GetLevelString+0x3c>)
 8001544:	e002      	b.n	800154c <Log_GetLevelString+0x2c>

        case LOG_LEVEL_ERROR:
            return "ERROR";
 8001546:	4b06      	ldr	r3, [pc, #24]	@ (8001560 <Log_GetLevelString+0x40>)
 8001548:	e000      	b.n	800154c <Log_GetLevelString+0x2c>

        default:
            return "UNKNOWN";
 800154a:	4b06      	ldr	r3, [pc, #24]	@ (8001564 <Log_GetLevelString+0x44>)
    }
}
 800154c:	4618      	mov	r0, r3
 800154e:	370c      	adds	r7, #12
 8001550:	46bd      	mov	sp, r7
 8001552:	f85d 7b04 	ldr.w	r7, [sp], #4
 8001556:	4770      	bx	lr
 8001558:	08006f1c 	.word	0x08006f1c
 800155c:	08006f24 	.word	0x08006f24
 8001560:	08006f2c 	.word	0x08006f2c
 8001564:	08006f34 	.word	0x08006f34

08001568 <Log_GetInfoCount>:

uint32_t Log_GetInfoCount(void)
{
 8001568:	b480      	push	{r7}
 800156a:	af00      	add	r7, sp, #0
    return infoCount;
 800156c:	4b03      	ldr	r3, [pc, #12]	@ (800157c <Log_GetInfoCount+0x14>)
 800156e:	681b      	ldr	r3, [r3, #0]
}
 8001570:	4618      	mov	r0, r3
 8001572:	46bd      	mov	sp, r7
 8001574:	f85d 7b04 	ldr.w	r7, [sp], #4
 8001578:	4770      	bx	lr
 800157a:	bf00      	nop
 800157c:	200000cc 	.word	0x200000cc

08001580 <Log_GetWarningCount>:

uint32_t Log_GetWarningCount(void)
{
 8001580:	b480      	push	{r7}
 8001582:	af00      	add	r7, sp, #0
    return warningCount;
 8001584:	4b03      	ldr	r3, [pc, #12]	@ (8001594 <Log_GetWarningCount+0x14>)
 8001586:	681b      	ldr	r3, [r3, #0]
}
 8001588:	4618      	mov	r0, r3
 800158a:	46bd      	mov	sp, r7
 800158c:	f85d 7b04 	ldr.w	r7, [sp], #4
 8001590:	4770      	bx	lr
 8001592:	bf00      	nop
 8001594:	200000d0 	.word	0x200000d0

08001598 <Log_GetErrorCount>:

uint32_t Log_GetErrorCount(void)
{
 8001598:	b480      	push	{r7}
 800159a:	af00      	add	r7, sp, #0
    return errorCount;
 800159c:	4b03      	ldr	r3, [pc, #12]	@ (80015ac <Log_GetErrorCount+0x14>)
 800159e:	681b      	ldr	r3, [r3, #0]
}
 80015a0:	4618      	mov	r0, r3
 80015a2:	46bd      	mov	sp, r7
 80015a4:	f85d 7b04 	ldr.w	r7, [sp], #4
 80015a8:	4770      	bx	lr
 80015aa:	bf00      	nop
 80015ac:	200000d4 	.word	0x200000d4

080015b0 <UART_SendString>:
 * Co bao da co lenh hoan chinh.
 */
static volatile uint8_t uartCommandReady = 0;

void UART_SendString(const char* str)
{
 80015b0:	b580      	push	{r7, lr}
 80015b2:	b082      	sub	sp, #8
 80015b4:	af00      	add	r7, sp, #0
 80015b6:	6078      	str	r0, [r7, #4]
    if (str == 0)
 80015b8:	687b      	ldr	r3, [r7, #4]
 80015ba:	2b00      	cmp	r3, #0
 80015bc:	d00a      	beq.n	80015d4 <UART_SendString+0x24>
    {
        return;
    }

    HAL_UART_Transmit(&huart1, (uint8_t*)str, strlen(str), 100);
 80015be:	6878      	ldr	r0, [r7, #4]
 80015c0:	f7fe fe30 	bl	8000224 <strlen>
 80015c4:	4603      	mov	r3, r0
 80015c6:	b29a      	uxth	r2, r3
 80015c8:	2364      	movs	r3, #100	@ 0x64
 80015ca:	6879      	ldr	r1, [r7, #4]
 80015cc:	4803      	ldr	r0, [pc, #12]	@ (80015dc <UART_SendString+0x2c>)
 80015ce:	f002 ffcd 	bl	800456c <HAL_UART_Transmit>
 80015d2:	e000      	b.n	80015d6 <UART_SendString+0x26>
        return;
 80015d4:	bf00      	nop
}
 80015d6:	3708      	adds	r7, #8
 80015d8:	46bd      	mov	sp, r7
 80015da:	bd80      	pop	{r7, pc}
 80015dc:	20000148 	.word	0x20000148

080015e0 <UART_StartReceive>:

void UART_StartReceive(void)
{
 80015e0:	b580      	push	{r7, lr}
 80015e2:	af00      	add	r7, sp, #0
    /*
     * Xoa buffer truoc khi bat nhan.
     */
    memset(uartRxBuffer, 0, sizeof(uartRxBuffer));
 80015e4:	2240      	movs	r2, #64	@ 0x40
 80015e6:	2100      	movs	r1, #0
 80015e8:	4807      	ldr	r0, [pc, #28]	@ (8001608 <UART_StartReceive+0x28>)
 80015ea:	f004 faa5 	bl	8005b38 <memset>
    uartRxIndex = 0;
 80015ee:	4b07      	ldr	r3, [pc, #28]	@ (800160c <UART_StartReceive+0x2c>)
 80015f0:	2200      	movs	r2, #0
 80015f2:	701a      	strb	r2, [r3, #0]
    uartCommandReady = 0;
 80015f4:	4b06      	ldr	r3, [pc, #24]	@ (8001610 <UART_StartReceive+0x30>)
 80015f6:	2200      	movs	r2, #0
 80015f8:	701a      	strb	r2, [r3, #0]

    /*
     * Bat dau nhan 1 byte bang interrupt.
     */
    HAL_UART_Receive_IT(&huart1, &uartRxByte, 1);
 80015fa:	2201      	movs	r2, #1
 80015fc:	4905      	ldr	r1, [pc, #20]	@ (8001614 <UART_StartReceive+0x34>)
 80015fe:	4806      	ldr	r0, [pc, #24]	@ (8001618 <UART_StartReceive+0x38>)
 8001600:	f003 f83d 	bl	800467e <HAL_UART_Receive_IT>
}
 8001604:	bf00      	nop
 8001606:	bd80      	pop	{r7, pc}
 8001608:	200000dc 	.word	0x200000dc
 800160c:	2000011c 	.word	0x2000011c
 8001610:	2000011d 	.word	0x2000011d
 8001614:	200000d8 	.word	0x200000d8
 8001618:	20000148 	.word	0x20000148

0800161c <UART_ProcessReceivedCommand>:

void UART_ProcessReceivedCommand(void)
{
 800161c:	b580      	push	{r7, lr}
 800161e:	af00      	add	r7, sp, #0
    /*
     * Neu chua co lenh thi thoat.
     */
    if (uartCommandReady == 0)
 8001620:	4b0a      	ldr	r3, [pc, #40]	@ (800164c <UART_ProcessReceivedCommand+0x30>)
 8001622:	781b      	ldrb	r3, [r3, #0]
 8001624:	b2db      	uxtb	r3, r3
 8001626:	2b00      	cmp	r3, #0
 8001628:	d00e      	beq.n	8001648 <UART_ProcessReceivedCommand+0x2c>
    }

    /*
     * Xu ly lenh vua nhan.
     */
    Command_Process(uartRxBuffer);
 800162a:	4809      	ldr	r0, [pc, #36]	@ (8001650 <UART_ProcessReceivedCommand+0x34>)
 800162c:	f7ff fc16 	bl	8000e5c <Command_Process>

    /*
     * Xoa buffer sau khi xu ly.
     */
    memset(uartRxBuffer, 0, sizeof(uartRxBuffer));
 8001630:	2240      	movs	r2, #64	@ 0x40
 8001632:	2100      	movs	r1, #0
 8001634:	4806      	ldr	r0, [pc, #24]	@ (8001650 <UART_ProcessReceivedCommand+0x34>)
 8001636:	f004 fa7f 	bl	8005b38 <memset>
    uartRxIndex = 0;
 800163a:	4b06      	ldr	r3, [pc, #24]	@ (8001654 <UART_ProcessReceivedCommand+0x38>)
 800163c:	2200      	movs	r2, #0
 800163e:	701a      	strb	r2, [r3, #0]
    uartCommandReady = 0;
 8001640:	4b02      	ldr	r3, [pc, #8]	@ (800164c <UART_ProcessReceivedCommand+0x30>)
 8001642:	2200      	movs	r2, #0
 8001644:	701a      	strb	r2, [r3, #0]
 8001646:	e000      	b.n	800164a <UART_ProcessReceivedCommand+0x2e>
        return;
 8001648:	bf00      	nop
}
 800164a:	bd80      	pop	{r7, pc}
 800164c:	2000011d 	.word	0x2000011d
 8001650:	200000dc 	.word	0x200000dc
 8001654:	2000011c 	.word	0x2000011c

08001658 <HAL_UART_RxCpltCallback>:

void HAL_UART_RxCpltCallback(UART_HandleTypeDef *huart)
{
 8001658:	b580      	push	{r7, lr}
 800165a:	b082      	sub	sp, #8
 800165c:	af00      	add	r7, sp, #0
 800165e:	6078      	str	r0, [r7, #4]
    if (huart->Instance == USART1)
 8001660:	687b      	ldr	r3, [r7, #4]
 8001662:	681b      	ldr	r3, [r3, #0]
 8001664:	4a3d      	ldr	r2, [pc, #244]	@ (800175c <HAL_UART_RxCpltCallback+0x104>)
 8001666:	4293      	cmp	r3, r2
 8001668:	d174      	bne.n	8001754 <HAL_UART_RxCpltCallback+0xfc>
    {
        /*
         * Neu nhan Enter thi ket thuc lenh.
         */
        if ((uartRxByte == '\r') || (uartRxByte == '\n'))
 800166a:	4b3d      	ldr	r3, [pc, #244]	@ (8001760 <HAL_UART_RxCpltCallback+0x108>)
 800166c:	781b      	ldrb	r3, [r3, #0]
 800166e:	2b0d      	cmp	r3, #13
 8001670:	d003      	beq.n	800167a <HAL_UART_RxCpltCallback+0x22>
 8001672:	4b3b      	ldr	r3, [pc, #236]	@ (8001760 <HAL_UART_RxCpltCallback+0x108>)
 8001674:	781b      	ldrb	r3, [r3, #0]
 8001676:	2b0a      	cmp	r3, #10
 8001678:	d115      	bne.n	80016a6 <HAL_UART_RxCpltCallback+0x4e>
        {
            if ((uartRxIndex > 0) && (uartCommandReady == 0))
 800167a:	4b3a      	ldr	r3, [pc, #232]	@ (8001764 <HAL_UART_RxCpltCallback+0x10c>)
 800167c:	781b      	ldrb	r3, [r3, #0]
 800167e:	2b00      	cmp	r3, #0
 8001680:	d060      	beq.n	8001744 <HAL_UART_RxCpltCallback+0xec>
 8001682:	4b39      	ldr	r3, [pc, #228]	@ (8001768 <HAL_UART_RxCpltCallback+0x110>)
 8001684:	781b      	ldrb	r3, [r3, #0]
 8001686:	b2db      	uxtb	r3, r3
 8001688:	2b00      	cmp	r3, #0
 800168a:	d15b      	bne.n	8001744 <HAL_UART_RxCpltCallback+0xec>
            {
                uartRxBuffer[uartRxIndex] = '\0';
 800168c:	4b35      	ldr	r3, [pc, #212]	@ (8001764 <HAL_UART_RxCpltCallback+0x10c>)
 800168e:	781b      	ldrb	r3, [r3, #0]
 8001690:	461a      	mov	r2, r3
 8001692:	4b36      	ldr	r3, [pc, #216]	@ (800176c <HAL_UART_RxCpltCallback+0x114>)
 8001694:	2100      	movs	r1, #0
 8001696:	5499      	strb	r1, [r3, r2]
                uartCommandReady = 1;
 8001698:	4b33      	ldr	r3, [pc, #204]	@ (8001768 <HAL_UART_RxCpltCallback+0x110>)
 800169a:	2201      	movs	r2, #1
 800169c:	701a      	strb	r2, [r3, #0]
                UART_SendString("\r\n");
 800169e:	4834      	ldr	r0, [pc, #208]	@ (8001770 <HAL_UART_RxCpltCallback+0x118>)
 80016a0:	f7ff ff86 	bl	80015b0 <UART_SendString>
            if ((uartRxIndex > 0) && (uartCommandReady == 0))
 80016a4:	e04e      	b.n	8001744 <HAL_UART_RxCpltCallback+0xec>
        }

        /*
         * Xu ly phim Backspace hoac Delete.
         */
        else if ((uartRxByte == 8) || (uartRxByte == 127))
 80016a6:	4b2e      	ldr	r3, [pc, #184]	@ (8001760 <HAL_UART_RxCpltCallback+0x108>)
 80016a8:	781b      	ldrb	r3, [r3, #0]
 80016aa:	2b08      	cmp	r3, #8
 80016ac:	d003      	beq.n	80016b6 <HAL_UART_RxCpltCallback+0x5e>
 80016ae:	4b2c      	ldr	r3, [pc, #176]	@ (8001760 <HAL_UART_RxCpltCallback+0x108>)
 80016b0:	781b      	ldrb	r3, [r3, #0]
 80016b2:	2b7f      	cmp	r3, #127	@ 0x7f
 80016b4:	d118      	bne.n	80016e8 <HAL_UART_RxCpltCallback+0x90>
        {
            if ((uartRxIndex > 0) && (uartCommandReady == 0))
 80016b6:	4b2b      	ldr	r3, [pc, #172]	@ (8001764 <HAL_UART_RxCpltCallback+0x10c>)
 80016b8:	781b      	ldrb	r3, [r3, #0]
 80016ba:	2b00      	cmp	r3, #0
 80016bc:	d044      	beq.n	8001748 <HAL_UART_RxCpltCallback+0xf0>
 80016be:	4b2a      	ldr	r3, [pc, #168]	@ (8001768 <HAL_UART_RxCpltCallback+0x110>)
 80016c0:	781b      	ldrb	r3, [r3, #0]
 80016c2:	b2db      	uxtb	r3, r3
 80016c4:	2b00      	cmp	r3, #0
 80016c6:	d13f      	bne.n	8001748 <HAL_UART_RxCpltCallback+0xf0>
            {
                uartRxIndex--;
 80016c8:	4b26      	ldr	r3, [pc, #152]	@ (8001764 <HAL_UART_RxCpltCallback+0x10c>)
 80016ca:	781b      	ldrb	r3, [r3, #0]
 80016cc:	3b01      	subs	r3, #1
 80016ce:	b2da      	uxtb	r2, r3
 80016d0:	4b24      	ldr	r3, [pc, #144]	@ (8001764 <HAL_UART_RxCpltCallback+0x10c>)
 80016d2:	701a      	strb	r2, [r3, #0]
                uartRxBuffer[uartRxIndex] = '\0';
 80016d4:	4b23      	ldr	r3, [pc, #140]	@ (8001764 <HAL_UART_RxCpltCallback+0x10c>)
 80016d6:	781b      	ldrb	r3, [r3, #0]
 80016d8:	461a      	mov	r2, r3
 80016da:	4b24      	ldr	r3, [pc, #144]	@ (800176c <HAL_UART_RxCpltCallback+0x114>)
 80016dc:	2100      	movs	r1, #0
 80016de:	5499      	strb	r1, [r3, r2]
                UART_SendString("\b \b");
 80016e0:	4824      	ldr	r0, [pc, #144]	@ (8001774 <HAL_UART_RxCpltCallback+0x11c>)
 80016e2:	f7ff ff65 	bl	80015b0 <UART_SendString>
            if ((uartRxIndex > 0) && (uartCommandReady == 0))
 80016e6:	e02f      	b.n	8001748 <HAL_UART_RxCpltCallback+0xf0>
        }

        /*
         * Chi nhan ky tu ASCII in duoc.
         */
        else if ((uartRxByte >= 32) && (uartRxByte <= 126))
 80016e8:	4b1d      	ldr	r3, [pc, #116]	@ (8001760 <HAL_UART_RxCpltCallback+0x108>)
 80016ea:	781b      	ldrb	r3, [r3, #0]
 80016ec:	2b1f      	cmp	r3, #31
 80016ee:	d92c      	bls.n	800174a <HAL_UART_RxCpltCallback+0xf2>
 80016f0:	4b1b      	ldr	r3, [pc, #108]	@ (8001760 <HAL_UART_RxCpltCallback+0x108>)
 80016f2:	781b      	ldrb	r3, [r3, #0]
 80016f4:	2b7e      	cmp	r3, #126	@ 0x7e
 80016f6:	d828      	bhi.n	800174a <HAL_UART_RxCpltCallback+0xf2>
        {
            if (uartCommandReady == 0)
 80016f8:	4b1b      	ldr	r3, [pc, #108]	@ (8001768 <HAL_UART_RxCpltCallback+0x110>)
 80016fa:	781b      	ldrb	r3, [r3, #0]
 80016fc:	b2db      	uxtb	r3, r3
 80016fe:	2b00      	cmp	r3, #0
 8001700:	d123      	bne.n	800174a <HAL_UART_RxCpltCallback+0xf2>
            {
                if (uartRxIndex < sizeof(uartRxBuffer) - 1)
 8001702:	4b18      	ldr	r3, [pc, #96]	@ (8001764 <HAL_UART_RxCpltCallback+0x10c>)
 8001704:	781b      	ldrb	r3, [r3, #0]
 8001706:	2b3e      	cmp	r3, #62	@ 0x3e
 8001708:	d813      	bhi.n	8001732 <HAL_UART_RxCpltCallback+0xda>
                {
                    uartRxBuffer[uartRxIndex] = (char)uartRxByte;
 800170a:	4b16      	ldr	r3, [pc, #88]	@ (8001764 <HAL_UART_RxCpltCallback+0x10c>)
 800170c:	781b      	ldrb	r3, [r3, #0]
 800170e:	461a      	mov	r2, r3
 8001710:	4b13      	ldr	r3, [pc, #76]	@ (8001760 <HAL_UART_RxCpltCallback+0x108>)
 8001712:	7819      	ldrb	r1, [r3, #0]
 8001714:	4b15      	ldr	r3, [pc, #84]	@ (800176c <HAL_UART_RxCpltCallback+0x114>)
 8001716:	5499      	strb	r1, [r3, r2]
                    uartRxIndex++;
 8001718:	4b12      	ldr	r3, [pc, #72]	@ (8001764 <HAL_UART_RxCpltCallback+0x10c>)
 800171a:	781b      	ldrb	r3, [r3, #0]
 800171c:	3301      	adds	r3, #1
 800171e:	b2da      	uxtb	r2, r3
 8001720:	4b10      	ldr	r3, [pc, #64]	@ (8001764 <HAL_UART_RxCpltCallback+0x10c>)
 8001722:	701a      	strb	r2, [r3, #0]
                    HAL_UART_Transmit(&huart1, &uartRxByte, 1, 10);
 8001724:	230a      	movs	r3, #10
 8001726:	2201      	movs	r2, #1
 8001728:	490d      	ldr	r1, [pc, #52]	@ (8001760 <HAL_UART_RxCpltCallback+0x108>)
 800172a:	4813      	ldr	r0, [pc, #76]	@ (8001778 <HAL_UART_RxCpltCallback+0x120>)
 800172c:	f002 ff1e 	bl	800456c <HAL_UART_Transmit>
 8001730:	e00b      	b.n	800174a <HAL_UART_RxCpltCallback+0xf2>
                else
                {
                    /*
                     * Neu day buffer thi xoa, khong goi Log trong callback.
                     */
                    memset(uartRxBuffer, 0, sizeof(uartRxBuffer));
 8001732:	2240      	movs	r2, #64	@ 0x40
 8001734:	2100      	movs	r1, #0
 8001736:	480d      	ldr	r0, [pc, #52]	@ (800176c <HAL_UART_RxCpltCallback+0x114>)
 8001738:	f004 f9fe 	bl	8005b38 <memset>
                    uartRxIndex = 0;
 800173c:	4b09      	ldr	r3, [pc, #36]	@ (8001764 <HAL_UART_RxCpltCallback+0x10c>)
 800173e:	2200      	movs	r2, #0
 8001740:	701a      	strb	r2, [r3, #0]
 8001742:	e002      	b.n	800174a <HAL_UART_RxCpltCallback+0xf2>
            if ((uartRxIndex > 0) && (uartCommandReady == 0))
 8001744:	bf00      	nop
 8001746:	e000      	b.n	800174a <HAL_UART_RxCpltCallback+0xf2>
            if ((uartRxIndex > 0) && (uartCommandReady == 0))
 8001748:	bf00      	nop
        }

        /*
         * Bat nhan byte tiep theo.
         */
        HAL_UART_Receive_IT(&huart1, &uartRxByte, 1);
 800174a:	2201      	movs	r2, #1
 800174c:	4904      	ldr	r1, [pc, #16]	@ (8001760 <HAL_UART_RxCpltCallback+0x108>)
 800174e:	480a      	ldr	r0, [pc, #40]	@ (8001778 <HAL_UART_RxCpltCallback+0x120>)
 8001750:	f002 ff95 	bl	800467e <HAL_UART_Receive_IT>
    }
}
 8001754:	bf00      	nop
 8001756:	3708      	adds	r7, #8
 8001758:	46bd      	mov	sp, r7
 800175a:	bd80      	pop	{r7, pc}
 800175c:	40011000 	.word	0x40011000
 8001760:	200000d8 	.word	0x200000d8
 8001764:	2000011c 	.word	0x2000011c
 8001768:	2000011d 	.word	0x2000011d
 800176c:	200000dc 	.word	0x200000dc
 8001770:	08006f3c 	.word	0x08006f3c
 8001774:	08006f40 	.word	0x08006f40
 8001778:	20000148 	.word	0x20000148

0800177c <main>:
/**
  * @brief  The application entry point.
  * @retval int
  */
int main(void)
{
 800177c:	b580      	push	{r7, lr}
 800177e:	af00      	add	r7, sp, #0
  /* USER CODE BEGIN 1 */

  /* USER CODE END 1 */

  /* MPU Configuration--------------------------------------------------------*/
  MPU_Config();
 8001780:	f000 f936 	bl	80019f0 <MPU_Config>

  /* MCU Configuration--------------------------------------------------------*/

  /* Reset of all peripherals, Initializes the Flash interface and the Systick. */
  HAL_Init();
 8001784:	f000 fb11 	bl	8001daa <HAL_Init>
  /* USER CODE BEGIN Init */

  /* USER CODE END Init */

  /* Configure the system clock */
  SystemClock_Config();
 8001788:	f000 f84a 	bl	8001820 <SystemClock_Config>
  /* USER CODE BEGIN SysInit */

  /* USER CODE END SysInit */

  /* Initialize all configured peripherals */
  MX_GPIO_Init();
 800178c:	f000 f90c 	bl	80019a8 <MX_GPIO_Init>
  MX_USART1_UART_Init();
 8001790:	f000 f8da 	bl	8001948 <MX_USART1_UART_Init>
  MX_CAN1_Init();
 8001794:	f000 f8a0 	bl	80018d8 <MX_CAN1_Init>


  /*
   * Khoi tao cac module chinh.
   */
  Log_Init();
 8001798:	f7ff fe70 	bl	800147c <Log_Init>
  Ecu_Init();
 800179c:	f7ff fd52 	bl	8001244 <Ecu_Init>
  Dtc_Init();
 80017a0:	f7ff fca2 	bl	80010e8 <Dtc_Init>

  /*
   * Bat nhan lenh tu Tera Term.
   */
  UART_StartReceive();
 80017a4:	f7ff ff1c 	bl	80015e0 <UART_StartReceive>

  /*
   * Khoi tao heartbeat.
   */
  Heartbeat_Init();
 80017a8:	f7ff fddc 	bl	8001364 <Heartbeat_Init>

  /*
   * Khoi tao CAN loopback va gui frame test.
   */
  AppCAN_Init();
 80017ac:	f7fe ff10 	bl	80005d0 <AppCAN_Init>
  AppCAN_SendTestFrame();
 80017b0:	f7fe ff4a 	bl	8000648 <AppCAN_SendTestFrame>

  /*
   * Delay nho de CAN loopback kip dua frame vao FIFO.
   */
  HAL_Delay(10);
 80017b4:	200a      	movs	r0, #10
 80017b6:	f000 fb55 	bl	8001e64 <HAL_Delay>

  /*
   * Test nhan CAN bang polling.
   */
  AppCAN_PollRx();
 80017ba:	f7fe ffe1 	bl	8000780 <AppCAN_PollRx>

  Log_Info("UART COMMAND READY");
 80017be:	4810      	ldr	r0, [pc, #64]	@ (8001800 <main+0x84>)
 80017c0:	f7ff fe80 	bl	80014c4 <Log_Info>
  UART_SendString("\r\nType command:\r\n");
 80017c4:	480f      	ldr	r0, [pc, #60]	@ (8001804 <main+0x88>)
 80017c6:	f7ff fef3 	bl	80015b0 <UART_SendString>
  UART_SendString("help\r\n");
 80017ca:	480f      	ldr	r0, [pc, #60]	@ (8001808 <main+0x8c>)
 80017cc:	f7ff fef0 	bl	80015b0 <UART_SendString>
  UART_SendString("status\r\n");
 80017d0:	480e      	ldr	r0, [pc, #56]	@ (800180c <main+0x90>)
 80017d2:	f7ff feed 	bl	80015b0 <UART_SendString>
  UART_SendString("start | stop | reset | sleep\r\n");
 80017d6:	480e      	ldr	r0, [pc, #56]	@ (8001810 <main+0x94>)
 80017d8:	f7ff feea 	bl	80015b0 <UART_SendString>
  UART_SendString("set dtc P0001 | set dtc P0002 | set dtc P0003\r\n");
 80017dc:	480d      	ldr	r0, [pc, #52]	@ (8001814 <main+0x98>)
 80017de:	f7ff fee7 	bl	80015b0 <UART_SendString>
  UART_SendString("clear dtc\r\n");
 80017e2:	480d      	ldr	r0, [pc, #52]	@ (8001818 <main+0x9c>)
 80017e4:	f7ff fee4 	bl	80015b0 <UART_SendString>
  UART_SendString("can test\r\n");
 80017e8:	480c      	ldr	r0, [pc, #48]	@ (800181c <main+0xa0>)
 80017ea:	f7ff fee1 	bl	80015b0 <UART_SendString>

  /* Infinite loop */
  /* USER CODE BEGIN WHILE */
  while (1)
  {
	 UART_ProcessReceivedCommand();
 80017ee:	f7ff ff15 	bl	800161c <UART_ProcessReceivedCommand>
	 Heartbeat_Process();
 80017f2:	f7ff fdc3 	bl	800137c <Heartbeat_Process>
	 AppCAN_ProcessAutoTransmit();
 80017f6:	f7ff f9b5 	bl	8000b64 <AppCAN_ProcessAutoTransmit>
	 UART_ProcessReceivedCommand();
 80017fa:	bf00      	nop
 80017fc:	e7f7      	b.n	80017ee <main+0x72>
 80017fe:	bf00      	nop
 8001800:	08006f44 	.word	0x08006f44
 8001804:	08006f58 	.word	0x08006f58
 8001808:	08006f6c 	.word	0x08006f6c
 800180c:	08006f74 	.word	0x08006f74
 8001810:	08006f80 	.word	0x08006f80
 8001814:	08006fa0 	.word	0x08006fa0
 8001818:	08006fd0 	.word	0x08006fd0
 800181c:	08006fdc 	.word	0x08006fdc

08001820 <SystemClock_Config>:
/**
  * @brief System Clock Configuration
  * @retval None
  */
void SystemClock_Config(void)
{
 8001820:	b580      	push	{r7, lr}
 8001822:	b094      	sub	sp, #80	@ 0x50
 8001824:	af00      	add	r7, sp, #0
  RCC_OscInitTypeDef RCC_OscInitStruct = {0};
 8001826:	f107 0320 	add.w	r3, r7, #32
 800182a:	2230      	movs	r2, #48	@ 0x30
 800182c:	2100      	movs	r1, #0
 800182e:	4618      	mov	r0, r3
 8001830:	f004 f982 	bl	8005b38 <memset>
  RCC_ClkInitTypeDef RCC_ClkInitStruct = {0};
 8001834:	f107 030c 	add.w	r3, r7, #12
 8001838:	2200      	movs	r2, #0
 800183a:	601a      	str	r2, [r3, #0]
 800183c:	605a      	str	r2, [r3, #4]
 800183e:	609a      	str	r2, [r3, #8]
 8001840:	60da      	str	r2, [r3, #12]
 8001842:	611a      	str	r2, [r3, #16]

  /** Configure the main internal regulator output voltage
  */
  __HAL_RCC_PWR_CLK_ENABLE();
 8001844:	4b22      	ldr	r3, [pc, #136]	@ (80018d0 <SystemClock_Config+0xb0>)
 8001846:	6c1b      	ldr	r3, [r3, #64]	@ 0x40
 8001848:	4a21      	ldr	r2, [pc, #132]	@ (80018d0 <SystemClock_Config+0xb0>)
 800184a:	f043 5380 	orr.w	r3, r3, #268435456	@ 0x10000000
 800184e:	6413      	str	r3, [r2, #64]	@ 0x40
 8001850:	4b1f      	ldr	r3, [pc, #124]	@ (80018d0 <SystemClock_Config+0xb0>)
 8001852:	6c1b      	ldr	r3, [r3, #64]	@ 0x40
 8001854:	f003 5380 	and.w	r3, r3, #268435456	@ 0x10000000
 8001858:	60bb      	str	r3, [r7, #8]
 800185a:	68bb      	ldr	r3, [r7, #8]
  __HAL_PWR_VOLTAGESCALING_CONFIG(PWR_REGULATOR_VOLTAGE_SCALE3);
 800185c:	4b1d      	ldr	r3, [pc, #116]	@ (80018d4 <SystemClock_Config+0xb4>)
 800185e:	681b      	ldr	r3, [r3, #0]
 8001860:	f423 4340 	bic.w	r3, r3, #49152	@ 0xc000
 8001864:	4a1b      	ldr	r2, [pc, #108]	@ (80018d4 <SystemClock_Config+0xb4>)
 8001866:	f443 4380 	orr.w	r3, r3, #16384	@ 0x4000
 800186a:	6013      	str	r3, [r2, #0]
 800186c:	4b19      	ldr	r3, [pc, #100]	@ (80018d4 <SystemClock_Config+0xb4>)
 800186e:	681b      	ldr	r3, [r3, #0]
 8001870:	f403 4340 	and.w	r3, r3, #49152	@ 0xc000
 8001874:	607b      	str	r3, [r7, #4]
 8001876:	687b      	ldr	r3, [r7, #4]

  /** Initializes the RCC Oscillators according to the specified parameters
  * in the RCC_OscInitTypeDef structure.
  */
  RCC_OscInitStruct.OscillatorType = RCC_OSCILLATORTYPE_HSI;
 8001878:	2302      	movs	r3, #2
 800187a:	623b      	str	r3, [r7, #32]
  RCC_OscInitStruct.HSIState = RCC_HSI_ON;
 800187c:	2301      	movs	r3, #1
 800187e:	62fb      	str	r3, [r7, #44]	@ 0x2c
  RCC_OscInitStruct.HSICalibrationValue = RCC_HSICALIBRATION_DEFAULT;
 8001880:	2310      	movs	r3, #16
 8001882:	633b      	str	r3, [r7, #48]	@ 0x30
  RCC_OscInitStruct.PLL.PLLState = RCC_PLL_NONE;
 8001884:	2300      	movs	r3, #0
 8001886:	63bb      	str	r3, [r7, #56]	@ 0x38
  if (HAL_RCC_OscConfig(&RCC_OscInitStruct) != HAL_OK)
 8001888:	f107 0320 	add.w	r3, r7, #32
 800188c:	4618      	mov	r0, r3
 800188e:	f001 fda5 	bl	80033dc <HAL_RCC_OscConfig>
 8001892:	4603      	mov	r3, r0
 8001894:	2b00      	cmp	r3, #0
 8001896:	d001      	beq.n	800189c <SystemClock_Config+0x7c>
  {
    Error_Handler();
 8001898:	f000 f8d6 	bl	8001a48 <Error_Handler>
  }

  /** Initializes the CPU, AHB and APB buses clocks
  */
  RCC_ClkInitStruct.ClockType = RCC_CLOCKTYPE_HCLK|RCC_CLOCKTYPE_SYSCLK
 800189c:	230f      	movs	r3, #15
 800189e:	60fb      	str	r3, [r7, #12]
                              |RCC_CLOCKTYPE_PCLK1|RCC_CLOCKTYPE_PCLK2;
  RCC_ClkInitStruct.SYSCLKSource = RCC_SYSCLKSOURCE_HSI;
 80018a0:	2300      	movs	r3, #0
 80018a2:	613b      	str	r3, [r7, #16]
  RCC_ClkInitStruct.AHBCLKDivider = RCC_SYSCLK_DIV1;
 80018a4:	2300      	movs	r3, #0
 80018a6:	617b      	str	r3, [r7, #20]
  RCC_ClkInitStruct.APB1CLKDivider = RCC_HCLK_DIV1;
 80018a8:	2300      	movs	r3, #0
 80018aa:	61bb      	str	r3, [r7, #24]
  RCC_ClkInitStruct.APB2CLKDivider = RCC_HCLK_DIV1;
 80018ac:	2300      	movs	r3, #0
 80018ae:	61fb      	str	r3, [r7, #28]

  if (HAL_RCC_ClockConfig(&RCC_ClkInitStruct, FLASH_LATENCY_0) != HAL_OK)
 80018b0:	f107 030c 	add.w	r3, r7, #12
 80018b4:	2100      	movs	r1, #0
 80018b6:	4618      	mov	r0, r3
 80018b8:	f002 f834 	bl	8003924 <HAL_RCC_ClockConfig>
 80018bc:	4603      	mov	r3, r0
 80018be:	2b00      	cmp	r3, #0
 80018c0:	d001      	beq.n	80018c6 <SystemClock_Config+0xa6>
  {
    Error_Handler();
 80018c2:	f000 f8c1 	bl	8001a48 <Error_Handler>
  }
}
 80018c6:	bf00      	nop
 80018c8:	3750      	adds	r7, #80	@ 0x50
 80018ca:	46bd      	mov	sp, r7
 80018cc:	bd80      	pop	{r7, pc}
 80018ce:	bf00      	nop
 80018d0:	40023800 	.word	0x40023800
 80018d4:	40007000 	.word	0x40007000

080018d8 <MX_CAN1_Init>:
  * @brief CAN1 Initialization Function
  * @param None
  * @retval None
  */
static void MX_CAN1_Init(void)
{
 80018d8:	b580      	push	{r7, lr}
 80018da:	af00      	add	r7, sp, #0
  /* USER CODE END CAN1_Init 0 */

  /* USER CODE BEGIN CAN1_Init 1 */

  /* USER CODE END CAN1_Init 1 */
  hcan1.Instance = CAN1;
 80018dc:	4b18      	ldr	r3, [pc, #96]	@ (8001940 <MX_CAN1_Init+0x68>)
 80018de:	4a19      	ldr	r2, [pc, #100]	@ (8001944 <MX_CAN1_Init+0x6c>)
 80018e0:	601a      	str	r2, [r3, #0]
  hcan1.Init.Prescaler = 2;
 80018e2:	4b17      	ldr	r3, [pc, #92]	@ (8001940 <MX_CAN1_Init+0x68>)
 80018e4:	2202      	movs	r2, #2
 80018e6:	605a      	str	r2, [r3, #4]
  hcan1.Init.Mode = CAN_MODE_LOOPBACK;
 80018e8:	4b15      	ldr	r3, [pc, #84]	@ (8001940 <MX_CAN1_Init+0x68>)
 80018ea:	f04f 4280 	mov.w	r2, #1073741824	@ 0x40000000
 80018ee:	609a      	str	r2, [r3, #8]
  hcan1.Init.SyncJumpWidth = CAN_SJW_1TQ;
 80018f0:	4b13      	ldr	r3, [pc, #76]	@ (8001940 <MX_CAN1_Init+0x68>)
 80018f2:	2200      	movs	r2, #0
 80018f4:	60da      	str	r2, [r3, #12]
  hcan1.Init.TimeSeg1 = CAN_BS1_13TQ;
 80018f6:	4b12      	ldr	r3, [pc, #72]	@ (8001940 <MX_CAN1_Init+0x68>)
 80018f8:	f44f 2240 	mov.w	r2, #786432	@ 0xc0000
 80018fc:	611a      	str	r2, [r3, #16]
  hcan1.Init.TimeSeg2 = CAN_BS2_2TQ;
 80018fe:	4b10      	ldr	r3, [pc, #64]	@ (8001940 <MX_CAN1_Init+0x68>)
 8001900:	f44f 1280 	mov.w	r2, #1048576	@ 0x100000
 8001904:	615a      	str	r2, [r3, #20]
  hcan1.Init.TimeTriggeredMode = DISABLE;
 8001906:	4b0e      	ldr	r3, [pc, #56]	@ (8001940 <MX_CAN1_Init+0x68>)
 8001908:	2200      	movs	r2, #0
 800190a:	761a      	strb	r2, [r3, #24]
  hcan1.Init.AutoBusOff = DISABLE;
 800190c:	4b0c      	ldr	r3, [pc, #48]	@ (8001940 <MX_CAN1_Init+0x68>)
 800190e:	2200      	movs	r2, #0
 8001910:	765a      	strb	r2, [r3, #25]
  hcan1.Init.AutoWakeUp = DISABLE;
 8001912:	4b0b      	ldr	r3, [pc, #44]	@ (8001940 <MX_CAN1_Init+0x68>)
 8001914:	2200      	movs	r2, #0
 8001916:	769a      	strb	r2, [r3, #26]
  hcan1.Init.AutoRetransmission = DISABLE;
 8001918:	4b09      	ldr	r3, [pc, #36]	@ (8001940 <MX_CAN1_Init+0x68>)
 800191a:	2200      	movs	r2, #0
 800191c:	76da      	strb	r2, [r3, #27]
  hcan1.Init.ReceiveFifoLocked = DISABLE;
 800191e:	4b08      	ldr	r3, [pc, #32]	@ (8001940 <MX_CAN1_Init+0x68>)
 8001920:	2200      	movs	r2, #0
 8001922:	771a      	strb	r2, [r3, #28]
  hcan1.Init.TransmitFifoPriority = DISABLE;
 8001924:	4b06      	ldr	r3, [pc, #24]	@ (8001940 <MX_CAN1_Init+0x68>)
 8001926:	2200      	movs	r2, #0
 8001928:	775a      	strb	r2, [r3, #29]
  if (HAL_CAN_Init(&hcan1) != HAL_OK)
 800192a:	4805      	ldr	r0, [pc, #20]	@ (8001940 <MX_CAN1_Init+0x68>)
 800192c:	f000 fabe 	bl	8001eac <HAL_CAN_Init>
 8001930:	4603      	mov	r3, r0
 8001932:	2b00      	cmp	r3, #0
 8001934:	d001      	beq.n	800193a <MX_CAN1_Init+0x62>
  {
    Error_Handler();
 8001936:	f000 f887 	bl	8001a48 <Error_Handler>
  }
  /* USER CODE BEGIN CAN1_Init 2 */

  /* USER CODE END CAN1_Init 2 */

}
 800193a:	bf00      	nop
 800193c:	bd80      	pop	{r7, pc}
 800193e:	bf00      	nop
 8001940:	20000120 	.word	0x20000120
 8001944:	40006400 	.word	0x40006400

08001948 <MX_USART1_UART_Init>:
  * @brief USART1 Initialization Function
  * @param None
  * @retval None
  */
static void MX_USART1_UART_Init(void)
{
 8001948:	b580      	push	{r7, lr}
 800194a:	af00      	add	r7, sp, #0
  /* USER CODE END USART1_Init 0 */

  /* USER CODE BEGIN USART1_Init 1 */

  /* USER CODE END USART1_Init 1 */
  huart1.Instance = USART1;
 800194c:	4b14      	ldr	r3, [pc, #80]	@ (80019a0 <MX_USART1_UART_Init+0x58>)
 800194e:	4a15      	ldr	r2, [pc, #84]	@ (80019a4 <MX_USART1_UART_Init+0x5c>)
 8001950:	601a      	str	r2, [r3, #0]
  huart1.Init.BaudRate = 115200;
 8001952:	4b13      	ldr	r3, [pc, #76]	@ (80019a0 <MX_USART1_UART_Init+0x58>)
 8001954:	f44f 32e1 	mov.w	r2, #115200	@ 0x1c200
 8001958:	605a      	str	r2, [r3, #4]
  huart1.Init.WordLength = UART_WORDLENGTH_8B;
 800195a:	4b11      	ldr	r3, [pc, #68]	@ (80019a0 <MX_USART1_UART_Init+0x58>)
 800195c:	2200      	movs	r2, #0
 800195e:	609a      	str	r2, [r3, #8]
  huart1.Init.StopBits = UART_STOPBITS_1;
 8001960:	4b0f      	ldr	r3, [pc, #60]	@ (80019a0 <MX_USART1_UART_Init+0x58>)
 8001962:	2200      	movs	r2, #0
 8001964:	60da      	str	r2, [r3, #12]
  huart1.Init.Parity = UART_PARITY_NONE;
 8001966:	4b0e      	ldr	r3, [pc, #56]	@ (80019a0 <MX_USART1_UART_Init+0x58>)
 8001968:	2200      	movs	r2, #0
 800196a:	611a      	str	r2, [r3, #16]
  huart1.Init.Mode = UART_MODE_TX_RX;
 800196c:	4b0c      	ldr	r3, [pc, #48]	@ (80019a0 <MX_USART1_UART_Init+0x58>)
 800196e:	220c      	movs	r2, #12
 8001970:	615a      	str	r2, [r3, #20]
  huart1.Init.HwFlowCtl = UART_HWCONTROL_NONE;
 8001972:	4b0b      	ldr	r3, [pc, #44]	@ (80019a0 <MX_USART1_UART_Init+0x58>)
 8001974:	2200      	movs	r2, #0
 8001976:	619a      	str	r2, [r3, #24]
  huart1.Init.OverSampling = UART_OVERSAMPLING_16;
 8001978:	4b09      	ldr	r3, [pc, #36]	@ (80019a0 <MX_USART1_UART_Init+0x58>)
 800197a:	2200      	movs	r2, #0
 800197c:	61da      	str	r2, [r3, #28]
  huart1.Init.OneBitSampling = UART_ONE_BIT_SAMPLE_DISABLE;
 800197e:	4b08      	ldr	r3, [pc, #32]	@ (80019a0 <MX_USART1_UART_Init+0x58>)
 8001980:	2200      	movs	r2, #0
 8001982:	621a      	str	r2, [r3, #32]
  huart1.AdvancedInit.AdvFeatureInit = UART_ADVFEATURE_NO_INIT;
 8001984:	4b06      	ldr	r3, [pc, #24]	@ (80019a0 <MX_USART1_UART_Init+0x58>)
 8001986:	2200      	movs	r2, #0
 8001988:	625a      	str	r2, [r3, #36]	@ 0x24
  if (HAL_UART_Init(&huart1) != HAL_OK)
 800198a:	4805      	ldr	r0, [pc, #20]	@ (80019a0 <MX_USART1_UART_Init+0x58>)
 800198c:	f002 fda0 	bl	80044d0 <HAL_UART_Init>
 8001990:	4603      	mov	r3, r0
 8001992:	2b00      	cmp	r3, #0
 8001994:	d001      	beq.n	800199a <MX_USART1_UART_Init+0x52>
  {
    Error_Handler();
 8001996:	f000 f857 	bl	8001a48 <Error_Handler>
  }
  /* USER CODE BEGIN USART1_Init 2 */

  /* USER CODE END USART1_Init 2 */

}
 800199a:	bf00      	nop
 800199c:	bd80      	pop	{r7, pc}
 800199e:	bf00      	nop
 80019a0:	20000148 	.word	0x20000148
 80019a4:	40011000 	.word	0x40011000

080019a8 <MX_GPIO_Init>:
  * @brief GPIO Initialization Function
  * @param None
  * @retval None
  */
static void MX_GPIO_Init(void)
{
 80019a8:	b480      	push	{r7}
 80019aa:	b083      	sub	sp, #12
 80019ac:	af00      	add	r7, sp, #0
/* USER CODE BEGIN MX_GPIO_Init_1 */
/* USER CODE END MX_GPIO_Init_1 */

  /* GPIO Ports Clock Enable */
  __HAL_RCC_GPIOI_CLK_ENABLE();
 80019ae:	4b0f      	ldr	r3, [pc, #60]	@ (80019ec <MX_GPIO_Init+0x44>)
 80019b0:	6b1b      	ldr	r3, [r3, #48]	@ 0x30
 80019b2:	4a0e      	ldr	r2, [pc, #56]	@ (80019ec <MX_GPIO_Init+0x44>)
 80019b4:	f443 7380 	orr.w	r3, r3, #256	@ 0x100
 80019b8:	6313      	str	r3, [r2, #48]	@ 0x30
 80019ba:	4b0c      	ldr	r3, [pc, #48]	@ (80019ec <MX_GPIO_Init+0x44>)
 80019bc:	6b1b      	ldr	r3, [r3, #48]	@ 0x30
 80019be:	f403 7380 	and.w	r3, r3, #256	@ 0x100
 80019c2:	607b      	str	r3, [r7, #4]
 80019c4:	687b      	ldr	r3, [r7, #4]
  __HAL_RCC_GPIOA_CLK_ENABLE();
 80019c6:	4b09      	ldr	r3, [pc, #36]	@ (80019ec <MX_GPIO_Init+0x44>)
 80019c8:	6b1b      	ldr	r3, [r3, #48]	@ 0x30
 80019ca:	4a08      	ldr	r2, [pc, #32]	@ (80019ec <MX_GPIO_Init+0x44>)
 80019cc:	f043 0301 	orr.w	r3, r3, #1
 80019d0:	6313      	str	r3, [r2, #48]	@ 0x30
 80019d2:	4b06      	ldr	r3, [pc, #24]	@ (80019ec <MX_GPIO_Init+0x44>)
 80019d4:	6b1b      	ldr	r3, [r3, #48]	@ 0x30
 80019d6:	f003 0301 	and.w	r3, r3, #1
 80019da:	603b      	str	r3, [r7, #0]
 80019dc:	683b      	ldr	r3, [r7, #0]

/* USER CODE BEGIN MX_GPIO_Init_2 */
/* USER CODE END MX_GPIO_Init_2 */
}
 80019de:	bf00      	nop
 80019e0:	370c      	adds	r7, #12
 80019e2:	46bd      	mov	sp, r7
 80019e4:	f85d 7b04 	ldr.w	r7, [sp], #4
 80019e8:	4770      	bx	lr
 80019ea:	bf00      	nop
 80019ec:	40023800 	.word	0x40023800

080019f0 <MPU_Config>:
/* USER CODE END 4 */

 /* MPU Configuration */

void MPU_Config(void)
{
 80019f0:	b580      	push	{r7, lr}
 80019f2:	b084      	sub	sp, #16
 80019f4:	af00      	add	r7, sp, #0
  MPU_Region_InitTypeDef MPU_InitStruct = {0};
 80019f6:	463b      	mov	r3, r7
 80019f8:	2200      	movs	r2, #0
 80019fa:	601a      	str	r2, [r3, #0]
 80019fc:	605a      	str	r2, [r3, #4]
 80019fe:	609a      	str	r2, [r3, #8]
 8001a00:	60da      	str	r2, [r3, #12]

  /* Disables the MPU */
  HAL_MPU_Disable();
 8001a02:	f001 fa35 	bl	8002e70 <HAL_MPU_Disable>

  /** Initializes and configures the Region and the memory to be protected
  */
  MPU_InitStruct.Enable = MPU_REGION_ENABLE;
 8001a06:	2301      	movs	r3, #1
 8001a08:	703b      	strb	r3, [r7, #0]
  MPU_InitStruct.Number = MPU_REGION_NUMBER0;
 8001a0a:	2300      	movs	r3, #0
 8001a0c:	707b      	strb	r3, [r7, #1]
  MPU_InitStruct.BaseAddress = 0x0;
 8001a0e:	2300      	movs	r3, #0
 8001a10:	607b      	str	r3, [r7, #4]
  MPU_InitStruct.Size = MPU_REGION_SIZE_4GB;
 8001a12:	231f      	movs	r3, #31
 8001a14:	723b      	strb	r3, [r7, #8]
  MPU_InitStruct.SubRegionDisable = 0x87;
 8001a16:	2387      	movs	r3, #135	@ 0x87
 8001a18:	727b      	strb	r3, [r7, #9]
  MPU_InitStruct.TypeExtField = MPU_TEX_LEVEL0;
 8001a1a:	2300      	movs	r3, #0
 8001a1c:	72bb      	strb	r3, [r7, #10]
  MPU_InitStruct.AccessPermission = MPU_REGION_NO_ACCESS;
 8001a1e:	2300      	movs	r3, #0
 8001a20:	72fb      	strb	r3, [r7, #11]
  MPU_InitStruct.DisableExec = MPU_INSTRUCTION_ACCESS_DISABLE;
 8001a22:	2301      	movs	r3, #1
 8001a24:	733b      	strb	r3, [r7, #12]
  MPU_InitStruct.IsShareable = MPU_ACCESS_SHAREABLE;
 8001a26:	2301      	movs	r3, #1
 8001a28:	737b      	strb	r3, [r7, #13]
  MPU_InitStruct.IsCacheable = MPU_ACCESS_NOT_CACHEABLE;
 8001a2a:	2300      	movs	r3, #0
 8001a2c:	73bb      	strb	r3, [r7, #14]
  MPU_InitStruct.IsBufferable = MPU_ACCESS_NOT_BUFFERABLE;
 8001a2e:	2300      	movs	r3, #0
 8001a30:	73fb      	strb	r3, [r7, #15]

  HAL_MPU_ConfigRegion(&MPU_InitStruct);
 8001a32:	463b      	mov	r3, r7
 8001a34:	4618      	mov	r0, r3
 8001a36:	f001 fa53 	bl	8002ee0 <HAL_MPU_ConfigRegion>
  /* Enables the MPU */
  HAL_MPU_Enable(MPU_PRIVILEGED_DEFAULT);
 8001a3a:	2004      	movs	r0, #4
 8001a3c:	f001 fa30 	bl	8002ea0 <HAL_MPU_Enable>

}
 8001a40:	bf00      	nop
 8001a42:	3710      	adds	r7, #16
 8001a44:	46bd      	mov	sp, r7
 8001a46:	bd80      	pop	{r7, pc}

08001a48 <Error_Handler>:
/**
  * @brief  This function is executed in case of error occurrence.
  * @retval None
  */
void Error_Handler(void)
{
 8001a48:	b480      	push	{r7}
 8001a4a:	af00      	add	r7, sp, #0
  \details Disables IRQ interrupts by setting the I-bit in the CPSR.
           Can only be executed in Privileged modes.
 */
__STATIC_FORCEINLINE void __disable_irq(void)
{
  __ASM volatile ("cpsid i" : : : "memory");
 8001a4c:	b672      	cpsid	i
}
 8001a4e:	bf00      	nop
  /* USER CODE BEGIN Error_Handler_Debug */
  /* User can add his own implementation to report the HAL error return state */
  __disable_irq();
  while (1)
 8001a50:	bf00      	nop
 8001a52:	e7fd      	b.n	8001a50 <Error_Handler+0x8>

08001a54 <HAL_MspInit>:
/* USER CODE END 0 */
/**
  * Initializes the Global MSP.
  */
void HAL_MspInit(void)
{
 8001a54:	b480      	push	{r7}
 8001a56:	b083      	sub	sp, #12
 8001a58:	af00      	add	r7, sp, #0

  /* USER CODE BEGIN MspInit 0 */

  /* USER CODE END MspInit 0 */

  __HAL_RCC_PWR_CLK_ENABLE();
 8001a5a:	4b0f      	ldr	r3, [pc, #60]	@ (8001a98 <HAL_MspInit+0x44>)
 8001a5c:	6c1b      	ldr	r3, [r3, #64]	@ 0x40
 8001a5e:	4a0e      	ldr	r2, [pc, #56]	@ (8001a98 <HAL_MspInit+0x44>)
 8001a60:	f043 5380 	orr.w	r3, r3, #268435456	@ 0x10000000
 8001a64:	6413      	str	r3, [r2, #64]	@ 0x40
 8001a66:	4b0c      	ldr	r3, [pc, #48]	@ (8001a98 <HAL_MspInit+0x44>)
 8001a68:	6c1b      	ldr	r3, [r3, #64]	@ 0x40
 8001a6a:	f003 5380 	and.w	r3, r3, #268435456	@ 0x10000000
 8001a6e:	607b      	str	r3, [r7, #4]
 8001a70:	687b      	ldr	r3, [r7, #4]
  __HAL_RCC_SYSCFG_CLK_ENABLE();
 8001a72:	4b09      	ldr	r3, [pc, #36]	@ (8001a98 <HAL_MspInit+0x44>)
 8001a74:	6c5b      	ldr	r3, [r3, #68]	@ 0x44
 8001a76:	4a08      	ldr	r2, [pc, #32]	@ (8001a98 <HAL_MspInit+0x44>)
 8001a78:	f443 4380 	orr.w	r3, r3, #16384	@ 0x4000
 8001a7c:	6453      	str	r3, [r2, #68]	@ 0x44
 8001a7e:	4b06      	ldr	r3, [pc, #24]	@ (8001a98 <HAL_MspInit+0x44>)
 8001a80:	6c5b      	ldr	r3, [r3, #68]	@ 0x44
 8001a82:	f403 4380 	and.w	r3, r3, #16384	@ 0x4000
 8001a86:	603b      	str	r3, [r7, #0]
 8001a88:	683b      	ldr	r3, [r7, #0]
  /* System interrupt init*/

  /* USER CODE BEGIN MspInit 1 */

  /* USER CODE END MspInit 1 */
}
 8001a8a:	bf00      	nop
 8001a8c:	370c      	adds	r7, #12
 8001a8e:	46bd      	mov	sp, r7
 8001a90:	f85d 7b04 	ldr.w	r7, [sp], #4
 8001a94:	4770      	bx	lr
 8001a96:	bf00      	nop
 8001a98:	40023800 	.word	0x40023800

08001a9c <HAL_CAN_MspInit>:
* This function configures the hardware resources used in this example
* @param hcan: CAN handle pointer
* @retval None
*/
void HAL_CAN_MspInit(CAN_HandleTypeDef* hcan)
{
 8001a9c:	b580      	push	{r7, lr}
 8001a9e:	b08a      	sub	sp, #40	@ 0x28
 8001aa0:	af00      	add	r7, sp, #0
 8001aa2:	6078      	str	r0, [r7, #4]
  GPIO_InitTypeDef GPIO_InitStruct = {0};
 8001aa4:	f107 0314 	add.w	r3, r7, #20
 8001aa8:	2200      	movs	r2, #0
 8001aaa:	601a      	str	r2, [r3, #0]
 8001aac:	605a      	str	r2, [r3, #4]
 8001aae:	609a      	str	r2, [r3, #8]
 8001ab0:	60da      	str	r2, [r3, #12]
 8001ab2:	611a      	str	r2, [r3, #16]
  if(hcan->Instance==CAN1)
 8001ab4:	687b      	ldr	r3, [r7, #4]
 8001ab6:	681b      	ldr	r3, [r3, #0]
 8001ab8:	4a2a      	ldr	r2, [pc, #168]	@ (8001b64 <HAL_CAN_MspInit+0xc8>)
 8001aba:	4293      	cmp	r3, r2
 8001abc:	d14d      	bne.n	8001b5a <HAL_CAN_MspInit+0xbe>
  {
  /* USER CODE BEGIN CAN1_MspInit 0 */

  /* USER CODE END CAN1_MspInit 0 */
    /* Peripheral clock enable */
    __HAL_RCC_CAN1_CLK_ENABLE();
 8001abe:	4b2a      	ldr	r3, [pc, #168]	@ (8001b68 <HAL_CAN_MspInit+0xcc>)
 8001ac0:	6c1b      	ldr	r3, [r3, #64]	@ 0x40
 8001ac2:	4a29      	ldr	r2, [pc, #164]	@ (8001b68 <HAL_CAN_MspInit+0xcc>)
 8001ac4:	f043 7300 	orr.w	r3, r3, #33554432	@ 0x2000000
 8001ac8:	6413      	str	r3, [r2, #64]	@ 0x40
 8001aca:	4b27      	ldr	r3, [pc, #156]	@ (8001b68 <HAL_CAN_MspInit+0xcc>)
 8001acc:	6c1b      	ldr	r3, [r3, #64]	@ 0x40
 8001ace:	f003 7300 	and.w	r3, r3, #33554432	@ 0x2000000
 8001ad2:	613b      	str	r3, [r7, #16]
 8001ad4:	693b      	ldr	r3, [r7, #16]

    __HAL_RCC_GPIOI_CLK_ENABLE();
 8001ad6:	4b24      	ldr	r3, [pc, #144]	@ (8001b68 <HAL_CAN_MspInit+0xcc>)
 8001ad8:	6b1b      	ldr	r3, [r3, #48]	@ 0x30
 8001ada:	4a23      	ldr	r2, [pc, #140]	@ (8001b68 <HAL_CAN_MspInit+0xcc>)
 8001adc:	f443 7380 	orr.w	r3, r3, #256	@ 0x100
 8001ae0:	6313      	str	r3, [r2, #48]	@ 0x30
 8001ae2:	4b21      	ldr	r3, [pc, #132]	@ (8001b68 <HAL_CAN_MspInit+0xcc>)
 8001ae4:	6b1b      	ldr	r3, [r3, #48]	@ 0x30
 8001ae6:	f403 7380 	and.w	r3, r3, #256	@ 0x100
 8001aea:	60fb      	str	r3, [r7, #12]
 8001aec:	68fb      	ldr	r3, [r7, #12]
    __HAL_RCC_GPIOA_CLK_ENABLE();
 8001aee:	4b1e      	ldr	r3, [pc, #120]	@ (8001b68 <HAL_CAN_MspInit+0xcc>)
 8001af0:	6b1b      	ldr	r3, [r3, #48]	@ 0x30
 8001af2:	4a1d      	ldr	r2, [pc, #116]	@ (8001b68 <HAL_CAN_MspInit+0xcc>)
 8001af4:	f043 0301 	orr.w	r3, r3, #1
 8001af8:	6313      	str	r3, [r2, #48]	@ 0x30
 8001afa:	4b1b      	ldr	r3, [pc, #108]	@ (8001b68 <HAL_CAN_MspInit+0xcc>)
 8001afc:	6b1b      	ldr	r3, [r3, #48]	@ 0x30
 8001afe:	f003 0301 	and.w	r3, r3, #1
 8001b02:	60bb      	str	r3, [r7, #8]
 8001b04:	68bb      	ldr	r3, [r7, #8]
    /**CAN1 GPIO Configuration
    PI9     ------> CAN1_RX
    PA12     ------> CAN1_TX
    */
    GPIO_InitStruct.Pin = GPIO_PIN_9;
 8001b06:	f44f 7300 	mov.w	r3, #512	@ 0x200
 8001b0a:	617b      	str	r3, [r7, #20]
    GPIO_InitStruct.Mode = GPIO_MODE_AF_PP;
 8001b0c:	2302      	movs	r3, #2
 8001b0e:	61bb      	str	r3, [r7, #24]
    GPIO_InitStruct.Pull = GPIO_NOPULL;
 8001b10:	2300      	movs	r3, #0
 8001b12:	61fb      	str	r3, [r7, #28]
    GPIO_InitStruct.Speed = GPIO_SPEED_FREQ_VERY_HIGH;
 8001b14:	2303      	movs	r3, #3
 8001b16:	623b      	str	r3, [r7, #32]
    GPIO_InitStruct.Alternate = GPIO_AF9_CAN1;
 8001b18:	2309      	movs	r3, #9
 8001b1a:	627b      	str	r3, [r7, #36]	@ 0x24
    HAL_GPIO_Init(GPIOI, &GPIO_InitStruct);
 8001b1c:	f107 0314 	add.w	r3, r7, #20
 8001b20:	4619      	mov	r1, r3
 8001b22:	4812      	ldr	r0, [pc, #72]	@ (8001b6c <HAL_CAN_MspInit+0xd0>)
 8001b24:	f001 faae 	bl	8003084 <HAL_GPIO_Init>

    GPIO_InitStruct.Pin = GPIO_PIN_12;
 8001b28:	f44f 5380 	mov.w	r3, #4096	@ 0x1000
 8001b2c:	617b      	str	r3, [r7, #20]
    GPIO_InitStruct.Mode = GPIO_MODE_AF_PP;
 8001b2e:	2302      	movs	r3, #2
 8001b30:	61bb      	str	r3, [r7, #24]
    GPIO_InitStruct.Pull = GPIO_NOPULL;
 8001b32:	2300      	movs	r3, #0
 8001b34:	61fb      	str	r3, [r7, #28]
    GPIO_InitStruct.Speed = GPIO_SPEED_FREQ_VERY_HIGH;
 8001b36:	2303      	movs	r3, #3
 8001b38:	623b      	str	r3, [r7, #32]
    GPIO_InitStruct.Alternate = GPIO_AF9_CAN1;
 8001b3a:	2309      	movs	r3, #9
 8001b3c:	627b      	str	r3, [r7, #36]	@ 0x24
    HAL_GPIO_Init(GPIOA, &GPIO_InitStruct);
 8001b3e:	f107 0314 	add.w	r3, r7, #20
 8001b42:	4619      	mov	r1, r3
 8001b44:	480a      	ldr	r0, [pc, #40]	@ (8001b70 <HAL_CAN_MspInit+0xd4>)
 8001b46:	f001 fa9d 	bl	8003084 <HAL_GPIO_Init>

    /* CAN1 interrupt Init */
    HAL_NVIC_SetPriority(CAN1_RX0_IRQn, 0, 0);
 8001b4a:	2200      	movs	r2, #0
 8001b4c:	2100      	movs	r1, #0
 8001b4e:	2014      	movs	r0, #20
 8001b50:	f001 f957 	bl	8002e02 <HAL_NVIC_SetPriority>
    HAL_NVIC_EnableIRQ(CAN1_RX0_IRQn);
 8001b54:	2014      	movs	r0, #20
 8001b56:	f001 f970 	bl	8002e3a <HAL_NVIC_EnableIRQ>

  /* USER CODE END CAN1_MspInit 1 */

  }

}
 8001b5a:	bf00      	nop
 8001b5c:	3728      	adds	r7, #40	@ 0x28
 8001b5e:	46bd      	mov	sp, r7
 8001b60:	bd80      	pop	{r7, pc}
 8001b62:	bf00      	nop
 8001b64:	40006400 	.word	0x40006400
 8001b68:	40023800 	.word	0x40023800
 8001b6c:	40022000 	.word	0x40022000
 8001b70:	40020000 	.word	0x40020000

08001b74 <HAL_UART_MspInit>:
* This function configures the hardware resources used in this example
* @param huart: UART handle pointer
* @retval None
*/
void HAL_UART_MspInit(UART_HandleTypeDef* huart)
{
 8001b74:	b580      	push	{r7, lr}
 8001b76:	b0aa      	sub	sp, #168	@ 0xa8
 8001b78:	af00      	add	r7, sp, #0
 8001b7a:	6078      	str	r0, [r7, #4]
  GPIO_InitTypeDef GPIO_InitStruct = {0};
 8001b7c:	f107 0394 	add.w	r3, r7, #148	@ 0x94
 8001b80:	2200      	movs	r2, #0
 8001b82:	601a      	str	r2, [r3, #0]
 8001b84:	605a      	str	r2, [r3, #4]
 8001b86:	609a      	str	r2, [r3, #8]
 8001b88:	60da      	str	r2, [r3, #12]
 8001b8a:	611a      	str	r2, [r3, #16]
  RCC_PeriphCLKInitTypeDef PeriphClkInitStruct = {0};
 8001b8c:	f107 0310 	add.w	r3, r7, #16
 8001b90:	2284      	movs	r2, #132	@ 0x84
 8001b92:	2100      	movs	r1, #0
 8001b94:	4618      	mov	r0, r3
 8001b96:	f003 ffcf 	bl	8005b38 <memset>
  if(huart->Instance==USART1)
 8001b9a:	687b      	ldr	r3, [r7, #4]
 8001b9c:	681b      	ldr	r3, [r3, #0]
 8001b9e:	4a25      	ldr	r2, [pc, #148]	@ (8001c34 <HAL_UART_MspInit+0xc0>)
 8001ba0:	4293      	cmp	r3, r2
 8001ba2:	d143      	bne.n	8001c2c <HAL_UART_MspInit+0xb8>

  /* USER CODE END USART1_MspInit 0 */

  /** Initializes the peripherals clock
  */
    PeriphClkInitStruct.PeriphClockSelection = RCC_PERIPHCLK_USART1;
 8001ba4:	2340      	movs	r3, #64	@ 0x40
 8001ba6:	613b      	str	r3, [r7, #16]
    PeriphClkInitStruct.Usart1ClockSelection = RCC_USART1CLKSOURCE_PCLK2;
 8001ba8:	2300      	movs	r3, #0
 8001baa:	657b      	str	r3, [r7, #84]	@ 0x54
    if (HAL_RCCEx_PeriphCLKConfig(&PeriphClkInitStruct) != HAL_OK)
 8001bac:	f107 0310 	add.w	r3, r7, #16
 8001bb0:	4618      	mov	r0, r3
 8001bb2:	f002 f89d 	bl	8003cf0 <HAL_RCCEx_PeriphCLKConfig>
 8001bb6:	4603      	mov	r3, r0
 8001bb8:	2b00      	cmp	r3, #0
 8001bba:	d001      	beq.n	8001bc0 <HAL_UART_MspInit+0x4c>
    {
      Error_Handler();
 8001bbc:	f7ff ff44 	bl	8001a48 <Error_Handler>
    }

    /* Peripheral clock enable */
    __HAL_RCC_USART1_CLK_ENABLE();
 8001bc0:	4b1d      	ldr	r3, [pc, #116]	@ (8001c38 <HAL_UART_MspInit+0xc4>)
 8001bc2:	6c5b      	ldr	r3, [r3, #68]	@ 0x44
 8001bc4:	4a1c      	ldr	r2, [pc, #112]	@ (8001c38 <HAL_UART_MspInit+0xc4>)
 8001bc6:	f043 0310 	orr.w	r3, r3, #16
 8001bca:	6453      	str	r3, [r2, #68]	@ 0x44
 8001bcc:	4b1a      	ldr	r3, [pc, #104]	@ (8001c38 <HAL_UART_MspInit+0xc4>)
 8001bce:	6c5b      	ldr	r3, [r3, #68]	@ 0x44
 8001bd0:	f003 0310 	and.w	r3, r3, #16
 8001bd4:	60fb      	str	r3, [r7, #12]
 8001bd6:	68fb      	ldr	r3, [r7, #12]

    __HAL_RCC_GPIOA_CLK_ENABLE();
 8001bd8:	4b17      	ldr	r3, [pc, #92]	@ (8001c38 <HAL_UART_MspInit+0xc4>)
 8001bda:	6b1b      	ldr	r3, [r3, #48]	@ 0x30
 8001bdc:	4a16      	ldr	r2, [pc, #88]	@ (8001c38 <HAL_UART_MspInit+0xc4>)
 8001bde:	f043 0301 	orr.w	r3, r3, #1
 8001be2:	6313      	str	r3, [r2, #48]	@ 0x30
 8001be4:	4b14      	ldr	r3, [pc, #80]	@ (8001c38 <HAL_UART_MspInit+0xc4>)
 8001be6:	6b1b      	ldr	r3, [r3, #48]	@ 0x30
 8001be8:	f003 0301 	and.w	r3, r3, #1
 8001bec:	60bb      	str	r3, [r7, #8]
 8001bee:	68bb      	ldr	r3, [r7, #8]
    /**USART1 GPIO Configuration
    PA9     ------> USART1_TX
    PA10     ------> USART1_RX
    */
    GPIO_InitStruct.Pin = GPIO_PIN_9|GPIO_PIN_10;
 8001bf0:	f44f 63c0 	mov.w	r3, #1536	@ 0x600
 8001bf4:	f8c7 3094 	str.w	r3, [r7, #148]	@ 0x94
    GPIO_InitStruct.Mode = GPIO_MODE_AF_PP;
 8001bf8:	2302      	movs	r3, #2
 8001bfa:	f8c7 3098 	str.w	r3, [r7, #152]	@ 0x98
    GPIO_InitStruct.Pull = GPIO_NOPULL;
 8001bfe:	2300      	movs	r3, #0
 8001c00:	f8c7 309c 	str.w	r3, [r7, #156]	@ 0x9c
    GPIO_InitStruct.Speed = GPIO_SPEED_FREQ_VERY_HIGH;
 8001c04:	2303      	movs	r3, #3
 8001c06:	f8c7 30a0 	str.w	r3, [r7, #160]	@ 0xa0
    GPIO_InitStruct.Alternate = GPIO_AF7_USART1;
 8001c0a:	2307      	movs	r3, #7
 8001c0c:	f8c7 30a4 	str.w	r3, [r7, #164]	@ 0xa4
    HAL_GPIO_Init(GPIOA, &GPIO_InitStruct);
 8001c10:	f107 0394 	add.w	r3, r7, #148	@ 0x94
 8001c14:	4619      	mov	r1, r3
 8001c16:	4809      	ldr	r0, [pc, #36]	@ (8001c3c <HAL_UART_MspInit+0xc8>)
 8001c18:	f001 fa34 	bl	8003084 <HAL_GPIO_Init>

    /* USART1 interrupt Init */
    HAL_NVIC_SetPriority(USART1_IRQn, 0, 0);
 8001c1c:	2200      	movs	r2, #0
 8001c1e:	2100      	movs	r1, #0
 8001c20:	2025      	movs	r0, #37	@ 0x25
 8001c22:	f001 f8ee 	bl	8002e02 <HAL_NVIC_SetPriority>
    HAL_NVIC_EnableIRQ(USART1_IRQn);
 8001c26:	2025      	movs	r0, #37	@ 0x25
 8001c28:	f001 f907 	bl	8002e3a <HAL_NVIC_EnableIRQ>

  /* USER CODE END USART1_MspInit 1 */

  }

}
 8001c2c:	bf00      	nop
 8001c2e:	37a8      	adds	r7, #168	@ 0xa8
 8001c30:	46bd      	mov	sp, r7
 8001c32:	bd80      	pop	{r7, pc}
 8001c34:	40011000 	.word	0x40011000
 8001c38:	40023800 	.word	0x40023800
 8001c3c:	40020000 	.word	0x40020000

08001c40 <NMI_Handler>:
/******************************************************************************/
/**
  * @brief This function handles Non maskable interrupt.
  */
void NMI_Handler(void)
{
 8001c40:	b480      	push	{r7}
 8001c42:	af00      	add	r7, sp, #0
  /* USER CODE BEGIN NonMaskableInt_IRQn 0 */

  /* USER CODE END NonMaskableInt_IRQn 0 */
  /* USER CODE BEGIN NonMaskableInt_IRQn 1 */
   while (1)
 8001c44:	bf00      	nop
 8001c46:	e7fd      	b.n	8001c44 <NMI_Handler+0x4>

08001c48 <HardFault_Handler>:

/**
  * @brief This function handles Hard fault interrupt.
  */
void HardFault_Handler(void)
{
 8001c48:	b480      	push	{r7}
 8001c4a:	af00      	add	r7, sp, #0
  /* USER CODE BEGIN HardFault_IRQn 0 */

  /* USER CODE END HardFault_IRQn 0 */
  while (1)
 8001c4c:	bf00      	nop
 8001c4e:	e7fd      	b.n	8001c4c <HardFault_Handler+0x4>

08001c50 <MemManage_Handler>:

/**
  * @brief This function handles Memory management fault.
  */
void MemManage_Handler(void)
{
 8001c50:	b480      	push	{r7}
 8001c52:	af00      	add	r7, sp, #0
  /* USER CODE BEGIN MemoryManagement_IRQn 0 */

  /* USER CODE END MemoryManagement_IRQn 0 */
  while (1)
 8001c54:	bf00      	nop
 8001c56:	e7fd      	b.n	8001c54 <MemManage_Handler+0x4>

08001c58 <BusFault_Handler>:

/**
  * @brief This function handles Pre-fetch fault, memory access fault.
  */
void BusFault_Handler(void)
{
 8001c58:	b480      	push	{r7}
 8001c5a:	af00      	add	r7, sp, #0
  /* USER CODE BEGIN BusFault_IRQn 0 */

  /* USER CODE END BusFault_IRQn 0 */
  while (1)
 8001c5c:	bf00      	nop
 8001c5e:	e7fd      	b.n	8001c5c <BusFault_Handler+0x4>

08001c60 <UsageFault_Handler>:

/**
  * @brief This function handles Undefined instruction or illegal state.
  */
void UsageFault_Handler(void)
{
 8001c60:	b480      	push	{r7}
 8001c62:	af00      	add	r7, sp, #0
  /* USER CODE BEGIN UsageFault_IRQn 0 */

  /* USER CODE END UsageFault_IRQn 0 */
  while (1)
 8001c64:	bf00      	nop
 8001c66:	e7fd      	b.n	8001c64 <UsageFault_Handler+0x4>

08001c68 <SVC_Handler>:

/**
  * @brief This function handles System service call via SWI instruction.
  */
void SVC_Handler(void)
{
 8001c68:	b480      	push	{r7}
 8001c6a:	af00      	add	r7, sp, #0

  /* USER CODE END SVCall_IRQn 0 */
  /* USER CODE BEGIN SVCall_IRQn 1 */

  /* USER CODE END SVCall_IRQn 1 */
}
 8001c6c:	bf00      	nop
 8001c6e:	46bd      	mov	sp, r7
 8001c70:	f85d 7b04 	ldr.w	r7, [sp], #4
 8001c74:	4770      	bx	lr

08001c76 <DebugMon_Handler>:

/**
  * @brief This function handles Debug monitor.
  */
void DebugMon_Handler(void)
{
 8001c76:	b480      	push	{r7}
 8001c78:	af00      	add	r7, sp, #0

  /* USER CODE END DebugMonitor_IRQn 0 */
  /* USER CODE BEGIN DebugMonitor_IRQn 1 */

  /* USER CODE END DebugMonitor_IRQn 1 */
}
 8001c7a:	bf00      	nop
 8001c7c:	46bd      	mov	sp, r7
 8001c7e:	f85d 7b04 	ldr.w	r7, [sp], #4
 8001c82:	4770      	bx	lr

08001c84 <PendSV_Handler>:

/**
  * @brief This function handles Pendable request for system service.
  */
void PendSV_Handler(void)
{
 8001c84:	b480      	push	{r7}
 8001c86:	af00      	add	r7, sp, #0

  /* USER CODE END PendSV_IRQn 0 */
  /* USER CODE BEGIN PendSV_IRQn 1 */

  /* USER CODE END PendSV_IRQn 1 */
}
 8001c88:	bf00      	nop
 8001c8a:	46bd      	mov	sp, r7
 8001c8c:	f85d 7b04 	ldr.w	r7, [sp], #4
 8001c90:	4770      	bx	lr

08001c92 <SysTick_Handler>:

/**
  * @brief This function handles System tick timer.
  */
void SysTick_Handler(void)
{
 8001c92:	b580      	push	{r7, lr}
 8001c94:	af00      	add	r7, sp, #0
  /* USER CODE BEGIN SysTick_IRQn 0 */

  /* USER CODE END SysTick_IRQn 0 */
  HAL_IncTick();
 8001c96:	f000 f8c5 	bl	8001e24 <HAL_IncTick>
  /* USER CODE BEGIN SysTick_IRQn 1 */

  /* USER CODE END SysTick_IRQn 1 */
}
 8001c9a:	bf00      	nop
 8001c9c:	bd80      	pop	{r7, pc}
	...

08001ca0 <CAN1_RX0_IRQHandler>:

/**
  * @brief This function handles CAN1 RX0 interrupts.
  */
void CAN1_RX0_IRQHandler(void)
{
 8001ca0:	b580      	push	{r7, lr}
 8001ca2:	af00      	add	r7, sp, #0
  /* USER CODE BEGIN CAN1_RX0_IRQn 0 */

  /* USER CODE END CAN1_RX0_IRQn 0 */
  HAL_CAN_IRQHandler(&hcan1);
 8001ca4:	4802      	ldr	r0, [pc, #8]	@ (8001cb0 <CAN1_RX0_IRQHandler+0x10>)
 8001ca6:	f000 fd6e 	bl	8002786 <HAL_CAN_IRQHandler>
  /* USER CODE BEGIN CAN1_RX0_IRQn 1 */

  /* USER CODE END CAN1_RX0_IRQn 1 */
}
 8001caa:	bf00      	nop
 8001cac:	bd80      	pop	{r7, pc}
 8001cae:	bf00      	nop
 8001cb0:	20000120 	.word	0x20000120

08001cb4 <USART1_IRQHandler>:

/**
  * @brief This function handles USART1 global interrupt.
  */
void USART1_IRQHandler(void)
{
 8001cb4:	b580      	push	{r7, lr}
 8001cb6:	af00      	add	r7, sp, #0
  /* USER CODE BEGIN USART1_IRQn 0 */

  /* USER CODE END USART1_IRQn 0 */
  HAL_UART_IRQHandler(&huart1);
 8001cb8:	4802      	ldr	r0, [pc, #8]	@ (8001cc4 <USART1_IRQHandler+0x10>)
 8001cba:	f002 fd25 	bl	8004708 <HAL_UART_IRQHandler>
  /* USER CODE BEGIN USART1_IRQn 1 */

  /* USER CODE END USART1_IRQn 1 */
}
 8001cbe:	bf00      	nop
 8001cc0:	bd80      	pop	{r7, pc}
 8001cc2:	bf00      	nop
 8001cc4:	20000148 	.word	0x20000148

08001cc8 <_sbrk>:
 *
 * @param incr Memory size
 * @return Pointer to allocated memory
 */
void *_sbrk(ptrdiff_t incr)
{
 8001cc8:	b580      	push	{r7, lr}
 8001cca:	b086      	sub	sp, #24
 8001ccc:	af00      	add	r7, sp, #0
 8001cce:	6078      	str	r0, [r7, #4]
  extern uint8_t _end; /* Symbol defined in the linker script */
  extern uint8_t _estack; /* Symbol defined in the linker script */
  extern uint32_t _Min_Stack_Size; /* Symbol defined in the linker script */
  const uint32_t stack_limit = (uint32_t)&_estack - (uint32_t)&_Min_Stack_Size;
 8001cd0:	4a14      	ldr	r2, [pc, #80]	@ (8001d24 <_sbrk+0x5c>)
 8001cd2:	4b15      	ldr	r3, [pc, #84]	@ (8001d28 <_sbrk+0x60>)
 8001cd4:	1ad3      	subs	r3, r2, r3
 8001cd6:	617b      	str	r3, [r7, #20]
  const uint8_t *max_heap = (uint8_t *)stack_limit;
 8001cd8:	697b      	ldr	r3, [r7, #20]
 8001cda:	613b      	str	r3, [r7, #16]
  uint8_t *prev_heap_end;

  /* Initialize heap end at first call */
  if (NULL == __sbrk_heap_end)
 8001cdc:	4b13      	ldr	r3, [pc, #76]	@ (8001d2c <_sbrk+0x64>)
 8001cde:	681b      	ldr	r3, [r3, #0]
 8001ce0:	2b00      	cmp	r3, #0
 8001ce2:	d102      	bne.n	8001cea <_sbrk+0x22>
  {
    __sbrk_heap_end = &_end;
 8001ce4:	4b11      	ldr	r3, [pc, #68]	@ (8001d2c <_sbrk+0x64>)
 8001ce6:	4a12      	ldr	r2, [pc, #72]	@ (8001d30 <_sbrk+0x68>)
 8001ce8:	601a      	str	r2, [r3, #0]
  }

  /* Protect heap from growing into the reserved MSP stack */
  if (__sbrk_heap_end + incr > max_heap)
 8001cea:	4b10      	ldr	r3, [pc, #64]	@ (8001d2c <_sbrk+0x64>)
 8001cec:	681a      	ldr	r2, [r3, #0]
 8001cee:	687b      	ldr	r3, [r7, #4]
 8001cf0:	4413      	add	r3, r2
 8001cf2:	693a      	ldr	r2, [r7, #16]
 8001cf4:	429a      	cmp	r2, r3
 8001cf6:	d207      	bcs.n	8001d08 <_sbrk+0x40>
  {
    errno = ENOMEM;
 8001cf8:	f003 ff3a 	bl	8005b70 <__errno>
 8001cfc:	4603      	mov	r3, r0
 8001cfe:	220c      	movs	r2, #12
 8001d00:	601a      	str	r2, [r3, #0]
    return (void *)-1;
 8001d02:	f04f 33ff 	mov.w	r3, #4294967295
 8001d06:	e009      	b.n	8001d1c <_sbrk+0x54>
  }

  prev_heap_end = __sbrk_heap_end;
 8001d08:	4b08      	ldr	r3, [pc, #32]	@ (8001d2c <_sbrk+0x64>)
 8001d0a:	681b      	ldr	r3, [r3, #0]
 8001d0c:	60fb      	str	r3, [r7, #12]
  __sbrk_heap_end += incr;
 8001d0e:	4b07      	ldr	r3, [pc, #28]	@ (8001d2c <_sbrk+0x64>)
 8001d10:	681a      	ldr	r2, [r3, #0]
 8001d12:	687b      	ldr	r3, [r7, #4]
 8001d14:	4413      	add	r3, r2
 8001d16:	4a05      	ldr	r2, [pc, #20]	@ (8001d2c <_sbrk+0x64>)
 8001d18:	6013      	str	r3, [r2, #0]

  return (void *)prev_heap_end;
 8001d1a:	68fb      	ldr	r3, [r7, #12]
}
 8001d1c:	4618      	mov	r0, r3
 8001d1e:	3718      	adds	r7, #24
 8001d20:	46bd      	mov	sp, r7
 8001d22:	bd80      	pop	{r7, pc}
 8001d24:	20050000 	.word	0x20050000
 8001d28:	00000400 	.word	0x00000400
 8001d2c:	200001d0 	.word	0x200001d0
 8001d30:	20000320 	.word	0x20000320

08001d34 <SystemInit>:
  *         SystemFrequency variable.
  * @param  None
  * @retval None
  */
void SystemInit(void)
{
 8001d34:	b480      	push	{r7}
 8001d36:	af00      	add	r7, sp, #0
  /* FPU settings ------------------------------------------------------------*/
#if (__FPU_PRESENT == 1) && (__FPU_USED == 1)
  SCB->CPACR |= ((3UL << 10*2)|(3UL << 11*2));  /* set CP10 and CP11 Full Access */
 8001d38:	4b06      	ldr	r3, [pc, #24]	@ (8001d54 <SystemInit+0x20>)
 8001d3a:	f8d3 3088 	ldr.w	r3, [r3, #136]	@ 0x88
 8001d3e:	4a05      	ldr	r2, [pc, #20]	@ (8001d54 <SystemInit+0x20>)
 8001d40:	f443 0370 	orr.w	r3, r3, #15728640	@ 0xf00000
 8001d44:	f8c2 3088 	str.w	r3, [r2, #136]	@ 0x88

  /* Configure the Vector Table location -------------------------------------*/
#if defined(USER_VECT_TAB_ADDRESS)
  SCB->VTOR = VECT_TAB_BASE_ADDRESS | VECT_TAB_OFFSET; /* Vector Table Relocation in Internal SRAM */
#endif /* USER_VECT_TAB_ADDRESS */
}
 8001d48:	bf00      	nop
 8001d4a:	46bd      	mov	sp, r7
 8001d4c:	f85d 7b04 	ldr.w	r7, [sp], #4
 8001d50:	4770      	bx	lr
 8001d52:	bf00      	nop
 8001d54:	e000ed00 	.word	0xe000ed00

08001d58 <Reset_Handler>:

    .section  .text.Reset_Handler
  .weak  Reset_Handler
  .type  Reset_Handler, %function
Reset_Handler:  
  ldr   sp, =_estack      /* set stack pointer */
 8001d58:	f8df d034 	ldr.w	sp, [pc, #52]	@ 8001d90 <LoopFillZerobss+0xe>
  
/* Call the clock system initialization function.*/
  bl  SystemInit   
 8001d5c:	f7ff ffea 	bl	8001d34 <SystemInit>

/* Copy the data segment initializers from flash to SRAM */  
  ldr r0, =_sdata
 8001d60:	480c      	ldr	r0, [pc, #48]	@ (8001d94 <LoopFillZerobss+0x12>)
  ldr r1, =_edata
 8001d62:	490d      	ldr	r1, [pc, #52]	@ (8001d98 <LoopFillZerobss+0x16>)
  ldr r2, =_sidata
 8001d64:	4a0d      	ldr	r2, [pc, #52]	@ (8001d9c <LoopFillZerobss+0x1a>)
  movs r3, #0
 8001d66:	2300      	movs	r3, #0
  b LoopCopyDataInit
 8001d68:	e002      	b.n	8001d70 <LoopCopyDataInit>

08001d6a <CopyDataInit>:

CopyDataInit:
  ldr r4, [r2, r3]
 8001d6a:	58d4      	ldr	r4, [r2, r3]
  str r4, [r0, r3]
 8001d6c:	50c4      	str	r4, [r0, r3]
  adds r3, r3, #4
 8001d6e:	3304      	adds	r3, #4

08001d70 <LoopCopyDataInit>:

LoopCopyDataInit:
  adds r4, r0, r3
 8001d70:	18c4      	adds	r4, r0, r3
  cmp r4, r1
 8001d72:	428c      	cmp	r4, r1
  bcc CopyDataInit
 8001d74:	d3f9      	bcc.n	8001d6a <CopyDataInit>
  
/* Zero fill the bss segment. */
  ldr r2, =_sbss
 8001d76:	4a0a      	ldr	r2, [pc, #40]	@ (8001da0 <LoopFillZerobss+0x1e>)
  ldr r4, =_ebss
 8001d78:	4c0a      	ldr	r4, [pc, #40]	@ (8001da4 <LoopFillZerobss+0x22>)
  movs r3, #0
 8001d7a:	2300      	movs	r3, #0
  b LoopFillZerobss
 8001d7c:	e001      	b.n	8001d82 <LoopFillZerobss>

08001d7e <FillZerobss>:

FillZerobss:
  str  r3, [r2]
 8001d7e:	6013      	str	r3, [r2, #0]
  adds r2, r2, #4
 8001d80:	3204      	adds	r2, #4

08001d82 <LoopFillZerobss>:

LoopFillZerobss:
  cmp r2, r4
 8001d82:	42a2      	cmp	r2, r4
  bcc FillZerobss
 8001d84:	d3fb      	bcc.n	8001d7e <FillZerobss>
  
/* Call static constructors */
    bl __libc_init_array
 8001d86:	f003 fef9 	bl	8005b7c <__libc_init_array>
/* Call the application's entry point.*/
  bl  main
 8001d8a:	f7ff fcf7 	bl	800177c <main>
  bx  lr    
 8001d8e:	4770      	bx	lr
  ldr   sp, =_estack      /* set stack pointer */
 8001d90:	20050000 	.word	0x20050000
  ldr r0, =_sdata
 8001d94:	20000000 	.word	0x20000000
  ldr r1, =_edata
 8001d98:	2000005c 	.word	0x2000005c
  ldr r2, =_sidata
 8001d9c:	08007044 	.word	0x08007044
  ldr r2, =_sbss
 8001da0:	2000005c 	.word	0x2000005c
  ldr r4, =_ebss
 8001da4:	20000320 	.word	0x20000320

08001da8 <ADC_IRQHandler>:
 * @retval None       
*/
    .section  .text.Default_Handler,"ax",%progbits
Default_Handler:
Infinite_Loop:
  b  Infinite_Loop
 8001da8:	e7fe      	b.n	8001da8 <ADC_IRQHandler>

08001daa <HAL_Init>:
  *         need to ensure that the SysTick time base is always set to 1 millisecond
  *         to have correct HAL operation.
  * @retval HAL status
  */
HAL_StatusTypeDef HAL_Init(void)
{
 8001daa:	b580      	push	{r7, lr}
 8001dac:	af00      	add	r7, sp, #0
#if (PREFETCH_ENABLE != 0U)
  __HAL_FLASH_PREFETCH_BUFFER_ENABLE();
#endif /* PREFETCH_ENABLE */

  /* Set Interrupt Group Priority */
  HAL_NVIC_SetPriorityGrouping(NVIC_PRIORITYGROUP_4);
 8001dae:	2003      	movs	r0, #3
 8001db0:	f001 f81c 	bl	8002dec <HAL_NVIC_SetPriorityGrouping>

  /* Use systick as time base source and configure 1ms tick (default clock after Reset is HSI) */
  HAL_InitTick(TICK_INT_PRIORITY);
 8001db4:	200f      	movs	r0, #15
 8001db6:	f000 f805 	bl	8001dc4 <HAL_InitTick>

  /* Init the low level hardware */
  HAL_MspInit();
 8001dba:	f7ff fe4b 	bl	8001a54 <HAL_MspInit>

  /* Return function status */
  return HAL_OK;
 8001dbe:	2300      	movs	r3, #0
}
 8001dc0:	4618      	mov	r0, r3
 8001dc2:	bd80      	pop	{r7, pc}

08001dc4 <HAL_InitTick>:
  *       implementation  in user file.
  * @param TickPriority Tick interrupt priority.
  * @retval HAL status
  */
__weak HAL_StatusTypeDef HAL_InitTick(uint32_t TickPriority)
{
 8001dc4:	b580      	push	{r7, lr}
 8001dc6:	b082      	sub	sp, #8
 8001dc8:	af00      	add	r7, sp, #0
 8001dca:	6078      	str	r0, [r7, #4]
  /* Configure the SysTick to have interrupt in 1ms time basis*/
  if (HAL_SYSTICK_Config(SystemCoreClock / (1000U / uwTickFreq)) > 0U)
 8001dcc:	4b12      	ldr	r3, [pc, #72]	@ (8001e18 <HAL_InitTick+0x54>)
 8001dce:	681a      	ldr	r2, [r3, #0]
 8001dd0:	4b12      	ldr	r3, [pc, #72]	@ (8001e1c <HAL_InitTick+0x58>)
 8001dd2:	781b      	ldrb	r3, [r3, #0]
 8001dd4:	4619      	mov	r1, r3
 8001dd6:	f44f 737a 	mov.w	r3, #1000	@ 0x3e8
 8001dda:	fbb3 f3f1 	udiv	r3, r3, r1
 8001dde:	fbb2 f3f3 	udiv	r3, r2, r3
 8001de2:	4618      	mov	r0, r3
 8001de4:	f001 f837 	bl	8002e56 <HAL_SYSTICK_Config>
 8001de8:	4603      	mov	r3, r0
 8001dea:	2b00      	cmp	r3, #0
 8001dec:	d001      	beq.n	8001df2 <HAL_InitTick+0x2e>
  {
    return HAL_ERROR;
 8001dee:	2301      	movs	r3, #1
 8001df0:	e00e      	b.n	8001e10 <HAL_InitTick+0x4c>
  }

  /* Configure the SysTick IRQ priority */
  if (TickPriority < (1UL << __NVIC_PRIO_BITS))
 8001df2:	687b      	ldr	r3, [r7, #4]
 8001df4:	2b0f      	cmp	r3, #15
 8001df6:	d80a      	bhi.n	8001e0e <HAL_InitTick+0x4a>
  {
    HAL_NVIC_SetPriority(SysTick_IRQn, TickPriority, 0U);
 8001df8:	2200      	movs	r2, #0
 8001dfa:	6879      	ldr	r1, [r7, #4]
 8001dfc:	f04f 30ff 	mov.w	r0, #4294967295
 8001e00:	f000 ffff 	bl	8002e02 <HAL_NVIC_SetPriority>
    uwTickPrio = TickPriority;
 8001e04:	4a06      	ldr	r2, [pc, #24]	@ (8001e20 <HAL_InitTick+0x5c>)
 8001e06:	687b      	ldr	r3, [r7, #4]
 8001e08:	6013      	str	r3, [r2, #0]
  {
    return HAL_ERROR;
  }

  /* Return function status */
  return HAL_OK;
 8001e0a:	2300      	movs	r3, #0
 8001e0c:	e000      	b.n	8001e10 <HAL_InitTick+0x4c>
    return HAL_ERROR;
 8001e0e:	2301      	movs	r3, #1
}
 8001e10:	4618      	mov	r0, r3
 8001e12:	3708      	adds	r7, #8
 8001e14:	46bd      	mov	sp, r7
 8001e16:	bd80      	pop	{r7, pc}
 8001e18:	20000000 	.word	0x20000000
 8001e1c:	20000008 	.word	0x20000008
 8001e20:	20000004 	.word	0x20000004

08001e24 <HAL_IncTick>:
 * @note This function is declared as __weak to be overwritten in case of other 
  *      implementations in user file.
  * @retval None
  */
__weak void HAL_IncTick(void)
{
 8001e24:	b480      	push	{r7}
 8001e26:	af00      	add	r7, sp, #0
  uwTick += uwTickFreq;
 8001e28:	4b06      	ldr	r3, [pc, #24]	@ (8001e44 <HAL_IncTick+0x20>)
 8001e2a:	781b      	ldrb	r3, [r3, #0]
 8001e2c:	461a      	mov	r2, r3
 8001e2e:	4b06      	ldr	r3, [pc, #24]	@ (8001e48 <HAL_IncTick+0x24>)
 8001e30:	681b      	ldr	r3, [r3, #0]
 8001e32:	4413      	add	r3, r2
 8001e34:	4a04      	ldr	r2, [pc, #16]	@ (8001e48 <HAL_IncTick+0x24>)
 8001e36:	6013      	str	r3, [r2, #0]
}
 8001e38:	bf00      	nop
 8001e3a:	46bd      	mov	sp, r7
 8001e3c:	f85d 7b04 	ldr.w	r7, [sp], #4
 8001e40:	4770      	bx	lr
 8001e42:	bf00      	nop
 8001e44:	20000008 	.word	0x20000008
 8001e48:	200001d4 	.word	0x200001d4

08001e4c <HAL_GetTick>:
  * @note This function is declared as __weak to be overwritten in case of other 
  *       implementations in user file.
  * @retval tick value
  */
__weak uint32_t HAL_GetTick(void)
{
 8001e4c:	b480      	push	{r7}
 8001e4e:	af00      	add	r7, sp, #0
  return uwTick;
 8001e50:	4b03      	ldr	r3, [pc, #12]	@ (8001e60 <HAL_GetTick+0x14>)
 8001e52:	681b      	ldr	r3, [r3, #0]
}
 8001e54:	4618      	mov	r0, r3
 8001e56:	46bd      	mov	sp, r7
 8001e58:	f85d 7b04 	ldr.w	r7, [sp], #4
 8001e5c:	4770      	bx	lr
 8001e5e:	bf00      	nop
 8001e60:	200001d4 	.word	0x200001d4

08001e64 <HAL_Delay>:
  *       implementations in user file.
  * @param Delay  specifies the delay time length, in milliseconds.
  * @retval None
  */
__weak void HAL_Delay(uint32_t Delay)
{
 8001e64:	b580      	push	{r7, lr}
 8001e66:	b084      	sub	sp, #16
 8001e68:	af00      	add	r7, sp, #0
 8001e6a:	6078      	str	r0, [r7, #4]
  uint32_t tickstart = HAL_GetTick();
 8001e6c:	f7ff ffee 	bl	8001e4c <HAL_GetTick>
 8001e70:	60b8      	str	r0, [r7, #8]
  uint32_t wait = Delay;
 8001e72:	687b      	ldr	r3, [r7, #4]
 8001e74:	60fb      	str	r3, [r7, #12]

  /* Add a freq to guarantee minimum wait */
  if (wait < HAL_MAX_DELAY)
 8001e76:	68fb      	ldr	r3, [r7, #12]
 8001e78:	f1b3 3fff 	cmp.w	r3, #4294967295
 8001e7c:	d005      	beq.n	8001e8a <HAL_Delay+0x26>
  {
    wait += (uint32_t)(uwTickFreq);
 8001e7e:	4b0a      	ldr	r3, [pc, #40]	@ (8001ea8 <HAL_Delay+0x44>)
 8001e80:	781b      	ldrb	r3, [r3, #0]
 8001e82:	461a      	mov	r2, r3
 8001e84:	68fb      	ldr	r3, [r7, #12]
 8001e86:	4413      	add	r3, r2
 8001e88:	60fb      	str	r3, [r7, #12]
  }

  while ((HAL_GetTick() - tickstart) < wait)
 8001e8a:	bf00      	nop
 8001e8c:	f7ff ffde 	bl	8001e4c <HAL_GetTick>
 8001e90:	4602      	mov	r2, r0
 8001e92:	68bb      	ldr	r3, [r7, #8]
 8001e94:	1ad3      	subs	r3, r2, r3
 8001e96:	68fa      	ldr	r2, [r7, #12]
 8001e98:	429a      	cmp	r2, r3
 8001e9a:	d8f7      	bhi.n	8001e8c <HAL_Delay+0x28>
  {
  }
}
 8001e9c:	bf00      	nop
 8001e9e:	bf00      	nop
 8001ea0:	3710      	adds	r7, #16
 8001ea2:	46bd      	mov	sp, r7
 8001ea4:	bd80      	pop	{r7, pc}
 8001ea6:	bf00      	nop
 8001ea8:	20000008 	.word	0x20000008

08001eac <HAL_CAN_Init>:
  * @param  hcan pointer to a CAN_HandleTypeDef structure that contains
  *         the configuration information for the specified CAN.
  * @retval HAL status
  */
HAL_StatusTypeDef HAL_CAN_Init(CAN_HandleTypeDef *hcan)
{
 8001eac:	b580      	push	{r7, lr}
 8001eae:	b084      	sub	sp, #16
 8001eb0:	af00      	add	r7, sp, #0
 8001eb2:	6078      	str	r0, [r7, #4]
  uint32_t tickstart;

  /* Check CAN handle */
  if (hcan == NULL)
 8001eb4:	687b      	ldr	r3, [r7, #4]
 8001eb6:	2b00      	cmp	r3, #0
 8001eb8:	d101      	bne.n	8001ebe <HAL_CAN_Init+0x12>
  {
    return HAL_ERROR;
 8001eba:	2301      	movs	r3, #1
 8001ebc:	e0ed      	b.n	800209a <HAL_CAN_Init+0x1ee>
    /* Init the low level hardware: CLOCK, NVIC */
    hcan->MspInitCallback(hcan);
  }

#else
  if (hcan->State == HAL_CAN_STATE_RESET)
 8001ebe:	687b      	ldr	r3, [r7, #4]
 8001ec0:	f893 3020 	ldrb.w	r3, [r3, #32]
 8001ec4:	b2db      	uxtb	r3, r3
 8001ec6:	2b00      	cmp	r3, #0
 8001ec8:	d102      	bne.n	8001ed0 <HAL_CAN_Init+0x24>
  {
    /* Init the low level hardware: CLOCK, NVIC */
    HAL_CAN_MspInit(hcan);
 8001eca:	6878      	ldr	r0, [r7, #4]
 8001ecc:	f7ff fde6 	bl	8001a9c <HAL_CAN_MspInit>
  }
#endif /* USE_HAL_CAN_REGISTER_CALLBACKS */

  /* Request initialisation */
  SET_BIT(hcan->Instance->MCR, CAN_MCR_INRQ);
 8001ed0:	687b      	ldr	r3, [r7, #4]
 8001ed2:	681b      	ldr	r3, [r3, #0]
 8001ed4:	681a      	ldr	r2, [r3, #0]
 8001ed6:	687b      	ldr	r3, [r7, #4]
 8001ed8:	681b      	ldr	r3, [r3, #0]
 8001eda:	f042 0201 	orr.w	r2, r2, #1
 8001ede:	601a      	str	r2, [r3, #0]

  /* Get tick */
  tickstart = HAL_GetTick();
 8001ee0:	f7ff ffb4 	bl	8001e4c <HAL_GetTick>
 8001ee4:	60f8      	str	r0, [r7, #12]

  /* Wait initialisation acknowledge */
  while ((hcan->Instance->MSR & CAN_MSR_INAK) == 0U)
 8001ee6:	e012      	b.n	8001f0e <HAL_CAN_Init+0x62>
  {
    if ((HAL_GetTick() - tickstart) > CAN_TIMEOUT_VALUE)
 8001ee8:	f7ff ffb0 	bl	8001e4c <HAL_GetTick>
 8001eec:	4602      	mov	r2, r0
 8001eee:	68fb      	ldr	r3, [r7, #12]
 8001ef0:	1ad3      	subs	r3, r2, r3
 8001ef2:	2b0a      	cmp	r3, #10
 8001ef4:	d90b      	bls.n	8001f0e <HAL_CAN_Init+0x62>
    {
      /* Update error code */
      hcan->ErrorCode |= HAL_CAN_ERROR_TIMEOUT;
 8001ef6:	687b      	ldr	r3, [r7, #4]
 8001ef8:	6a5b      	ldr	r3, [r3, #36]	@ 0x24
 8001efa:	f443 3200 	orr.w	r2, r3, #131072	@ 0x20000
 8001efe:	687b      	ldr	r3, [r7, #4]
 8001f00:	625a      	str	r2, [r3, #36]	@ 0x24

      /* Change CAN state */
      hcan->State = HAL_CAN_STATE_ERROR;
 8001f02:	687b      	ldr	r3, [r7, #4]
 8001f04:	2205      	movs	r2, #5
 8001f06:	f883 2020 	strb.w	r2, [r3, #32]

      return HAL_ERROR;
 8001f0a:	2301      	movs	r3, #1
 8001f0c:	e0c5      	b.n	800209a <HAL_CAN_Init+0x1ee>
  while ((hcan->Instance->MSR & CAN_MSR_INAK) == 0U)
 8001f0e:	687b      	ldr	r3, [r7, #4]
 8001f10:	681b      	ldr	r3, [r3, #0]
 8001f12:	685b      	ldr	r3, [r3, #4]
 8001f14:	f003 0301 	and.w	r3, r3, #1
 8001f18:	2b00      	cmp	r3, #0
 8001f1a:	d0e5      	beq.n	8001ee8 <HAL_CAN_Init+0x3c>
    }
  }

  /* Exit from sleep mode */
  CLEAR_BIT(hcan->Instance->MCR, CAN_MCR_SLEEP);
 8001f1c:	687b      	ldr	r3, [r7, #4]
 8001f1e:	681b      	ldr	r3, [r3, #0]
 8001f20:	681a      	ldr	r2, [r3, #0]
 8001f22:	687b      	ldr	r3, [r7, #4]
 8001f24:	681b      	ldr	r3, [r3, #0]
 8001f26:	f022 0202 	bic.w	r2, r2, #2
 8001f2a:	601a      	str	r2, [r3, #0]

  /* Get tick */
  tickstart = HAL_GetTick();
 8001f2c:	f7ff ff8e 	bl	8001e4c <HAL_GetTick>
 8001f30:	60f8      	str	r0, [r7, #12]

  /* Check Sleep mode leave acknowledge */
  while ((hcan->Instance->MSR & CAN_MSR_SLAK) != 0U)
 8001f32:	e012      	b.n	8001f5a <HAL_CAN_Init+0xae>
  {
    if ((HAL_GetTick() - tickstart) > CAN_TIMEOUT_VALUE)
 8001f34:	f7ff ff8a 	bl	8001e4c <HAL_GetTick>
 8001f38:	4602      	mov	r2, r0
 8001f3a:	68fb      	ldr	r3, [r7, #12]
 8001f3c:	1ad3      	subs	r3, r2, r3
 8001f3e:	2b0a      	cmp	r3, #10
 8001f40:	d90b      	bls.n	8001f5a <HAL_CAN_Init+0xae>
    {
      /* Update error code */
      hcan->ErrorCode |= HAL_CAN_ERROR_TIMEOUT;
 8001f42:	687b      	ldr	r3, [r7, #4]
 8001f44:	6a5b      	ldr	r3, [r3, #36]	@ 0x24
 8001f46:	f443 3200 	orr.w	r2, r3, #131072	@ 0x20000
 8001f4a:	687b      	ldr	r3, [r7, #4]
 8001f4c:	625a      	str	r2, [r3, #36]	@ 0x24

      /* Change CAN state */
      hcan->State = HAL_CAN_STATE_ERROR;
 8001f4e:	687b      	ldr	r3, [r7, #4]
 8001f50:	2205      	movs	r2, #5
 8001f52:	f883 2020 	strb.w	r2, [r3, #32]

      return HAL_ERROR;
 8001f56:	2301      	movs	r3, #1
 8001f58:	e09f      	b.n	800209a <HAL_CAN_Init+0x1ee>
  while ((hcan->Instance->MSR & CAN_MSR_SLAK) != 0U)
 8001f5a:	687b      	ldr	r3, [r7, #4]
 8001f5c:	681b      	ldr	r3, [r3, #0]
 8001f5e:	685b      	ldr	r3, [r3, #4]
 8001f60:	f003 0302 	and.w	r3, r3, #2
 8001f64:	2b00      	cmp	r3, #0
 8001f66:	d1e5      	bne.n	8001f34 <HAL_CAN_Init+0x88>
    }
  }

  /* Set the time triggered communication mode */
  if (hcan->Init.TimeTriggeredMode == ENABLE)
 8001f68:	687b      	ldr	r3, [r7, #4]
 8001f6a:	7e1b      	ldrb	r3, [r3, #24]
 8001f6c:	2b01      	cmp	r3, #1
 8001f6e:	d108      	bne.n	8001f82 <HAL_CAN_Init+0xd6>
  {
    SET_BIT(hcan->Instance->MCR, CAN_MCR_TTCM);
 8001f70:	687b      	ldr	r3, [r7, #4]
 8001f72:	681b      	ldr	r3, [r3, #0]
 8001f74:	681a      	ldr	r2, [r3, #0]
 8001f76:	687b      	ldr	r3, [r7, #4]
 8001f78:	681b      	ldr	r3, [r3, #0]
 8001f7a:	f042 0280 	orr.w	r2, r2, #128	@ 0x80
 8001f7e:	601a      	str	r2, [r3, #0]
 8001f80:	e007      	b.n	8001f92 <HAL_CAN_Init+0xe6>
  }
  else
  {
    CLEAR_BIT(hcan->Instance->MCR, CAN_MCR_TTCM);
 8001f82:	687b      	ldr	r3, [r7, #4]
 8001f84:	681b      	ldr	r3, [r3, #0]
 8001f86:	681a      	ldr	r2, [r3, #0]
 8001f88:	687b      	ldr	r3, [r7, #4]
 8001f8a:	681b      	ldr	r3, [r3, #0]
 8001f8c:	f022 0280 	bic.w	r2, r2, #128	@ 0x80
 8001f90:	601a      	str	r2, [r3, #0]
  }

  /* Set the automatic bus-off management */
  if (hcan->Init.AutoBusOff == ENABLE)
 8001f92:	687b      	ldr	r3, [r7, #4]
 8001f94:	7e5b      	ldrb	r3, [r3, #25]
 8001f96:	2b01      	cmp	r3, #1
 8001f98:	d108      	bne.n	8001fac <HAL_CAN_Init+0x100>
  {
    SET_BIT(hcan->Instance->MCR, CAN_MCR_ABOM);
 8001f9a:	687b      	ldr	r3, [r7, #4]
 8001f9c:	681b      	ldr	r3, [r3, #0]
 8001f9e:	681a      	ldr	r2, [r3, #0]
 8001fa0:	687b      	ldr	r3, [r7, #4]
 8001fa2:	681b      	ldr	r3, [r3, #0]
 8001fa4:	f042 0240 	orr.w	r2, r2, #64	@ 0x40
 8001fa8:	601a      	str	r2, [r3, #0]
 8001faa:	e007      	b.n	8001fbc <HAL_CAN_Init+0x110>
  }
  else
  {
    CLEAR_BIT(hcan->Instance->MCR, CAN_MCR_ABOM);
 8001fac:	687b      	ldr	r3, [r7, #4]
 8001fae:	681b      	ldr	r3, [r3, #0]
 8001fb0:	681a      	ldr	r2, [r3, #0]
 8001fb2:	687b      	ldr	r3, [r7, #4]
 8001fb4:	681b      	ldr	r3, [r3, #0]
 8001fb6:	f022 0240 	bic.w	r2, r2, #64	@ 0x40
 8001fba:	601a      	str	r2, [r3, #0]
  }

  /* Set the automatic wake-up mode */
  if (hcan->Init.AutoWakeUp == ENABLE)
 8001fbc:	687b      	ldr	r3, [r7, #4]
 8001fbe:	7e9b      	ldrb	r3, [r3, #26]
 8001fc0:	2b01      	cmp	r3, #1
 8001fc2:	d108      	bne.n	8001fd6 <HAL_CAN_Init+0x12a>
  {
    SET_BIT(hcan->Instance->MCR, CAN_MCR_AWUM);
 8001fc4:	687b      	ldr	r3, [r7, #4]
 8001fc6:	681b      	ldr	r3, [r3, #0]
 8001fc8:	681a      	ldr	r2, [r3, #0]
 8001fca:	687b      	ldr	r3, [r7, #4]
 8001fcc:	681b      	ldr	r3, [r3, #0]
 8001fce:	f042 0220 	orr.w	r2, r2, #32
 8001fd2:	601a      	str	r2, [r3, #0]
 8001fd4:	e007      	b.n	8001fe6 <HAL_CAN_Init+0x13a>
  }
  else
  {
    CLEAR_BIT(hcan->Instance->MCR, CAN_MCR_AWUM);
 8001fd6:	687b      	ldr	r3, [r7, #4]
 8001fd8:	681b      	ldr	r3, [r3, #0]
 8001fda:	681a      	ldr	r2, [r3, #0]
 8001fdc:	687b      	ldr	r3, [r7, #4]
 8001fde:	681b      	ldr	r3, [r3, #0]
 8001fe0:	f022 0220 	bic.w	r2, r2, #32
 8001fe4:	601a      	str	r2, [r3, #0]
  }

  /* Set the automatic retransmission */
  if (hcan->Init.AutoRetransmission == ENABLE)
 8001fe6:	687b      	ldr	r3, [r7, #4]
 8001fe8:	7edb      	ldrb	r3, [r3, #27]
 8001fea:	2b01      	cmp	r3, #1
 8001fec:	d108      	bne.n	8002000 <HAL_CAN_Init+0x154>
  {
    CLEAR_BIT(hcan->Instance->MCR, CAN_MCR_NART);
 8001fee:	687b      	ldr	r3, [r7, #4]
 8001ff0:	681b      	ldr	r3, [r3, #0]
 8001ff2:	681a      	ldr	r2, [r3, #0]
 8001ff4:	687b      	ldr	r3, [r7, #4]
 8001ff6:	681b      	ldr	r3, [r3, #0]
 8001ff8:	f022 0210 	bic.w	r2, r2, #16
 8001ffc:	601a      	str	r2, [r3, #0]
 8001ffe:	e007      	b.n	8002010 <HAL_CAN_Init+0x164>
  }
  else
  {
    SET_BIT(hcan->Instance->MCR, CAN_MCR_NART);
 8002000:	687b      	ldr	r3, [r7, #4]
 8002002:	681b      	ldr	r3, [r3, #0]
 8002004:	681a      	ldr	r2, [r3, #0]
 8002006:	687b      	ldr	r3, [r7, #4]
 8002008:	681b      	ldr	r3, [r3, #0]
 800200a:	f042 0210 	orr.w	r2, r2, #16
 800200e:	601a      	str	r2, [r3, #0]
  }

  /* Set the receive FIFO locked mode */
  if (hcan->Init.ReceiveFifoLocked == ENABLE)
 8002010:	687b      	ldr	r3, [r7, #4]
 8002012:	7f1b      	ldrb	r3, [r3, #28]
 8002014:	2b01      	cmp	r3, #1
 8002016:	d108      	bne.n	800202a <HAL_CAN_Init+0x17e>
  {
    SET_BIT(hcan->Instance->MCR, CAN_MCR_RFLM);
 8002018:	687b      	ldr	r3, [r7, #4]
 800201a:	681b      	ldr	r3, [r3, #0]
 800201c:	681a      	ldr	r2, [r3, #0]
 800201e:	687b      	ldr	r3, [r7, #4]
 8002020:	681b      	ldr	r3, [r3, #0]
 8002022:	f042 0208 	orr.w	r2, r2, #8
 8002026:	601a      	str	r2, [r3, #0]
 8002028:	e007      	b.n	800203a <HAL_CAN_Init+0x18e>
  }
  else
  {
    CLEAR_BIT(hcan->Instance->MCR, CAN_MCR_RFLM);
 800202a:	687b      	ldr	r3, [r7, #4]
 800202c:	681b      	ldr	r3, [r3, #0]
 800202e:	681a      	ldr	r2, [r3, #0]
 8002030:	687b      	ldr	r3, [r7, #4]
 8002032:	681b      	ldr	r3, [r3, #0]
 8002034:	f022 0208 	bic.w	r2, r2, #8
 8002038:	601a      	str	r2, [r3, #0]
  }

  /* Set the transmit FIFO priority */
  if (hcan->Init.TransmitFifoPriority == ENABLE)
 800203a:	687b      	ldr	r3, [r7, #4]
 800203c:	7f5b      	ldrb	r3, [r3, #29]
 800203e:	2b01      	cmp	r3, #1
 8002040:	d108      	bne.n	8002054 <HAL_CAN_Init+0x1a8>
  {
    SET_BIT(hcan->Instance->MCR, CAN_MCR_TXFP);
 8002042:	687b      	ldr	r3, [r7, #4]
 8002044:	681b      	ldr	r3, [r3, #0]
 8002046:	681a      	ldr	r2, [r3, #0]
 8002048:	687b      	ldr	r3, [r7, #4]
 800204a:	681b      	ldr	r3, [r3, #0]
 800204c:	f042 0204 	orr.w	r2, r2, #4
 8002050:	601a      	str	r2, [r3, #0]
 8002052:	e007      	b.n	8002064 <HAL_CAN_Init+0x1b8>
  }
  else
  {
    CLEAR_BIT(hcan->Instance->MCR, CAN_MCR_TXFP);
 8002054:	687b      	ldr	r3, [r7, #4]
 8002056:	681b      	ldr	r3, [r3, #0]
 8002058:	681a      	ldr	r2, [r3, #0]
 800205a:	687b      	ldr	r3, [r7, #4]
 800205c:	681b      	ldr	r3, [r3, #0]
 800205e:	f022 0204 	bic.w	r2, r2, #4
 8002062:	601a      	str	r2, [r3, #0]
  }

  /* Set the bit timing register */
  WRITE_REG(hcan->Instance->BTR, (uint32_t)(hcan->Init.Mode           |
 8002064:	687b      	ldr	r3, [r7, #4]
 8002066:	689a      	ldr	r2, [r3, #8]
 8002068:	687b      	ldr	r3, [r7, #4]
 800206a:	68db      	ldr	r3, [r3, #12]
 800206c:	431a      	orrs	r2, r3
 800206e:	687b      	ldr	r3, [r7, #4]
 8002070:	691b      	ldr	r3, [r3, #16]
 8002072:	431a      	orrs	r2, r3
 8002074:	687b      	ldr	r3, [r7, #4]
 8002076:	695b      	ldr	r3, [r3, #20]
 8002078:	ea42 0103 	orr.w	r1, r2, r3
 800207c:	687b      	ldr	r3, [r7, #4]
 800207e:	685b      	ldr	r3, [r3, #4]
 8002080:	1e5a      	subs	r2, r3, #1
 8002082:	687b      	ldr	r3, [r7, #4]
 8002084:	681b      	ldr	r3, [r3, #0]
 8002086:	430a      	orrs	r2, r1
 8002088:	61da      	str	r2, [r3, #28]
                                            hcan->Init.TimeSeg1       |
                                            hcan->Init.TimeSeg2       |
                                            (hcan->Init.Prescaler - 1U)));

  /* Initialize the error code */
  hcan->ErrorCode = HAL_CAN_ERROR_NONE;
 800208a:	687b      	ldr	r3, [r7, #4]
 800208c:	2200      	movs	r2, #0
 800208e:	625a      	str	r2, [r3, #36]	@ 0x24

  /* Initialize the CAN state */
  hcan->State = HAL_CAN_STATE_READY;
 8002090:	687b      	ldr	r3, [r7, #4]
 8002092:	2201      	movs	r2, #1
 8002094:	f883 2020 	strb.w	r2, [r3, #32]

  /* Return function status */
  return HAL_OK;
 8002098:	2300      	movs	r3, #0
}
 800209a:	4618      	mov	r0, r3
 800209c:	3710      	adds	r7, #16
 800209e:	46bd      	mov	sp, r7
 80020a0:	bd80      	pop	{r7, pc}
	...

080020a4 <HAL_CAN_ConfigFilter>:
  * @param  sFilterConfig pointer to a CAN_FilterTypeDef structure that
  *         contains the filter configuration information.
  * @retval None
  */
HAL_StatusTypeDef HAL_CAN_ConfigFilter(CAN_HandleTypeDef *hcan, const CAN_FilterTypeDef *sFilterConfig)
{
 80020a4:	b480      	push	{r7}
 80020a6:	b087      	sub	sp, #28
 80020a8:	af00      	add	r7, sp, #0
 80020aa:	6078      	str	r0, [r7, #4]
 80020ac:	6039      	str	r1, [r7, #0]
  uint32_t filternbrbitpos;
  CAN_TypeDef *can_ip;
  HAL_CAN_StateTypeDef state = hcan->State;
 80020ae:	687b      	ldr	r3, [r7, #4]
 80020b0:	f893 3020 	ldrb.w	r3, [r3, #32]
 80020b4:	75fb      	strb	r3, [r7, #23]

  if ((state == HAL_CAN_STATE_READY) ||
 80020b6:	7dfb      	ldrb	r3, [r7, #23]
 80020b8:	2b01      	cmp	r3, #1
 80020ba:	d003      	beq.n	80020c4 <HAL_CAN_ConfigFilter+0x20>
 80020bc:	7dfb      	ldrb	r3, [r7, #23]
 80020be:	2b02      	cmp	r3, #2
 80020c0:	f040 80be 	bne.w	8002240 <HAL_CAN_ConfigFilter+0x19c>
      assert_param(IS_CAN_FILTER_BANK_DUAL(sFilterConfig->SlaveStartFilterBank));
    }
#elif defined(CAN2)
    /* CAN1 and CAN2 are dual instances with 28 common filters banks */
    /* Select master instance to access the filter banks */
    can_ip = CAN1;
 80020c4:	4b65      	ldr	r3, [pc, #404]	@ (800225c <HAL_CAN_ConfigFilter+0x1b8>)
 80020c6:	613b      	str	r3, [r7, #16]
    /* Check the parameters */
    assert_param(IS_CAN_FILTER_BANK_SINGLE(sFilterConfig->FilterBank));
#endif /* CAN3 */

    /* Initialisation mode for the filter */
    SET_BIT(can_ip->FMR, CAN_FMR_FINIT);
 80020c8:	693b      	ldr	r3, [r7, #16]
 80020ca:	f8d3 3200 	ldr.w	r3, [r3, #512]	@ 0x200
 80020ce:	f043 0201 	orr.w	r2, r3, #1
 80020d2:	693b      	ldr	r3, [r7, #16]
 80020d4:	f8c3 2200 	str.w	r2, [r3, #512]	@ 0x200
      SET_BIT(can_ip->FMR, sFilterConfig->SlaveStartFilterBank << CAN_FMR_CAN2SB_Pos);
    }

#elif defined(CAN2)
    /* Select the start filter number of CAN2 slave instance */
    CLEAR_BIT(can_ip->FMR, CAN_FMR_CAN2SB);
 80020d8:	693b      	ldr	r3, [r7, #16]
 80020da:	f8d3 3200 	ldr.w	r3, [r3, #512]	@ 0x200
 80020de:	f423 527c 	bic.w	r2, r3, #16128	@ 0x3f00
 80020e2:	693b      	ldr	r3, [r7, #16]
 80020e4:	f8c3 2200 	str.w	r2, [r3, #512]	@ 0x200
    SET_BIT(can_ip->FMR, sFilterConfig->SlaveStartFilterBank << CAN_FMR_CAN2SB_Pos);
 80020e8:	693b      	ldr	r3, [r7, #16]
 80020ea:	f8d3 2200 	ldr.w	r2, [r3, #512]	@ 0x200
 80020ee:	683b      	ldr	r3, [r7, #0]
 80020f0:	6a5b      	ldr	r3, [r3, #36]	@ 0x24
 80020f2:	021b      	lsls	r3, r3, #8
 80020f4:	431a      	orrs	r2, r3
 80020f6:	693b      	ldr	r3, [r7, #16]
 80020f8:	f8c3 2200 	str.w	r2, [r3, #512]	@ 0x200

#endif /* CAN3 */
    /* Convert filter number into bit position */
    filternbrbitpos = (uint32_t)1 << (sFilterConfig->FilterBank & 0x1FU);
 80020fc:	683b      	ldr	r3, [r7, #0]
 80020fe:	695b      	ldr	r3, [r3, #20]
 8002100:	f003 031f 	and.w	r3, r3, #31
 8002104:	2201      	movs	r2, #1
 8002106:	fa02 f303 	lsl.w	r3, r2, r3
 800210a:	60fb      	str	r3, [r7, #12]

    /* Filter Deactivation */
    CLEAR_BIT(can_ip->FA1R, filternbrbitpos);
 800210c:	693b      	ldr	r3, [r7, #16]
 800210e:	f8d3 221c 	ldr.w	r2, [r3, #540]	@ 0x21c
 8002112:	68fb      	ldr	r3, [r7, #12]
 8002114:	43db      	mvns	r3, r3
 8002116:	401a      	ands	r2, r3
 8002118:	693b      	ldr	r3, [r7, #16]
 800211a:	f8c3 221c 	str.w	r2, [r3, #540]	@ 0x21c

    /* Filter Scale */
    if (sFilterConfig->FilterScale == CAN_FILTERSCALE_16BIT)
 800211e:	683b      	ldr	r3, [r7, #0]
 8002120:	69db      	ldr	r3, [r3, #28]
 8002122:	2b00      	cmp	r3, #0
 8002124:	d123      	bne.n	800216e <HAL_CAN_ConfigFilter+0xca>
    {
      /* 16-bit scale for the filter */
      CLEAR_BIT(can_ip->FS1R, filternbrbitpos);
 8002126:	693b      	ldr	r3, [r7, #16]
 8002128:	f8d3 220c 	ldr.w	r2, [r3, #524]	@ 0x20c
 800212c:	68fb      	ldr	r3, [r7, #12]
 800212e:	43db      	mvns	r3, r3
 8002130:	401a      	ands	r2, r3
 8002132:	693b      	ldr	r3, [r7, #16]
 8002134:	f8c3 220c 	str.w	r2, [r3, #524]	@ 0x20c

      /* First 16-bit identifier and First 16-bit mask */
      /* Or First 16-bit identifier and Second 16-bit identifier */
      can_ip->sFilterRegister[sFilterConfig->FilterBank].FR1 =
        ((0x0000FFFFU & (uint32_t)sFilterConfig->FilterMaskIdLow) << 16U) |
 8002138:	683b      	ldr	r3, [r7, #0]
 800213a:	68db      	ldr	r3, [r3, #12]
 800213c:	0419      	lsls	r1, r3, #16
        (0x0000FFFFU & (uint32_t)sFilterConfig->FilterIdLow);
 800213e:	683b      	ldr	r3, [r7, #0]
 8002140:	685b      	ldr	r3, [r3, #4]
 8002142:	b29b      	uxth	r3, r3
      can_ip->sFilterRegister[sFilterConfig->FilterBank].FR1 =
 8002144:	683a      	ldr	r2, [r7, #0]
 8002146:	6952      	ldr	r2, [r2, #20]
        ((0x0000FFFFU & (uint32_t)sFilterConfig->FilterMaskIdLow) << 16U) |
 8002148:	4319      	orrs	r1, r3
      can_ip->sFilterRegister[sFilterConfig->FilterBank].FR1 =
 800214a:	693b      	ldr	r3, [r7, #16]
 800214c:	3248      	adds	r2, #72	@ 0x48
 800214e:	f843 1032 	str.w	r1, [r3, r2, lsl #3]

      /* Second 16-bit identifier and Second 16-bit mask */
      /* Or Third 16-bit identifier and Fourth 16-bit identifier */
      can_ip->sFilterRegister[sFilterConfig->FilterBank].FR2 =
        ((0x0000FFFFU & (uint32_t)sFilterConfig->FilterMaskIdHigh) << 16U) |
 8002152:	683b      	ldr	r3, [r7, #0]
 8002154:	689b      	ldr	r3, [r3, #8]
 8002156:	0419      	lsls	r1, r3, #16
        (0x0000FFFFU & (uint32_t)sFilterConfig->FilterIdHigh);
 8002158:	683b      	ldr	r3, [r7, #0]
 800215a:	681b      	ldr	r3, [r3, #0]
 800215c:	b29a      	uxth	r2, r3
      can_ip->sFilterRegister[sFilterConfig->FilterBank].FR2 =
 800215e:	683b      	ldr	r3, [r7, #0]
 8002160:	695b      	ldr	r3, [r3, #20]
        ((0x0000FFFFU & (uint32_t)sFilterConfig->FilterMaskIdHigh) << 16U) |
 8002162:	430a      	orrs	r2, r1
      can_ip->sFilterRegister[sFilterConfig->FilterBank].FR2 =
 8002164:	6939      	ldr	r1, [r7, #16]
 8002166:	3348      	adds	r3, #72	@ 0x48
 8002168:	00db      	lsls	r3, r3, #3
 800216a:	440b      	add	r3, r1
 800216c:	605a      	str	r2, [r3, #4]
    }

    if (sFilterConfig->FilterScale == CAN_FILTERSCALE_32BIT)
 800216e:	683b      	ldr	r3, [r7, #0]
 8002170:	69db      	ldr	r3, [r3, #28]
 8002172:	2b01      	cmp	r3, #1
 8002174:	d122      	bne.n	80021bc <HAL_CAN_ConfigFilter+0x118>
    {
      /* 32-bit scale for the filter */
      SET_BIT(can_ip->FS1R, filternbrbitpos);
 8002176:	693b      	ldr	r3, [r7, #16]
 8002178:	f8d3 220c 	ldr.w	r2, [r3, #524]	@ 0x20c
 800217c:	68fb      	ldr	r3, [r7, #12]
 800217e:	431a      	orrs	r2, r3
 8002180:	693b      	ldr	r3, [r7, #16]
 8002182:	f8c3 220c 	str.w	r2, [r3, #524]	@ 0x20c

      /* 32-bit identifier or First 32-bit identifier */
      can_ip->sFilterRegister[sFilterConfig->FilterBank].FR1 =
        ((0x0000FFFFU & (uint32_t)sFilterConfig->FilterIdHigh) << 16U) |
 8002186:	683b      	ldr	r3, [r7, #0]
 8002188:	681b      	ldr	r3, [r3, #0]
 800218a:	0419      	lsls	r1, r3, #16
        (0x0000FFFFU & (uint32_t)sFilterConfig->FilterIdLow);
 800218c:	683b      	ldr	r3, [r7, #0]
 800218e:	685b      	ldr	r3, [r3, #4]
 8002190:	b29b      	uxth	r3, r3
      can_ip->sFilterRegister[sFilterConfig->FilterBank].FR1 =
 8002192:	683a      	ldr	r2, [r7, #0]
 8002194:	6952      	ldr	r2, [r2, #20]
        ((0x0000FFFFU & (uint32_t)sFilterConfig->FilterIdHigh) << 16U) |
 8002196:	4319      	orrs	r1, r3
      can_ip->sFilterRegister[sFilterConfig->FilterBank].FR1 =
 8002198:	693b      	ldr	r3, [r7, #16]
 800219a:	3248      	adds	r2, #72	@ 0x48
 800219c:	f843 1032 	str.w	r1, [r3, r2, lsl #3]

      /* 32-bit mask or Second 32-bit identifier */
      can_ip->sFilterRegister[sFilterConfig->FilterBank].FR2 =
        ((0x0000FFFFU & (uint32_t)sFilterConfig->FilterMaskIdHigh) << 16U) |
 80021a0:	683b      	ldr	r3, [r7, #0]
 80021a2:	689b      	ldr	r3, [r3, #8]
 80021a4:	0419      	lsls	r1, r3, #16
        (0x0000FFFFU & (uint32_t)sFilterConfig->FilterMaskIdLow);
 80021a6:	683b      	ldr	r3, [r7, #0]
 80021a8:	68db      	ldr	r3, [r3, #12]
 80021aa:	b29a      	uxth	r2, r3
      can_ip->sFilterRegister[sFilterConfig->FilterBank].FR2 =
 80021ac:	683b      	ldr	r3, [r7, #0]
 80021ae:	695b      	ldr	r3, [r3, #20]
        ((0x0000FFFFU & (uint32_t)sFilterConfig->FilterMaskIdHigh) << 16U) |
 80021b0:	430a      	orrs	r2, r1
      can_ip->sFilterRegister[sFilterConfig->FilterBank].FR2 =
 80021b2:	6939      	ldr	r1, [r7, #16]
 80021b4:	3348      	adds	r3, #72	@ 0x48
 80021b6:	00db      	lsls	r3, r3, #3
 80021b8:	440b      	add	r3, r1
 80021ba:	605a      	str	r2, [r3, #4]
    }

    /* Filter Mode */
    if (sFilterConfig->FilterMode == CAN_FILTERMODE_IDMASK)
 80021bc:	683b      	ldr	r3, [r7, #0]
 80021be:	699b      	ldr	r3, [r3, #24]
 80021c0:	2b00      	cmp	r3, #0
 80021c2:	d109      	bne.n	80021d8 <HAL_CAN_ConfigFilter+0x134>
    {
      /* Id/Mask mode for the filter*/
      CLEAR_BIT(can_ip->FM1R, filternbrbitpos);
 80021c4:	693b      	ldr	r3, [r7, #16]
 80021c6:	f8d3 2204 	ldr.w	r2, [r3, #516]	@ 0x204
 80021ca:	68fb      	ldr	r3, [r7, #12]
 80021cc:	43db      	mvns	r3, r3
 80021ce:	401a      	ands	r2, r3
 80021d0:	693b      	ldr	r3, [r7, #16]
 80021d2:	f8c3 2204 	str.w	r2, [r3, #516]	@ 0x204
 80021d6:	e007      	b.n	80021e8 <HAL_CAN_ConfigFilter+0x144>
    }
    else /* CAN_FilterInitStruct->CAN_FilterMode == CAN_FilterMode_IdList */
    {
      /* Identifier list mode for the filter*/
      SET_BIT(can_ip->FM1R, filternbrbitpos);
 80021d8:	693b      	ldr	r3, [r7, #16]
 80021da:	f8d3 2204 	ldr.w	r2, [r3, #516]	@ 0x204
 80021de:	68fb      	ldr	r3, [r7, #12]
 80021e0:	431a      	orrs	r2, r3
 80021e2:	693b      	ldr	r3, [r7, #16]
 80021e4:	f8c3 2204 	str.w	r2, [r3, #516]	@ 0x204
    }

    /* Filter FIFO assignment */
    if (sFilterConfig->FilterFIFOAssignment == CAN_FILTER_FIFO0)
 80021e8:	683b      	ldr	r3, [r7, #0]
 80021ea:	691b      	ldr	r3, [r3, #16]
 80021ec:	2b00      	cmp	r3, #0
 80021ee:	d109      	bne.n	8002204 <HAL_CAN_ConfigFilter+0x160>
    {
      /* FIFO 0 assignation for the filter */
      CLEAR_BIT(can_ip->FFA1R, filternbrbitpos);
 80021f0:	693b      	ldr	r3, [r7, #16]
 80021f2:	f8d3 2214 	ldr.w	r2, [r3, #532]	@ 0x214
 80021f6:	68fb      	ldr	r3, [r7, #12]
 80021f8:	43db      	mvns	r3, r3
 80021fa:	401a      	ands	r2, r3
 80021fc:	693b      	ldr	r3, [r7, #16]
 80021fe:	f8c3 2214 	str.w	r2, [r3, #532]	@ 0x214
 8002202:	e007      	b.n	8002214 <HAL_CAN_ConfigFilter+0x170>
    }
    else
    {
      /* FIFO 1 assignation for the filter */
      SET_BIT(can_ip->FFA1R, filternbrbitpos);
 8002204:	693b      	ldr	r3, [r7, #16]
 8002206:	f8d3 2214 	ldr.w	r2, [r3, #532]	@ 0x214
 800220a:	68fb      	ldr	r3, [r7, #12]
 800220c:	431a      	orrs	r2, r3
 800220e:	693b      	ldr	r3, [r7, #16]
 8002210:	f8c3 2214 	str.w	r2, [r3, #532]	@ 0x214
    }

    /* Filter activation */
    if (sFilterConfig->FilterActivation == CAN_FILTER_ENABLE)
 8002214:	683b      	ldr	r3, [r7, #0]
 8002216:	6a1b      	ldr	r3, [r3, #32]
 8002218:	2b01      	cmp	r3, #1
 800221a:	d107      	bne.n	800222c <HAL_CAN_ConfigFilter+0x188>
    {
      SET_BIT(can_ip->FA1R, filternbrbitpos);
 800221c:	693b      	ldr	r3, [r7, #16]
 800221e:	f8d3 221c 	ldr.w	r2, [r3, #540]	@ 0x21c
 8002222:	68fb      	ldr	r3, [r7, #12]
 8002224:	431a      	orrs	r2, r3
 8002226:	693b      	ldr	r3, [r7, #16]
 8002228:	f8c3 221c 	str.w	r2, [r3, #540]	@ 0x21c
    }

    /* Leave the initialisation mode for the filter */
    CLEAR_BIT(can_ip->FMR, CAN_FMR_FINIT);
 800222c:	693b      	ldr	r3, [r7, #16]
 800222e:	f8d3 3200 	ldr.w	r3, [r3, #512]	@ 0x200
 8002232:	f023 0201 	bic.w	r2, r3, #1
 8002236:	693b      	ldr	r3, [r7, #16]
 8002238:	f8c3 2200 	str.w	r2, [r3, #512]	@ 0x200

    /* Return function status */
    return HAL_OK;
 800223c:	2300      	movs	r3, #0
 800223e:	e006      	b.n	800224e <HAL_CAN_ConfigFilter+0x1aa>
  }
  else
  {
    /* Update error code */
    hcan->ErrorCode |= HAL_CAN_ERROR_NOT_INITIALIZED;
 8002240:	687b      	ldr	r3, [r7, #4]
 8002242:	6a5b      	ldr	r3, [r3, #36]	@ 0x24
 8002244:	f443 2280 	orr.w	r2, r3, #262144	@ 0x40000
 8002248:	687b      	ldr	r3, [r7, #4]
 800224a:	625a      	str	r2, [r3, #36]	@ 0x24

    return HAL_ERROR;
 800224c:	2301      	movs	r3, #1
  }
}
 800224e:	4618      	mov	r0, r3
 8002250:	371c      	adds	r7, #28
 8002252:	46bd      	mov	sp, r7
 8002254:	f85d 7b04 	ldr.w	r7, [sp], #4
 8002258:	4770      	bx	lr
 800225a:	bf00      	nop
 800225c:	40006400 	.word	0x40006400

08002260 <HAL_CAN_Start>:
  * @param  hcan pointer to an CAN_HandleTypeDef structure that contains
  *         the configuration information for the specified CAN.
  * @retval HAL status
  */
HAL_StatusTypeDef HAL_CAN_Start(CAN_HandleTypeDef *hcan)
{
 8002260:	b580      	push	{r7, lr}
 8002262:	b084      	sub	sp, #16
 8002264:	af00      	add	r7, sp, #0
 8002266:	6078      	str	r0, [r7, #4]
  uint32_t tickstart;

  if (hcan->State == HAL_CAN_STATE_READY)
 8002268:	687b      	ldr	r3, [r7, #4]
 800226a:	f893 3020 	ldrb.w	r3, [r3, #32]
 800226e:	b2db      	uxtb	r3, r3
 8002270:	2b01      	cmp	r3, #1
 8002272:	d12e      	bne.n	80022d2 <HAL_CAN_Start+0x72>
  {
    /* Change CAN peripheral state */
    hcan->State = HAL_CAN_STATE_LISTENING;
 8002274:	687b      	ldr	r3, [r7, #4]
 8002276:	2202      	movs	r2, #2
 8002278:	f883 2020 	strb.w	r2, [r3, #32]

    /* Request leave initialisation */
    CLEAR_BIT(hcan->Instance->MCR, CAN_MCR_INRQ);
 800227c:	687b      	ldr	r3, [r7, #4]
 800227e:	681b      	ldr	r3, [r3, #0]
 8002280:	681a      	ldr	r2, [r3, #0]
 8002282:	687b      	ldr	r3, [r7, #4]
 8002284:	681b      	ldr	r3, [r3, #0]
 8002286:	f022 0201 	bic.w	r2, r2, #1
 800228a:	601a      	str	r2, [r3, #0]

    /* Get tick */
    tickstart = HAL_GetTick();
 800228c:	f7ff fdde 	bl	8001e4c <HAL_GetTick>
 8002290:	60f8      	str	r0, [r7, #12]

    /* Wait the acknowledge */
    while ((hcan->Instance->MSR & CAN_MSR_INAK) != 0U)
 8002292:	e012      	b.n	80022ba <HAL_CAN_Start+0x5a>
    {
      /* Check for the Timeout */
      if ((HAL_GetTick() - tickstart) > CAN_TIMEOUT_VALUE)
 8002294:	f7ff fdda 	bl	8001e4c <HAL_GetTick>
 8002298:	4602      	mov	r2, r0
 800229a:	68fb      	ldr	r3, [r7, #12]
 800229c:	1ad3      	subs	r3, r2, r3
 800229e:	2b0a      	cmp	r3, #10
 80022a0:	d90b      	bls.n	80022ba <HAL_CAN_Start+0x5a>
      {
        /* Update error code */
        hcan->ErrorCode |= HAL_CAN_ERROR_TIMEOUT;
 80022a2:	687b      	ldr	r3, [r7, #4]
 80022a4:	6a5b      	ldr	r3, [r3, #36]	@ 0x24
 80022a6:	f443 3200 	orr.w	r2, r3, #131072	@ 0x20000
 80022aa:	687b      	ldr	r3, [r7, #4]
 80022ac:	625a      	str	r2, [r3, #36]	@ 0x24

        /* Change CAN state */
        hcan->State = HAL_CAN_STATE_ERROR;
 80022ae:	687b      	ldr	r3, [r7, #4]
 80022b0:	2205      	movs	r2, #5
 80022b2:	f883 2020 	strb.w	r2, [r3, #32]

        return HAL_ERROR;
 80022b6:	2301      	movs	r3, #1
 80022b8:	e012      	b.n	80022e0 <HAL_CAN_Start+0x80>
    while ((hcan->Instance->MSR & CAN_MSR_INAK) != 0U)
 80022ba:	687b      	ldr	r3, [r7, #4]
 80022bc:	681b      	ldr	r3, [r3, #0]
 80022be:	685b      	ldr	r3, [r3, #4]
 80022c0:	f003 0301 	and.w	r3, r3, #1
 80022c4:	2b00      	cmp	r3, #0
 80022c6:	d1e5      	bne.n	8002294 <HAL_CAN_Start+0x34>
      }
    }

    /* Reset the CAN ErrorCode */
    hcan->ErrorCode = HAL_CAN_ERROR_NONE;
 80022c8:	687b      	ldr	r3, [r7, #4]
 80022ca:	2200      	movs	r2, #0
 80022cc:	625a      	str	r2, [r3, #36]	@ 0x24

    /* Return function status */
    return HAL_OK;
 80022ce:	2300      	movs	r3, #0
 80022d0:	e006      	b.n	80022e0 <HAL_CAN_Start+0x80>
  }
  else
  {
    /* Update error code */
    hcan->ErrorCode |= HAL_CAN_ERROR_NOT_READY;
 80022d2:	687b      	ldr	r3, [r7, #4]
 80022d4:	6a5b      	ldr	r3, [r3, #36]	@ 0x24
 80022d6:	f443 2200 	orr.w	r2, r3, #524288	@ 0x80000
 80022da:	687b      	ldr	r3, [r7, #4]
 80022dc:	625a      	str	r2, [r3, #36]	@ 0x24

    return HAL_ERROR;
 80022de:	2301      	movs	r3, #1
  }
}
 80022e0:	4618      	mov	r0, r3
 80022e2:	3710      	adds	r7, #16
 80022e4:	46bd      	mov	sp, r7
 80022e6:	bd80      	pop	{r7, pc}

080022e8 <HAL_CAN_AddTxMessage>:
  *         This parameter can be a value of @arg CAN_Tx_Mailboxes.
  * @retval HAL status
  */
HAL_StatusTypeDef HAL_CAN_AddTxMessage(CAN_HandleTypeDef *hcan, const CAN_TxHeaderTypeDef *pHeader,
                                       const uint8_t aData[], uint32_t *pTxMailbox)
{
 80022e8:	b480      	push	{r7}
 80022ea:	b089      	sub	sp, #36	@ 0x24
 80022ec:	af00      	add	r7, sp, #0
 80022ee:	60f8      	str	r0, [r7, #12]
 80022f0:	60b9      	str	r1, [r7, #8]
 80022f2:	607a      	str	r2, [r7, #4]
 80022f4:	603b      	str	r3, [r7, #0]
  uint32_t transmitmailbox;
  HAL_CAN_StateTypeDef state = hcan->State;
 80022f6:	68fb      	ldr	r3, [r7, #12]
 80022f8:	f893 3020 	ldrb.w	r3, [r3, #32]
 80022fc:	77fb      	strb	r3, [r7, #31]
  uint32_t tsr = READ_REG(hcan->Instance->TSR);
 80022fe:	68fb      	ldr	r3, [r7, #12]
 8002300:	681b      	ldr	r3, [r3, #0]
 8002302:	689b      	ldr	r3, [r3, #8]
 8002304:	61bb      	str	r3, [r7, #24]
  {
    assert_param(IS_CAN_EXTID(pHeader->ExtId));
  }
  assert_param(IS_FUNCTIONAL_STATE(pHeader->TransmitGlobalTime));

  if ((state == HAL_CAN_STATE_READY) ||
 8002306:	7ffb      	ldrb	r3, [r7, #31]
 8002308:	2b01      	cmp	r3, #1
 800230a:	d003      	beq.n	8002314 <HAL_CAN_AddTxMessage+0x2c>
 800230c:	7ffb      	ldrb	r3, [r7, #31]
 800230e:	2b02      	cmp	r3, #2
 8002310:	f040 80ad 	bne.w	800246e <HAL_CAN_AddTxMessage+0x186>
      (state == HAL_CAN_STATE_LISTENING))
  {
    /* Check that all the Tx mailboxes are not full */
    if (((tsr & CAN_TSR_TME0) != 0U) ||
 8002314:	69bb      	ldr	r3, [r7, #24]
 8002316:	f003 6380 	and.w	r3, r3, #67108864	@ 0x4000000
 800231a:	2b00      	cmp	r3, #0
 800231c:	d10a      	bne.n	8002334 <HAL_CAN_AddTxMessage+0x4c>
        ((tsr & CAN_TSR_TME1) != 0U) ||
 800231e:	69bb      	ldr	r3, [r7, #24]
 8002320:	f003 6300 	and.w	r3, r3, #134217728	@ 0x8000000
    if (((tsr & CAN_TSR_TME0) != 0U) ||
 8002324:	2b00      	cmp	r3, #0
 8002326:	d105      	bne.n	8002334 <HAL_CAN_AddTxMessage+0x4c>
        ((tsr & CAN_TSR_TME2) != 0U))
 8002328:	69bb      	ldr	r3, [r7, #24]
 800232a:	f003 5380 	and.w	r3, r3, #268435456	@ 0x10000000
        ((tsr & CAN_TSR_TME1) != 0U) ||
 800232e:	2b00      	cmp	r3, #0
 8002330:	f000 8095 	beq.w	800245e <HAL_CAN_AddTxMessage+0x176>
    {
      /* Select an empty transmit mailbox */
      transmitmailbox = (tsr & CAN_TSR_CODE) >> CAN_TSR_CODE_Pos;
 8002334:	69bb      	ldr	r3, [r7, #24]
 8002336:	0e1b      	lsrs	r3, r3, #24
 8002338:	f003 0303 	and.w	r3, r3, #3
 800233c:	617b      	str	r3, [r7, #20]

      /* Store the Tx mailbox */
      *pTxMailbox = (uint32_t)1 << transmitmailbox;
 800233e:	2201      	movs	r2, #1
 8002340:	697b      	ldr	r3, [r7, #20]
 8002342:	409a      	lsls	r2, r3
 8002344:	683b      	ldr	r3, [r7, #0]
 8002346:	601a      	str	r2, [r3, #0]

      /* Set up the Id */
      if (pHeader->IDE == CAN_ID_STD)
 8002348:	68bb      	ldr	r3, [r7, #8]
 800234a:	689b      	ldr	r3, [r3, #8]
 800234c:	2b00      	cmp	r3, #0
 800234e:	d10d      	bne.n	800236c <HAL_CAN_AddTxMessage+0x84>
      {
        hcan->Instance->sTxMailBox[transmitmailbox].TIR = ((pHeader->StdId << CAN_TI0R_STID_Pos) |
 8002350:	68bb      	ldr	r3, [r7, #8]
 8002352:	681b      	ldr	r3, [r3, #0]
 8002354:	055a      	lsls	r2, r3, #21
                                                           pHeader->RTR);
 8002356:	68bb      	ldr	r3, [r7, #8]
 8002358:	68db      	ldr	r3, [r3, #12]
        hcan->Instance->sTxMailBox[transmitmailbox].TIR = ((pHeader->StdId << CAN_TI0R_STID_Pos) |
 800235a:	68f9      	ldr	r1, [r7, #12]
 800235c:	6809      	ldr	r1, [r1, #0]
 800235e:	431a      	orrs	r2, r3
 8002360:	697b      	ldr	r3, [r7, #20]
 8002362:	3318      	adds	r3, #24
 8002364:	011b      	lsls	r3, r3, #4
 8002366:	440b      	add	r3, r1
 8002368:	601a      	str	r2, [r3, #0]
 800236a:	e00f      	b.n	800238c <HAL_CAN_AddTxMessage+0xa4>
      }
      else
      {
        hcan->Instance->sTxMailBox[transmitmailbox].TIR = ((pHeader->ExtId << CAN_TI0R_EXID_Pos) |
 800236c:	68bb      	ldr	r3, [r7, #8]
 800236e:	685b      	ldr	r3, [r3, #4]
 8002370:	00da      	lsls	r2, r3, #3
                                                           pHeader->IDE |
 8002372:	68bb      	ldr	r3, [r7, #8]
 8002374:	689b      	ldr	r3, [r3, #8]
        hcan->Instance->sTxMailBox[transmitmailbox].TIR = ((pHeader->ExtId << CAN_TI0R_EXID_Pos) |
 8002376:	431a      	orrs	r2, r3
                                                           pHeader->RTR);
 8002378:	68bb      	ldr	r3, [r7, #8]
 800237a:	68db      	ldr	r3, [r3, #12]
        hcan->Instance->sTxMailBox[transmitmailbox].TIR = ((pHeader->ExtId << CAN_TI0R_EXID_Pos) |
 800237c:	68f9      	ldr	r1, [r7, #12]
 800237e:	6809      	ldr	r1, [r1, #0]
                                                           pHeader->IDE |
 8002380:	431a      	orrs	r2, r3
        hcan->Instance->sTxMailBox[transmitmailbox].TIR = ((pHeader->ExtId << CAN_TI0R_EXID_Pos) |
 8002382:	697b      	ldr	r3, [r7, #20]
 8002384:	3318      	adds	r3, #24
 8002386:	011b      	lsls	r3, r3, #4
 8002388:	440b      	add	r3, r1
 800238a:	601a      	str	r2, [r3, #0]
      }

      /* Set up the DLC */
      hcan->Instance->sTxMailBox[transmitmailbox].TDTR = (pHeader->DLC);
 800238c:	68fb      	ldr	r3, [r7, #12]
 800238e:	6819      	ldr	r1, [r3, #0]
 8002390:	68bb      	ldr	r3, [r7, #8]
 8002392:	691a      	ldr	r2, [r3, #16]
 8002394:	697b      	ldr	r3, [r7, #20]
 8002396:	3318      	adds	r3, #24
 8002398:	011b      	lsls	r3, r3, #4
 800239a:	440b      	add	r3, r1
 800239c:	3304      	adds	r3, #4
 800239e:	601a      	str	r2, [r3, #0]

      /* Set up the Transmit Global Time mode */
      if (pHeader->TransmitGlobalTime == ENABLE)
 80023a0:	68bb      	ldr	r3, [r7, #8]
 80023a2:	7d1b      	ldrb	r3, [r3, #20]
 80023a4:	2b01      	cmp	r3, #1
 80023a6:	d111      	bne.n	80023cc <HAL_CAN_AddTxMessage+0xe4>
      {
        SET_BIT(hcan->Instance->sTxMailBox[transmitmailbox].TDTR, CAN_TDT0R_TGT);
 80023a8:	68fb      	ldr	r3, [r7, #12]
 80023aa:	681a      	ldr	r2, [r3, #0]
 80023ac:	697b      	ldr	r3, [r7, #20]
 80023ae:	3318      	adds	r3, #24
 80023b0:	011b      	lsls	r3, r3, #4
 80023b2:	4413      	add	r3, r2
 80023b4:	3304      	adds	r3, #4
 80023b6:	681b      	ldr	r3, [r3, #0]
 80023b8:	68fa      	ldr	r2, [r7, #12]
 80023ba:	6811      	ldr	r1, [r2, #0]
 80023bc:	f443 7280 	orr.w	r2, r3, #256	@ 0x100
 80023c0:	697b      	ldr	r3, [r7, #20]
 80023c2:	3318      	adds	r3, #24
 80023c4:	011b      	lsls	r3, r3, #4
 80023c6:	440b      	add	r3, r1
 80023c8:	3304      	adds	r3, #4
 80023ca:	601a      	str	r2, [r3, #0]
      }

      /* Set up the data field */
      WRITE_REG(hcan->Instance->sTxMailBox[transmitmailbox].TDHR,
 80023cc:	687b      	ldr	r3, [r7, #4]
 80023ce:	3307      	adds	r3, #7
 80023d0:	781b      	ldrb	r3, [r3, #0]
 80023d2:	061a      	lsls	r2, r3, #24
 80023d4:	687b      	ldr	r3, [r7, #4]
 80023d6:	3306      	adds	r3, #6
 80023d8:	781b      	ldrb	r3, [r3, #0]
 80023da:	041b      	lsls	r3, r3, #16
 80023dc:	431a      	orrs	r2, r3
 80023de:	687b      	ldr	r3, [r7, #4]
 80023e0:	3305      	adds	r3, #5
 80023e2:	781b      	ldrb	r3, [r3, #0]
 80023e4:	021b      	lsls	r3, r3, #8
 80023e6:	4313      	orrs	r3, r2
 80023e8:	687a      	ldr	r2, [r7, #4]
 80023ea:	3204      	adds	r2, #4
 80023ec:	7812      	ldrb	r2, [r2, #0]
 80023ee:	4610      	mov	r0, r2
 80023f0:	68fa      	ldr	r2, [r7, #12]
 80023f2:	6811      	ldr	r1, [r2, #0]
 80023f4:	ea43 0200 	orr.w	r2, r3, r0
 80023f8:	697b      	ldr	r3, [r7, #20]
 80023fa:	011b      	lsls	r3, r3, #4
 80023fc:	440b      	add	r3, r1
 80023fe:	f503 73c6 	add.w	r3, r3, #396	@ 0x18c
 8002402:	601a      	str	r2, [r3, #0]
                ((uint32_t)aData[7] << CAN_TDH0R_DATA7_Pos) |
                ((uint32_t)aData[6] << CAN_TDH0R_DATA6_Pos) |
                ((uint32_t)aData[5] << CAN_TDH0R_DATA5_Pos) |
                ((uint32_t)aData[4] << CAN_TDH0R_DATA4_Pos));
      WRITE_REG(hcan->Instance->sTxMailBox[transmitmailbox].TDLR,
 8002404:	687b      	ldr	r3, [r7, #4]
 8002406:	3303      	adds	r3, #3
 8002408:	781b      	ldrb	r3, [r3, #0]
 800240a:	061a      	lsls	r2, r3, #24
 800240c:	687b      	ldr	r3, [r7, #4]
 800240e:	3302      	adds	r3, #2
 8002410:	781b      	ldrb	r3, [r3, #0]
 8002412:	041b      	lsls	r3, r3, #16
 8002414:	431a      	orrs	r2, r3
 8002416:	687b      	ldr	r3, [r7, #4]
 8002418:	3301      	adds	r3, #1
 800241a:	781b      	ldrb	r3, [r3, #0]
 800241c:	021b      	lsls	r3, r3, #8
 800241e:	4313      	orrs	r3, r2
 8002420:	687a      	ldr	r2, [r7, #4]
 8002422:	7812      	ldrb	r2, [r2, #0]
 8002424:	4610      	mov	r0, r2
 8002426:	68fa      	ldr	r2, [r7, #12]
 8002428:	6811      	ldr	r1, [r2, #0]
 800242a:	ea43 0200 	orr.w	r2, r3, r0
 800242e:	697b      	ldr	r3, [r7, #20]
 8002430:	011b      	lsls	r3, r3, #4
 8002432:	440b      	add	r3, r1
 8002434:	f503 73c4 	add.w	r3, r3, #392	@ 0x188
 8002438:	601a      	str	r2, [r3, #0]
                ((uint32_t)aData[2] << CAN_TDL0R_DATA2_Pos) |
                ((uint32_t)aData[1] << CAN_TDL0R_DATA1_Pos) |
                ((uint32_t)aData[0] << CAN_TDL0R_DATA0_Pos));

      /* Request transmission */
      SET_BIT(hcan->Instance->sTxMailBox[transmitmailbox].TIR, CAN_TI0R_TXRQ);
 800243a:	68fb      	ldr	r3, [r7, #12]
 800243c:	681a      	ldr	r2, [r3, #0]
 800243e:	697b      	ldr	r3, [r7, #20]
 8002440:	3318      	adds	r3, #24
 8002442:	011b      	lsls	r3, r3, #4
 8002444:	4413      	add	r3, r2
 8002446:	681b      	ldr	r3, [r3, #0]
 8002448:	68fa      	ldr	r2, [r7, #12]
 800244a:	6811      	ldr	r1, [r2, #0]
 800244c:	f043 0201 	orr.w	r2, r3, #1
 8002450:	697b      	ldr	r3, [r7, #20]
 8002452:	3318      	adds	r3, #24
 8002454:	011b      	lsls	r3, r3, #4
 8002456:	440b      	add	r3, r1
 8002458:	601a      	str	r2, [r3, #0]

      /* Return function status */
      return HAL_OK;
 800245a:	2300      	movs	r3, #0
 800245c:	e00e      	b.n	800247c <HAL_CAN_AddTxMessage+0x194>
    }
    else
    {
      /* Update error code */
      hcan->ErrorCode |= HAL_CAN_ERROR_PARAM;
 800245e:	68fb      	ldr	r3, [r7, #12]
 8002460:	6a5b      	ldr	r3, [r3, #36]	@ 0x24
 8002462:	f443 1200 	orr.w	r2, r3, #2097152	@ 0x200000
 8002466:	68fb      	ldr	r3, [r7, #12]
 8002468:	625a      	str	r2, [r3, #36]	@ 0x24

      return HAL_ERROR;
 800246a:	2301      	movs	r3, #1
 800246c:	e006      	b.n	800247c <HAL_CAN_AddTxMessage+0x194>
    }
  }
  else
  {
    /* Update error code */
    hcan->ErrorCode |= HAL_CAN_ERROR_NOT_INITIALIZED;
 800246e:	68fb      	ldr	r3, [r7, #12]
 8002470:	6a5b      	ldr	r3, [r3, #36]	@ 0x24
 8002472:	f443 2280 	orr.w	r2, r3, #262144	@ 0x40000
 8002476:	68fb      	ldr	r3, [r7, #12]
 8002478:	625a      	str	r2, [r3, #36]	@ 0x24

    return HAL_ERROR;
 800247a:	2301      	movs	r3, #1
  }
}
 800247c:	4618      	mov	r0, r3
 800247e:	3724      	adds	r7, #36	@ 0x24
 8002480:	46bd      	mov	sp, r7
 8002482:	f85d 7b04 	ldr.w	r7, [sp], #4
 8002486:	4770      	bx	lr

08002488 <HAL_CAN_GetTxMailboxesFreeLevel>:
  * @param  hcan pointer to a CAN_HandleTypeDef structure that contains
  *         the configuration information for the specified CAN.
  * @retval Number of free Tx Mailboxes.
  */
uint32_t HAL_CAN_GetTxMailboxesFreeLevel(const CAN_HandleTypeDef *hcan)
{
 8002488:	b480      	push	{r7}
 800248a:	b085      	sub	sp, #20
 800248c:	af00      	add	r7, sp, #0
 800248e:	6078      	str	r0, [r7, #4]
  uint32_t freelevel = 0U;
 8002490:	2300      	movs	r3, #0
 8002492:	60fb      	str	r3, [r7, #12]
  HAL_CAN_StateTypeDef state = hcan->State;
 8002494:	687b      	ldr	r3, [r7, #4]
 8002496:	f893 3020 	ldrb.w	r3, [r3, #32]
 800249a:	72fb      	strb	r3, [r7, #11]

  if ((state == HAL_CAN_STATE_READY) ||
 800249c:	7afb      	ldrb	r3, [r7, #11]
 800249e:	2b01      	cmp	r3, #1
 80024a0:	d002      	beq.n	80024a8 <HAL_CAN_GetTxMailboxesFreeLevel+0x20>
 80024a2:	7afb      	ldrb	r3, [r7, #11]
 80024a4:	2b02      	cmp	r3, #2
 80024a6:	d11d      	bne.n	80024e4 <HAL_CAN_GetTxMailboxesFreeLevel+0x5c>
      (state == HAL_CAN_STATE_LISTENING))
  {
    /* Check Tx Mailbox 0 status */
    if ((hcan->Instance->TSR & CAN_TSR_TME0) != 0U)
 80024a8:	687b      	ldr	r3, [r7, #4]
 80024aa:	681b      	ldr	r3, [r3, #0]
 80024ac:	689b      	ldr	r3, [r3, #8]
 80024ae:	f003 6380 	and.w	r3, r3, #67108864	@ 0x4000000
 80024b2:	2b00      	cmp	r3, #0
 80024b4:	d002      	beq.n	80024bc <HAL_CAN_GetTxMailboxesFreeLevel+0x34>
    {
      freelevel++;
 80024b6:	68fb      	ldr	r3, [r7, #12]
 80024b8:	3301      	adds	r3, #1
 80024ba:	60fb      	str	r3, [r7, #12]
    }

    /* Check Tx Mailbox 1 status */
    if ((hcan->Instance->TSR & CAN_TSR_TME1) != 0U)
 80024bc:	687b      	ldr	r3, [r7, #4]
 80024be:	681b      	ldr	r3, [r3, #0]
 80024c0:	689b      	ldr	r3, [r3, #8]
 80024c2:	f003 6300 	and.w	r3, r3, #134217728	@ 0x8000000
 80024c6:	2b00      	cmp	r3, #0
 80024c8:	d002      	beq.n	80024d0 <HAL_CAN_GetTxMailboxesFreeLevel+0x48>
    {
      freelevel++;
 80024ca:	68fb      	ldr	r3, [r7, #12]
 80024cc:	3301      	adds	r3, #1
 80024ce:	60fb      	str	r3, [r7, #12]
    }

    /* Check Tx Mailbox 2 status */
    if ((hcan->Instance->TSR & CAN_TSR_TME2) != 0U)
 80024d0:	687b      	ldr	r3, [r7, #4]
 80024d2:	681b      	ldr	r3, [r3, #0]
 80024d4:	689b      	ldr	r3, [r3, #8]
 80024d6:	f003 5380 	and.w	r3, r3, #268435456	@ 0x10000000
 80024da:	2b00      	cmp	r3, #0
 80024dc:	d002      	beq.n	80024e4 <HAL_CAN_GetTxMailboxesFreeLevel+0x5c>
    {
      freelevel++;
 80024de:	68fb      	ldr	r3, [r7, #12]
 80024e0:	3301      	adds	r3, #1
 80024e2:	60fb      	str	r3, [r7, #12]
    }
  }

  /* Return Tx Mailboxes free level */
  return freelevel;
 80024e4:	68fb      	ldr	r3, [r7, #12]
}
 80024e6:	4618      	mov	r0, r3
 80024e8:	3714      	adds	r7, #20
 80024ea:	46bd      	mov	sp, r7
 80024ec:	f85d 7b04 	ldr.w	r7, [sp], #4
 80024f0:	4770      	bx	lr

080024f2 <HAL_CAN_GetRxMessage>:
  * @param  aData array where the payload of the Rx frame will be stored.
  * @retval HAL status
  */
HAL_StatusTypeDef HAL_CAN_GetRxMessage(CAN_HandleTypeDef *hcan, uint32_t RxFifo,
                                       CAN_RxHeaderTypeDef *pHeader, uint8_t aData[])
{
 80024f2:	b480      	push	{r7}
 80024f4:	b087      	sub	sp, #28
 80024f6:	af00      	add	r7, sp, #0
 80024f8:	60f8      	str	r0, [r7, #12]
 80024fa:	60b9      	str	r1, [r7, #8]
 80024fc:	607a      	str	r2, [r7, #4]
 80024fe:	603b      	str	r3, [r7, #0]
  HAL_CAN_StateTypeDef state = hcan->State;
 8002500:	68fb      	ldr	r3, [r7, #12]
 8002502:	f893 3020 	ldrb.w	r3, [r3, #32]
 8002506:	75fb      	strb	r3, [r7, #23]

  assert_param(IS_CAN_RX_FIFO(RxFifo));

  if ((state == HAL_CAN_STATE_READY) ||
 8002508:	7dfb      	ldrb	r3, [r7, #23]
 800250a:	2b01      	cmp	r3, #1
 800250c:	d003      	beq.n	8002516 <HAL_CAN_GetRxMessage+0x24>
 800250e:	7dfb      	ldrb	r3, [r7, #23]
 8002510:	2b02      	cmp	r3, #2
 8002512:	f040 8103 	bne.w	800271c <HAL_CAN_GetRxMessage+0x22a>
      (state == HAL_CAN_STATE_LISTENING))
  {
    /* Check the Rx FIFO */
    if (RxFifo == CAN_RX_FIFO0) /* Rx element is assigned to Rx FIFO 0 */
 8002516:	68bb      	ldr	r3, [r7, #8]
 8002518:	2b00      	cmp	r3, #0
 800251a:	d10e      	bne.n	800253a <HAL_CAN_GetRxMessage+0x48>
    {
      /* Check that the Rx FIFO 0 is not empty */
      if ((hcan->Instance->RF0R & CAN_RF0R_FMP0) == 0U)
 800251c:	68fb      	ldr	r3, [r7, #12]
 800251e:	681b      	ldr	r3, [r3, #0]
 8002520:	68db      	ldr	r3, [r3, #12]
 8002522:	f003 0303 	and.w	r3, r3, #3
 8002526:	2b00      	cmp	r3, #0
 8002528:	d116      	bne.n	8002558 <HAL_CAN_GetRxMessage+0x66>
      {
        /* Update error code */
        hcan->ErrorCode |= HAL_CAN_ERROR_PARAM;
 800252a:	68fb      	ldr	r3, [r7, #12]
 800252c:	6a5b      	ldr	r3, [r3, #36]	@ 0x24
 800252e:	f443 1200 	orr.w	r2, r3, #2097152	@ 0x200000
 8002532:	68fb      	ldr	r3, [r7, #12]
 8002534:	625a      	str	r2, [r3, #36]	@ 0x24

        return HAL_ERROR;
 8002536:	2301      	movs	r3, #1
 8002538:	e0f7      	b.n	800272a <HAL_CAN_GetRxMessage+0x238>
      }
    }
    else /* Rx element is assigned to Rx FIFO 1 */
    {
      /* Check that the Rx FIFO 1 is not empty */
      if ((hcan->Instance->RF1R & CAN_RF1R_FMP1) == 0U)
 800253a:	68fb      	ldr	r3, [r7, #12]
 800253c:	681b      	ldr	r3, [r3, #0]
 800253e:	691b      	ldr	r3, [r3, #16]
 8002540:	f003 0303 	and.w	r3, r3, #3
 8002544:	2b00      	cmp	r3, #0
 8002546:	d107      	bne.n	8002558 <HAL_CAN_GetRxMessage+0x66>
      {
        /* Update error code */
        hcan->ErrorCode |= HAL_CAN_ERROR_PARAM;
 8002548:	68fb      	ldr	r3, [r7, #12]
 800254a:	6a5b      	ldr	r3, [r3, #36]	@ 0x24
 800254c:	f443 1200 	orr.w	r2, r3, #2097152	@ 0x200000
 8002550:	68fb      	ldr	r3, [r7, #12]
 8002552:	625a      	str	r2, [r3, #36]	@ 0x24

        return HAL_ERROR;
 8002554:	2301      	movs	r3, #1
 8002556:	e0e8      	b.n	800272a <HAL_CAN_GetRxMessage+0x238>
      }
    }

    /* Get the header */
    pHeader->IDE = CAN_RI0R_IDE & hcan->Instance->sFIFOMailBox[RxFifo].RIR;
 8002558:	68fb      	ldr	r3, [r7, #12]
 800255a:	681a      	ldr	r2, [r3, #0]
 800255c:	68bb      	ldr	r3, [r7, #8]
 800255e:	331b      	adds	r3, #27
 8002560:	011b      	lsls	r3, r3, #4
 8002562:	4413      	add	r3, r2
 8002564:	681b      	ldr	r3, [r3, #0]
 8002566:	f003 0204 	and.w	r2, r3, #4
 800256a:	687b      	ldr	r3, [r7, #4]
 800256c:	609a      	str	r2, [r3, #8]
    if (pHeader->IDE == CAN_ID_STD)
 800256e:	687b      	ldr	r3, [r7, #4]
 8002570:	689b      	ldr	r3, [r3, #8]
 8002572:	2b00      	cmp	r3, #0
 8002574:	d10c      	bne.n	8002590 <HAL_CAN_GetRxMessage+0x9e>
    {
      pHeader->StdId = (CAN_RI0R_STID & hcan->Instance->sFIFOMailBox[RxFifo].RIR) >> CAN_TI0R_STID_Pos;
 8002576:	68fb      	ldr	r3, [r7, #12]
 8002578:	681a      	ldr	r2, [r3, #0]
 800257a:	68bb      	ldr	r3, [r7, #8]
 800257c:	331b      	adds	r3, #27
 800257e:	011b      	lsls	r3, r3, #4
 8002580:	4413      	add	r3, r2
 8002582:	681b      	ldr	r3, [r3, #0]
 8002584:	0d5b      	lsrs	r3, r3, #21
 8002586:	f3c3 020a 	ubfx	r2, r3, #0, #11
 800258a:	687b      	ldr	r3, [r7, #4]
 800258c:	601a      	str	r2, [r3, #0]
 800258e:	e00b      	b.n	80025a8 <HAL_CAN_GetRxMessage+0xb6>
    }
    else
    {
      pHeader->ExtId = ((CAN_RI0R_EXID | CAN_RI0R_STID) &
                        hcan->Instance->sFIFOMailBox[RxFifo].RIR) >> CAN_RI0R_EXID_Pos;
 8002590:	68fb      	ldr	r3, [r7, #12]
 8002592:	681a      	ldr	r2, [r3, #0]
 8002594:	68bb      	ldr	r3, [r7, #8]
 8002596:	331b      	adds	r3, #27
 8002598:	011b      	lsls	r3, r3, #4
 800259a:	4413      	add	r3, r2
 800259c:	681b      	ldr	r3, [r3, #0]
 800259e:	08db      	lsrs	r3, r3, #3
 80025a0:	f023 4260 	bic.w	r2, r3, #3758096384	@ 0xe0000000
      pHeader->ExtId = ((CAN_RI0R_EXID | CAN_RI0R_STID) &
 80025a4:	687b      	ldr	r3, [r7, #4]
 80025a6:	605a      	str	r2, [r3, #4]
    }
    pHeader->RTR = (CAN_RI0R_RTR & hcan->Instance->sFIFOMailBox[RxFifo].RIR);
 80025a8:	68fb      	ldr	r3, [r7, #12]
 80025aa:	681a      	ldr	r2, [r3, #0]
 80025ac:	68bb      	ldr	r3, [r7, #8]
 80025ae:	331b      	adds	r3, #27
 80025b0:	011b      	lsls	r3, r3, #4
 80025b2:	4413      	add	r3, r2
 80025b4:	681b      	ldr	r3, [r3, #0]
 80025b6:	f003 0202 	and.w	r2, r3, #2
 80025ba:	687b      	ldr	r3, [r7, #4]
 80025bc:	60da      	str	r2, [r3, #12]
    if (((CAN_RDT0R_DLC & hcan->Instance->sFIFOMailBox[RxFifo].RDTR) >> CAN_RDT0R_DLC_Pos) >= 8U)
 80025be:	68fb      	ldr	r3, [r7, #12]
 80025c0:	681a      	ldr	r2, [r3, #0]
 80025c2:	68bb      	ldr	r3, [r7, #8]
 80025c4:	331b      	adds	r3, #27
 80025c6:	011b      	lsls	r3, r3, #4
 80025c8:	4413      	add	r3, r2
 80025ca:	3304      	adds	r3, #4
 80025cc:	681b      	ldr	r3, [r3, #0]
 80025ce:	f003 0308 	and.w	r3, r3, #8
 80025d2:	2b00      	cmp	r3, #0
 80025d4:	d003      	beq.n	80025de <HAL_CAN_GetRxMessage+0xec>
    {
      /* Truncate DLC to 8 if received field is over range */
      pHeader->DLC = 8U;
 80025d6:	687b      	ldr	r3, [r7, #4]
 80025d8:	2208      	movs	r2, #8
 80025da:	611a      	str	r2, [r3, #16]
 80025dc:	e00b      	b.n	80025f6 <HAL_CAN_GetRxMessage+0x104>
    }
    else
    {
      pHeader->DLC = (CAN_RDT0R_DLC & hcan->Instance->sFIFOMailBox[RxFifo].RDTR) >> CAN_RDT0R_DLC_Pos;
 80025de:	68fb      	ldr	r3, [r7, #12]
 80025e0:	681a      	ldr	r2, [r3, #0]
 80025e2:	68bb      	ldr	r3, [r7, #8]
 80025e4:	331b      	adds	r3, #27
 80025e6:	011b      	lsls	r3, r3, #4
 80025e8:	4413      	add	r3, r2
 80025ea:	3304      	adds	r3, #4
 80025ec:	681b      	ldr	r3, [r3, #0]
 80025ee:	f003 020f 	and.w	r2, r3, #15
 80025f2:	687b      	ldr	r3, [r7, #4]
 80025f4:	611a      	str	r2, [r3, #16]
    }
    pHeader->FilterMatchIndex = (CAN_RDT0R_FMI & hcan->Instance->sFIFOMailBox[RxFifo].RDTR) >> CAN_RDT0R_FMI_Pos;
 80025f6:	68fb      	ldr	r3, [r7, #12]
 80025f8:	681a      	ldr	r2, [r3, #0]
 80025fa:	68bb      	ldr	r3, [r7, #8]
 80025fc:	331b      	adds	r3, #27
 80025fe:	011b      	lsls	r3, r3, #4
 8002600:	4413      	add	r3, r2
 8002602:	3304      	adds	r3, #4
 8002604:	681b      	ldr	r3, [r3, #0]
 8002606:	0a1b      	lsrs	r3, r3, #8
 8002608:	b2da      	uxtb	r2, r3
 800260a:	687b      	ldr	r3, [r7, #4]
 800260c:	619a      	str	r2, [r3, #24]
    pHeader->Timestamp = (CAN_RDT0R_TIME & hcan->Instance->sFIFOMailBox[RxFifo].RDTR) >> CAN_RDT0R_TIME_Pos;
 800260e:	68fb      	ldr	r3, [r7, #12]
 8002610:	681a      	ldr	r2, [r3, #0]
 8002612:	68bb      	ldr	r3, [r7, #8]
 8002614:	331b      	adds	r3, #27
 8002616:	011b      	lsls	r3, r3, #4
 8002618:	4413      	add	r3, r2
 800261a:	3304      	adds	r3, #4
 800261c:	681b      	ldr	r3, [r3, #0]
 800261e:	0c1b      	lsrs	r3, r3, #16
 8002620:	b29a      	uxth	r2, r3
 8002622:	687b      	ldr	r3, [r7, #4]
 8002624:	615a      	str	r2, [r3, #20]

    /* Get the data */
    aData[0] = (uint8_t)((CAN_RDL0R_DATA0 & hcan->Instance->sFIFOMailBox[RxFifo].RDLR) >> CAN_RDL0R_DATA0_Pos);
 8002626:	68fb      	ldr	r3, [r7, #12]
 8002628:	681a      	ldr	r2, [r3, #0]
 800262a:	68bb      	ldr	r3, [r7, #8]
 800262c:	011b      	lsls	r3, r3, #4
 800262e:	4413      	add	r3, r2
 8002630:	f503 73dc 	add.w	r3, r3, #440	@ 0x1b8
 8002634:	681b      	ldr	r3, [r3, #0]
 8002636:	b2da      	uxtb	r2, r3
 8002638:	683b      	ldr	r3, [r7, #0]
 800263a:	701a      	strb	r2, [r3, #0]
    aData[1] = (uint8_t)((CAN_RDL0R_DATA1 & hcan->Instance->sFIFOMailBox[RxFifo].RDLR) >> CAN_RDL0R_DATA1_Pos);
 800263c:	68fb      	ldr	r3, [r7, #12]
 800263e:	681a      	ldr	r2, [r3, #0]
 8002640:	68bb      	ldr	r3, [r7, #8]
 8002642:	011b      	lsls	r3, r3, #4
 8002644:	4413      	add	r3, r2
 8002646:	f503 73dc 	add.w	r3, r3, #440	@ 0x1b8
 800264a:	681b      	ldr	r3, [r3, #0]
 800264c:	0a1a      	lsrs	r2, r3, #8
 800264e:	683b      	ldr	r3, [r7, #0]
 8002650:	3301      	adds	r3, #1
 8002652:	b2d2      	uxtb	r2, r2
 8002654:	701a      	strb	r2, [r3, #0]
    aData[2] = (uint8_t)((CAN_RDL0R_DATA2 & hcan->Instance->sFIFOMailBox[RxFifo].RDLR) >> CAN_RDL0R_DATA2_Pos);
 8002656:	68fb      	ldr	r3, [r7, #12]
 8002658:	681a      	ldr	r2, [r3, #0]
 800265a:	68bb      	ldr	r3, [r7, #8]
 800265c:	011b      	lsls	r3, r3, #4
 800265e:	4413      	add	r3, r2
 8002660:	f503 73dc 	add.w	r3, r3, #440	@ 0x1b8
 8002664:	681b      	ldr	r3, [r3, #0]
 8002666:	0c1a      	lsrs	r2, r3, #16
 8002668:	683b      	ldr	r3, [r7, #0]
 800266a:	3302      	adds	r3, #2
 800266c:	b2d2      	uxtb	r2, r2
 800266e:	701a      	strb	r2, [r3, #0]
    aData[3] = (uint8_t)((CAN_RDL0R_DATA3 & hcan->Instance->sFIFOMailBox[RxFifo].RDLR) >> CAN_RDL0R_DATA3_Pos);
 8002670:	68fb      	ldr	r3, [r7, #12]
 8002672:	681a      	ldr	r2, [r3, #0]
 8002674:	68bb      	ldr	r3, [r7, #8]
 8002676:	011b      	lsls	r3, r3, #4
 8002678:	4413      	add	r3, r2
 800267a:	f503 73dc 	add.w	r3, r3, #440	@ 0x1b8
 800267e:	681b      	ldr	r3, [r3, #0]
 8002680:	0e1a      	lsrs	r2, r3, #24
 8002682:	683b      	ldr	r3, [r7, #0]
 8002684:	3303      	adds	r3, #3
 8002686:	b2d2      	uxtb	r2, r2
 8002688:	701a      	strb	r2, [r3, #0]
    aData[4] = (uint8_t)((CAN_RDH0R_DATA4 & hcan->Instance->sFIFOMailBox[RxFifo].RDHR) >> CAN_RDH0R_DATA4_Pos);
 800268a:	68fb      	ldr	r3, [r7, #12]
 800268c:	681a      	ldr	r2, [r3, #0]
 800268e:	68bb      	ldr	r3, [r7, #8]
 8002690:	011b      	lsls	r3, r3, #4
 8002692:	4413      	add	r3, r2
 8002694:	f503 73de 	add.w	r3, r3, #444	@ 0x1bc
 8002698:	681a      	ldr	r2, [r3, #0]
 800269a:	683b      	ldr	r3, [r7, #0]
 800269c:	3304      	adds	r3, #4
 800269e:	b2d2      	uxtb	r2, r2
 80026a0:	701a      	strb	r2, [r3, #0]
    aData[5] = (uint8_t)((CAN_RDH0R_DATA5 & hcan->Instance->sFIFOMailBox[RxFifo].RDHR) >> CAN_RDH0R_DATA5_Pos);
 80026a2:	68fb      	ldr	r3, [r7, #12]
 80026a4:	681a      	ldr	r2, [r3, #0]
 80026a6:	68bb      	ldr	r3, [r7, #8]
 80026a8:	011b      	lsls	r3, r3, #4
 80026aa:	4413      	add	r3, r2
 80026ac:	f503 73de 	add.w	r3, r3, #444	@ 0x1bc
 80026b0:	681b      	ldr	r3, [r3, #0]
 80026b2:	0a1a      	lsrs	r2, r3, #8
 80026b4:	683b      	ldr	r3, [r7, #0]
 80026b6:	3305      	adds	r3, #5
 80026b8:	b2d2      	uxtb	r2, r2
 80026ba:	701a      	strb	r2, [r3, #0]
    aData[6] = (uint8_t)((CAN_RDH0R_DATA6 & hcan->Instance->sFIFOMailBox[RxFifo].RDHR) >> CAN_RDH0R_DATA6_Pos);
 80026bc:	68fb      	ldr	r3, [r7, #12]
 80026be:	681a      	ldr	r2, [r3, #0]
 80026c0:	68bb      	ldr	r3, [r7, #8]
 80026c2:	011b      	lsls	r3, r3, #4
 80026c4:	4413      	add	r3, r2
 80026c6:	f503 73de 	add.w	r3, r3, #444	@ 0x1bc
 80026ca:	681b      	ldr	r3, [r3, #0]
 80026cc:	0c1a      	lsrs	r2, r3, #16
 80026ce:	683b      	ldr	r3, [r7, #0]
 80026d0:	3306      	adds	r3, #6
 80026d2:	b2d2      	uxtb	r2, r2
 80026d4:	701a      	strb	r2, [r3, #0]
    aData[7] = (uint8_t)((CAN_RDH0R_DATA7 & hcan->Instance->sFIFOMailBox[RxFifo].RDHR) >> CAN_RDH0R_DATA7_Pos);
 80026d6:	68fb      	ldr	r3, [r7, #12]
 80026d8:	681a      	ldr	r2, [r3, #0]
 80026da:	68bb      	ldr	r3, [r7, #8]
 80026dc:	011b      	lsls	r3, r3, #4
 80026de:	4413      	add	r3, r2
 80026e0:	f503 73de 	add.w	r3, r3, #444	@ 0x1bc
 80026e4:	681b      	ldr	r3, [r3, #0]
 80026e6:	0e1a      	lsrs	r2, r3, #24
 80026e8:	683b      	ldr	r3, [r7, #0]
 80026ea:	3307      	adds	r3, #7
 80026ec:	b2d2      	uxtb	r2, r2
 80026ee:	701a      	strb	r2, [r3, #0]

    /* Release the FIFO */
    if (RxFifo == CAN_RX_FIFO0) /* Rx element is assigned to Rx FIFO 0 */
 80026f0:	68bb      	ldr	r3, [r7, #8]
 80026f2:	2b00      	cmp	r3, #0
 80026f4:	d108      	bne.n	8002708 <HAL_CAN_GetRxMessage+0x216>
    {
      /* Release RX FIFO 0 */
      SET_BIT(hcan->Instance->RF0R, CAN_RF0R_RFOM0);
 80026f6:	68fb      	ldr	r3, [r7, #12]
 80026f8:	681b      	ldr	r3, [r3, #0]
 80026fa:	68da      	ldr	r2, [r3, #12]
 80026fc:	68fb      	ldr	r3, [r7, #12]
 80026fe:	681b      	ldr	r3, [r3, #0]
 8002700:	f042 0220 	orr.w	r2, r2, #32
 8002704:	60da      	str	r2, [r3, #12]
 8002706:	e007      	b.n	8002718 <HAL_CAN_GetRxMessage+0x226>
    }
    else /* Rx element is assigned to Rx FIFO 1 */
    {
      /* Release RX FIFO 1 */
      SET_BIT(hcan->Instance->RF1R, CAN_RF1R_RFOM1);
 8002708:	68fb      	ldr	r3, [r7, #12]
 800270a:	681b      	ldr	r3, [r3, #0]
 800270c:	691a      	ldr	r2, [r3, #16]
 800270e:	68fb      	ldr	r3, [r7, #12]
 8002710:	681b      	ldr	r3, [r3, #0]
 8002712:	f042 0220 	orr.w	r2, r2, #32
 8002716:	611a      	str	r2, [r3, #16]
    }

    /* Return function status */
    return HAL_OK;
 8002718:	2300      	movs	r3, #0
 800271a:	e006      	b.n	800272a <HAL_CAN_GetRxMessage+0x238>
  }
  else
  {
    /* Update error code */
    hcan->ErrorCode |= HAL_CAN_ERROR_NOT_INITIALIZED;
 800271c:	68fb      	ldr	r3, [r7, #12]
 800271e:	6a5b      	ldr	r3, [r3, #36]	@ 0x24
 8002720:	f443 2280 	orr.w	r2, r3, #262144	@ 0x40000
 8002724:	68fb      	ldr	r3, [r7, #12]
 8002726:	625a      	str	r2, [r3, #36]	@ 0x24

    return HAL_ERROR;
 8002728:	2301      	movs	r3, #1
  }
}
 800272a:	4618      	mov	r0, r3
 800272c:	371c      	adds	r7, #28
 800272e:	46bd      	mov	sp, r7
 8002730:	f85d 7b04 	ldr.w	r7, [sp], #4
 8002734:	4770      	bx	lr

08002736 <HAL_CAN_GetRxFifoFillLevel>:
  * @param  RxFifo Rx FIFO.
  *         This parameter can be a value of @arg CAN_receive_FIFO_number.
  * @retval Number of messages available in Rx FIFO.
  */
uint32_t HAL_CAN_GetRxFifoFillLevel(const CAN_HandleTypeDef *hcan, uint32_t RxFifo)
{
 8002736:	b480      	push	{r7}
 8002738:	b085      	sub	sp, #20
 800273a:	af00      	add	r7, sp, #0
 800273c:	6078      	str	r0, [r7, #4]
 800273e:	6039      	str	r1, [r7, #0]
  uint32_t filllevel = 0U;
 8002740:	2300      	movs	r3, #0
 8002742:	60fb      	str	r3, [r7, #12]
  HAL_CAN_StateTypeDef state = hcan->State;
 8002744:	687b      	ldr	r3, [r7, #4]
 8002746:	f893 3020 	ldrb.w	r3, [r3, #32]
 800274a:	72fb      	strb	r3, [r7, #11]

  /* Check function parameters */
  assert_param(IS_CAN_RX_FIFO(RxFifo));

  if ((state == HAL_CAN_STATE_READY) ||
 800274c:	7afb      	ldrb	r3, [r7, #11]
 800274e:	2b01      	cmp	r3, #1
 8002750:	d002      	beq.n	8002758 <HAL_CAN_GetRxFifoFillLevel+0x22>
 8002752:	7afb      	ldrb	r3, [r7, #11]
 8002754:	2b02      	cmp	r3, #2
 8002756:	d10f      	bne.n	8002778 <HAL_CAN_GetRxFifoFillLevel+0x42>
      (state == HAL_CAN_STATE_LISTENING))
  {
    if (RxFifo == CAN_RX_FIFO0)
 8002758:	683b      	ldr	r3, [r7, #0]
 800275a:	2b00      	cmp	r3, #0
 800275c:	d106      	bne.n	800276c <HAL_CAN_GetRxFifoFillLevel+0x36>
    {
      filllevel = hcan->Instance->RF0R & CAN_RF0R_FMP0;
 800275e:	687b      	ldr	r3, [r7, #4]
 8002760:	681b      	ldr	r3, [r3, #0]
 8002762:	68db      	ldr	r3, [r3, #12]
 8002764:	f003 0303 	and.w	r3, r3, #3
 8002768:	60fb      	str	r3, [r7, #12]
 800276a:	e005      	b.n	8002778 <HAL_CAN_GetRxFifoFillLevel+0x42>
    }
    else /* RxFifo == CAN_RX_FIFO1 */
    {
      filllevel = hcan->Instance->RF1R & CAN_RF1R_FMP1;
 800276c:	687b      	ldr	r3, [r7, #4]
 800276e:	681b      	ldr	r3, [r3, #0]
 8002770:	691b      	ldr	r3, [r3, #16]
 8002772:	f003 0303 	and.w	r3, r3, #3
 8002776:	60fb      	str	r3, [r7, #12]
    }
  }

  /* Return Rx FIFO fill level */
  return filllevel;
 8002778:	68fb      	ldr	r3, [r7, #12]
}
 800277a:	4618      	mov	r0, r3
 800277c:	3714      	adds	r7, #20
 800277e:	46bd      	mov	sp, r7
 8002780:	f85d 7b04 	ldr.w	r7, [sp], #4
 8002784:	4770      	bx	lr

08002786 <HAL_CAN_IRQHandler>:
  * @param  hcan pointer to a CAN_HandleTypeDef structure that contains
  *         the configuration information for the specified CAN.
  * @retval None
  */
void HAL_CAN_IRQHandler(CAN_HandleTypeDef *hcan)
{
 8002786:	b580      	push	{r7, lr}
 8002788:	b08a      	sub	sp, #40	@ 0x28
 800278a:	af00      	add	r7, sp, #0
 800278c:	6078      	str	r0, [r7, #4]
  uint32_t errorcode = HAL_CAN_ERROR_NONE;
 800278e:	2300      	movs	r3, #0
 8002790:	627b      	str	r3, [r7, #36]	@ 0x24
  uint32_t interrupts = READ_REG(hcan->Instance->IER);
 8002792:	687b      	ldr	r3, [r7, #4]
 8002794:	681b      	ldr	r3, [r3, #0]
 8002796:	695b      	ldr	r3, [r3, #20]
 8002798:	623b      	str	r3, [r7, #32]
  uint32_t msrflags = READ_REG(hcan->Instance->MSR);
 800279a:	687b      	ldr	r3, [r7, #4]
 800279c:	681b      	ldr	r3, [r3, #0]
 800279e:	685b      	ldr	r3, [r3, #4]
 80027a0:	61fb      	str	r3, [r7, #28]
  uint32_t tsrflags = READ_REG(hcan->Instance->TSR);
 80027a2:	687b      	ldr	r3, [r7, #4]
 80027a4:	681b      	ldr	r3, [r3, #0]
 80027a6:	689b      	ldr	r3, [r3, #8]
 80027a8:	61bb      	str	r3, [r7, #24]
  uint32_t rf0rflags = READ_REG(hcan->Instance->RF0R);
 80027aa:	687b      	ldr	r3, [r7, #4]
 80027ac:	681b      	ldr	r3, [r3, #0]
 80027ae:	68db      	ldr	r3, [r3, #12]
 80027b0:	617b      	str	r3, [r7, #20]
  uint32_t rf1rflags = READ_REG(hcan->Instance->RF1R);
 80027b2:	687b      	ldr	r3, [r7, #4]
 80027b4:	681b      	ldr	r3, [r3, #0]
 80027b6:	691b      	ldr	r3, [r3, #16]
 80027b8:	613b      	str	r3, [r7, #16]
  uint32_t esrflags = READ_REG(hcan->Instance->ESR);
 80027ba:	687b      	ldr	r3, [r7, #4]
 80027bc:	681b      	ldr	r3, [r3, #0]
 80027be:	699b      	ldr	r3, [r3, #24]
 80027c0:	60fb      	str	r3, [r7, #12]

  /* Transmit Mailbox empty interrupt management *****************************/
  if ((interrupts & CAN_IT_TX_MAILBOX_EMPTY) != 0U)
 80027c2:	6a3b      	ldr	r3, [r7, #32]
 80027c4:	f003 0301 	and.w	r3, r3, #1
 80027c8:	2b00      	cmp	r3, #0
 80027ca:	d07c      	beq.n	80028c6 <HAL_CAN_IRQHandler+0x140>
  {
    /* Transmit Mailbox 0 management *****************************************/
    if ((tsrflags & CAN_TSR_RQCP0) != 0U)
 80027cc:	69bb      	ldr	r3, [r7, #24]
 80027ce:	f003 0301 	and.w	r3, r3, #1
 80027d2:	2b00      	cmp	r3, #0
 80027d4:	d023      	beq.n	800281e <HAL_CAN_IRQHandler+0x98>
    {
      /* Clear the Transmission Complete flag (and TXOK0,ALST0,TERR0 bits) */
      __HAL_CAN_CLEAR_FLAG(hcan, CAN_FLAG_RQCP0);
 80027d6:	687b      	ldr	r3, [r7, #4]
 80027d8:	681b      	ldr	r3, [r3, #0]
 80027da:	2201      	movs	r2, #1
 80027dc:	609a      	str	r2, [r3, #8]

      if ((tsrflags & CAN_TSR_TXOK0) != 0U)
 80027de:	69bb      	ldr	r3, [r7, #24]
 80027e0:	f003 0302 	and.w	r3, r3, #2
 80027e4:	2b00      	cmp	r3, #0
 80027e6:	d003      	beq.n	80027f0 <HAL_CAN_IRQHandler+0x6a>
#if USE_HAL_CAN_REGISTER_CALLBACKS == 1
        /* Call registered callback*/
        hcan->TxMailbox0CompleteCallback(hcan);
#else
        /* Call weak (surcharged) callback */
        HAL_CAN_TxMailbox0CompleteCallback(hcan);
 80027e8:	6878      	ldr	r0, [r7, #4]
 80027ea:	f000 f983 	bl	8002af4 <HAL_CAN_TxMailbox0CompleteCallback>
 80027ee:	e016      	b.n	800281e <HAL_CAN_IRQHandler+0x98>
#endif /* USE_HAL_CAN_REGISTER_CALLBACKS */
      }
      else
      {
        if ((tsrflags & CAN_TSR_ALST0) != 0U)
 80027f0:	69bb      	ldr	r3, [r7, #24]
 80027f2:	f003 0304 	and.w	r3, r3, #4
 80027f6:	2b00      	cmp	r3, #0
 80027f8:	d004      	beq.n	8002804 <HAL_CAN_IRQHandler+0x7e>
        {
          /* Update error code */
          errorcode |= HAL_CAN_ERROR_TX_ALST0;
 80027fa:	6a7b      	ldr	r3, [r7, #36]	@ 0x24
 80027fc:	f443 6300 	orr.w	r3, r3, #2048	@ 0x800
 8002800:	627b      	str	r3, [r7, #36]	@ 0x24
 8002802:	e00c      	b.n	800281e <HAL_CAN_IRQHandler+0x98>
        }
        else if ((tsrflags & CAN_TSR_TERR0) != 0U)
 8002804:	69bb      	ldr	r3, [r7, #24]
 8002806:	f003 0308 	and.w	r3, r3, #8
 800280a:	2b00      	cmp	r3, #0
 800280c:	d004      	beq.n	8002818 <HAL_CAN_IRQHandler+0x92>
        {
          /* Update error code */
          errorcode |= HAL_CAN_ERROR_TX_TERR0;
 800280e:	6a7b      	ldr	r3, [r7, #36]	@ 0x24
 8002810:	f443 5380 	orr.w	r3, r3, #4096	@ 0x1000
 8002814:	627b      	str	r3, [r7, #36]	@ 0x24
 8002816:	e002      	b.n	800281e <HAL_CAN_IRQHandler+0x98>
#if USE_HAL_CAN_REGISTER_CALLBACKS == 1
          /* Call registered callback*/
          hcan->TxMailbox0AbortCallback(hcan);
#else
          /* Call weak (surcharged) callback */
          HAL_CAN_TxMailbox0AbortCallback(hcan);
 8002818:	6878      	ldr	r0, [r7, #4]
 800281a:	f000 f989 	bl	8002b30 <HAL_CAN_TxMailbox0AbortCallback>
        }
      }
    }

    /* Transmit Mailbox 1 management *****************************************/
    if ((tsrflags & CAN_TSR_RQCP1) != 0U)
 800281e:	69bb      	ldr	r3, [r7, #24]
 8002820:	f403 7380 	and.w	r3, r3, #256	@ 0x100
 8002824:	2b00      	cmp	r3, #0
 8002826:	d024      	beq.n	8002872 <HAL_CAN_IRQHandler+0xec>
    {
      /* Clear the Transmission Complete flag (and TXOK1,ALST1,TERR1 bits) */
      __HAL_CAN_CLEAR_FLAG(hcan, CAN_FLAG_RQCP1);
 8002828:	687b      	ldr	r3, [r7, #4]
 800282a:	681b      	ldr	r3, [r3, #0]
 800282c:	f44f 7280 	mov.w	r2, #256	@ 0x100
 8002830:	609a      	str	r2, [r3, #8]

      if ((tsrflags & CAN_TSR_TXOK1) != 0U)
 8002832:	69bb      	ldr	r3, [r7, #24]
 8002834:	f403 7300 	and.w	r3, r3, #512	@ 0x200
 8002838:	2b00      	cmp	r3, #0
 800283a:	d003      	beq.n	8002844 <HAL_CAN_IRQHandler+0xbe>
#if USE_HAL_CAN_REGISTER_CALLBACKS == 1
        /* Call registered callback*/
        hcan->TxMailbox1CompleteCallback(hcan);
#else
        /* Call weak (surcharged) callback */
        HAL_CAN_TxMailbox1CompleteCallback(hcan);
 800283c:	6878      	ldr	r0, [r7, #4]
 800283e:	f000 f963 	bl	8002b08 <HAL_CAN_TxMailbox1CompleteCallback>
 8002842:	e016      	b.n	8002872 <HAL_CAN_IRQHandler+0xec>
#endif /* USE_HAL_CAN_REGISTER_CALLBACKS */
      }
      else
      {
        if ((tsrflags & CAN_TSR_ALST1) != 0U)
 8002844:	69bb      	ldr	r3, [r7, #24]
 8002846:	f403 6380 	and.w	r3, r3, #1024	@ 0x400
 800284a:	2b00      	cmp	r3, #0
 800284c:	d004      	beq.n	8002858 <HAL_CAN_IRQHandler+0xd2>
        {
          /* Update error code */
          errorcode |= HAL_CAN_ERROR_TX_ALST1;
 800284e:	6a7b      	ldr	r3, [r7, #36]	@ 0x24
 8002850:	f443 5300 	orr.w	r3, r3, #8192	@ 0x2000
 8002854:	627b      	str	r3, [r7, #36]	@ 0x24
 8002856:	e00c      	b.n	8002872 <HAL_CAN_IRQHandler+0xec>
        }
        else if ((tsrflags & CAN_TSR_TERR1) != 0U)
 8002858:	69bb      	ldr	r3, [r7, #24]
 800285a:	f403 6300 	and.w	r3, r3, #2048	@ 0x800
 800285e:	2b00      	cmp	r3, #0
 8002860:	d004      	beq.n	800286c <HAL_CAN_IRQHandler+0xe6>
        {
          /* Update error code */
          errorcode |= HAL_CAN_ERROR_TX_TERR1;
 8002862:	6a7b      	ldr	r3, [r7, #36]	@ 0x24
 8002864:	f443 4380 	orr.w	r3, r3, #16384	@ 0x4000
 8002868:	627b      	str	r3, [r7, #36]	@ 0x24
 800286a:	e002      	b.n	8002872 <HAL_CAN_IRQHandler+0xec>
#if USE_HAL_CAN_REGISTER_CALLBACKS == 1
          /* Call registered callback*/
          hcan->TxMailbox1AbortCallback(hcan);
#else
          /* Call weak (surcharged) callback */
          HAL_CAN_TxMailbox1AbortCallback(hcan);
 800286c:	6878      	ldr	r0, [r7, #4]
 800286e:	f000 f969 	bl	8002b44 <HAL_CAN_TxMailbox1AbortCallback>
        }
      }
    }

    /* Transmit Mailbox 2 management *****************************************/
    if ((tsrflags & CAN_TSR_RQCP2) != 0U)
 8002872:	69bb      	ldr	r3, [r7, #24]
 8002874:	f403 3380 	and.w	r3, r3, #65536	@ 0x10000
 8002878:	2b00      	cmp	r3, #0
 800287a:	d024      	beq.n	80028c6 <HAL_CAN_IRQHandler+0x140>
    {
      /* Clear the Transmission Complete flag (and TXOK2,ALST2,TERR2 bits) */
      __HAL_CAN_CLEAR_FLAG(hcan, CAN_FLAG_RQCP2);
 800287c:	687b      	ldr	r3, [r7, #4]
 800287e:	681b      	ldr	r3, [r3, #0]
 8002880:	f44f 3280 	mov.w	r2, #65536	@ 0x10000
 8002884:	609a      	str	r2, [r3, #8]

      if ((tsrflags & CAN_TSR_TXOK2) != 0U)
 8002886:	69bb      	ldr	r3, [r7, #24]
 8002888:	f403 3300 	and.w	r3, r3, #131072	@ 0x20000
 800288c:	2b00      	cmp	r3, #0
 800288e:	d003      	beq.n	8002898 <HAL_CAN_IRQHandler+0x112>
#if USE_HAL_CAN_REGISTER_CALLBACKS == 1
        /* Call registered callback*/
        hcan->TxMailbox2CompleteCallback(hcan);
#else
        /* Call weak (surcharged) callback */
        HAL_CAN_TxMailbox2CompleteCallback(hcan);
 8002890:	6878      	ldr	r0, [r7, #4]
 8002892:	f000 f943 	bl	8002b1c <HAL_CAN_TxMailbox2CompleteCallback>
 8002896:	e016      	b.n	80028c6 <HAL_CAN_IRQHandler+0x140>
#endif /* USE_HAL_CAN_REGISTER_CALLBACKS */
      }
      else
      {
        if ((tsrflags & CAN_TSR_ALST2) != 0U)
 8002898:	69bb      	ldr	r3, [r7, #24]
 800289a:	f403 2380 	and.w	r3, r3, #262144	@ 0x40000
 800289e:	2b00      	cmp	r3, #0
 80028a0:	d004      	beq.n	80028ac <HAL_CAN_IRQHandler+0x126>
        {
          /* Update error code */
          errorcode |= HAL_CAN_ERROR_TX_ALST2;
 80028a2:	6a7b      	ldr	r3, [r7, #36]	@ 0x24
 80028a4:	f443 4300 	orr.w	r3, r3, #32768	@ 0x8000
 80028a8:	627b      	str	r3, [r7, #36]	@ 0x24
 80028aa:	e00c      	b.n	80028c6 <HAL_CAN_IRQHandler+0x140>
        }
        else if ((tsrflags & CAN_TSR_TERR2) != 0U)
 80028ac:	69bb      	ldr	r3, [r7, #24]
 80028ae:	f403 2300 	and.w	r3, r3, #524288	@ 0x80000
 80028b2:	2b00      	cmp	r3, #0
 80028b4:	d004      	beq.n	80028c0 <HAL_CAN_IRQHandler+0x13a>
        {
          /* Update error code */
          errorcode |= HAL_CAN_ERROR_TX_TERR2;
 80028b6:	6a7b      	ldr	r3, [r7, #36]	@ 0x24
 80028b8:	f443 3380 	orr.w	r3, r3, #65536	@ 0x10000
 80028bc:	627b      	str	r3, [r7, #36]	@ 0x24
 80028be:	e002      	b.n	80028c6 <HAL_CAN_IRQHandler+0x140>
#if USE_HAL_CAN_REGISTER_CALLBACKS == 1
          /* Call registered callback*/
          hcan->TxMailbox2AbortCallback(hcan);
#else
          /* Call weak (surcharged) callback */
          HAL_CAN_TxMailbox2AbortCallback(hcan);
 80028c0:	6878      	ldr	r0, [r7, #4]
 80028c2:	f000 f949 	bl	8002b58 <HAL_CAN_TxMailbox2AbortCallback>
      }
    }
  }

  /* Receive FIFO 0 overrun interrupt management *****************************/
  if ((interrupts & CAN_IT_RX_FIFO0_OVERRUN) != 0U)
 80028c6:	6a3b      	ldr	r3, [r7, #32]
 80028c8:	f003 0308 	and.w	r3, r3, #8
 80028cc:	2b00      	cmp	r3, #0
 80028ce:	d00c      	beq.n	80028ea <HAL_CAN_IRQHandler+0x164>
  {
    if ((rf0rflags & CAN_RF0R_FOVR0) != 0U)
 80028d0:	697b      	ldr	r3, [r7, #20]
 80028d2:	f003 0310 	and.w	r3, r3, #16
 80028d6:	2b00      	cmp	r3, #0
 80028d8:	d007      	beq.n	80028ea <HAL_CAN_IRQHandler+0x164>
    {
      /* Set CAN error code to Rx Fifo 0 overrun error */
      errorcode |= HAL_CAN_ERROR_RX_FOV0;
 80028da:	6a7b      	ldr	r3, [r7, #36]	@ 0x24
 80028dc:	f443 7300 	orr.w	r3, r3, #512	@ 0x200
 80028e0:	627b      	str	r3, [r7, #36]	@ 0x24

      /* Clear FIFO0 Overrun Flag */
      __HAL_CAN_CLEAR_FLAG(hcan, CAN_FLAG_FOV0);
 80028e2:	687b      	ldr	r3, [r7, #4]
 80028e4:	681b      	ldr	r3, [r3, #0]
 80028e6:	2210      	movs	r2, #16
 80028e8:	60da      	str	r2, [r3, #12]
    }
  }

  /* Receive FIFO 0 full interrupt management ********************************/
  if ((interrupts & CAN_IT_RX_FIFO0_FULL) != 0U)
 80028ea:	6a3b      	ldr	r3, [r7, #32]
 80028ec:	f003 0304 	and.w	r3, r3, #4
 80028f0:	2b00      	cmp	r3, #0
 80028f2:	d00b      	beq.n	800290c <HAL_CAN_IRQHandler+0x186>
  {
    if ((rf0rflags & CAN_RF0R_FULL0) != 0U)
 80028f4:	697b      	ldr	r3, [r7, #20]
 80028f6:	f003 0308 	and.w	r3, r3, #8
 80028fa:	2b00      	cmp	r3, #0
 80028fc:	d006      	beq.n	800290c <HAL_CAN_IRQHandler+0x186>
    {
      /* Clear FIFO 0 full Flag */
      __HAL_CAN_CLEAR_FLAG(hcan, CAN_FLAG_FF0);
 80028fe:	687b      	ldr	r3, [r7, #4]
 8002900:	681b      	ldr	r3, [r3, #0]
 8002902:	2208      	movs	r2, #8
 8002904:	60da      	str	r2, [r3, #12]
#if USE_HAL_CAN_REGISTER_CALLBACKS == 1
      /* Call registered callback*/
      hcan->RxFifo0FullCallback(hcan);
#else
      /* Call weak (surcharged) callback */
      HAL_CAN_RxFifo0FullCallback(hcan);
 8002906:	6878      	ldr	r0, [r7, #4]
 8002908:	f000 f930 	bl	8002b6c <HAL_CAN_RxFifo0FullCallback>
#endif /* USE_HAL_CAN_REGISTER_CALLBACKS */
    }
  }

  /* Receive FIFO 0 message pending interrupt management *********************/
  if ((interrupts & CAN_IT_RX_FIFO0_MSG_PENDING) != 0U)
 800290c:	6a3b      	ldr	r3, [r7, #32]
 800290e:	f003 0302 	and.w	r3, r3, #2
 8002912:	2b00      	cmp	r3, #0
 8002914:	d009      	beq.n	800292a <HAL_CAN_IRQHandler+0x1a4>
  {
    /* Check if message is still pending */
    if ((hcan->Instance->RF0R & CAN_RF0R_FMP0) != 0U)
 8002916:	687b      	ldr	r3, [r7, #4]
 8002918:	681b      	ldr	r3, [r3, #0]
 800291a:	68db      	ldr	r3, [r3, #12]
 800291c:	f003 0303 	and.w	r3, r3, #3
 8002920:	2b00      	cmp	r3, #0
 8002922:	d002      	beq.n	800292a <HAL_CAN_IRQHandler+0x1a4>
#if USE_HAL_CAN_REGISTER_CALLBACKS == 1
      /* Call registered callback*/
      hcan->RxFifo0MsgPendingCallback(hcan);
#else
      /* Call weak (surcharged) callback */
      HAL_CAN_RxFifo0MsgPendingCallback(hcan);
 8002924:	6878      	ldr	r0, [r7, #4]
 8002926:	f7fd fed9 	bl	80006dc <HAL_CAN_RxFifo0MsgPendingCallback>
#endif /* USE_HAL_CAN_REGISTER_CALLBACKS */
    }
  }

  /* Receive FIFO 1 overrun interrupt management *****************************/
  if ((interrupts & CAN_IT_RX_FIFO1_OVERRUN) != 0U)
 800292a:	6a3b      	ldr	r3, [r7, #32]
 800292c:	f003 0340 	and.w	r3, r3, #64	@ 0x40
 8002930:	2b00      	cmp	r3, #0
 8002932:	d00c      	beq.n	800294e <HAL_CAN_IRQHandler+0x1c8>
  {
    if ((rf1rflags & CAN_RF1R_FOVR1) != 0U)
 8002934:	693b      	ldr	r3, [r7, #16]
 8002936:	f003 0310 	and.w	r3, r3, #16
 800293a:	2b00      	cmp	r3, #0
 800293c:	d007      	beq.n	800294e <HAL_CAN_IRQHandler+0x1c8>
    {
      /* Set CAN error code to Rx Fifo 1 overrun error */
      errorcode |= HAL_CAN_ERROR_RX_FOV1;
 800293e:	6a7b      	ldr	r3, [r7, #36]	@ 0x24
 8002940:	f443 6380 	orr.w	r3, r3, #1024	@ 0x400
 8002944:	627b      	str	r3, [r7, #36]	@ 0x24

      /* Clear FIFO1 Overrun Flag */
      __HAL_CAN_CLEAR_FLAG(hcan, CAN_FLAG_FOV1);
 8002946:	687b      	ldr	r3, [r7, #4]
 8002948:	681b      	ldr	r3, [r3, #0]
 800294a:	2210      	movs	r2, #16
 800294c:	611a      	str	r2, [r3, #16]
    }
  }

  /* Receive FIFO 1 full interrupt management ********************************/
  if ((interrupts & CAN_IT_RX_FIFO1_FULL) != 0U)
 800294e:	6a3b      	ldr	r3, [r7, #32]
 8002950:	f003 0320 	and.w	r3, r3, #32
 8002954:	2b00      	cmp	r3, #0
 8002956:	d00b      	beq.n	8002970 <HAL_CAN_IRQHandler+0x1ea>
  {
    if ((rf1rflags & CAN_RF1R_FULL1) != 0U)
 8002958:	693b      	ldr	r3, [r7, #16]
 800295a:	f003 0308 	and.w	r3, r3, #8
 800295e:	2b00      	cmp	r3, #0
 8002960:	d006      	beq.n	8002970 <HAL_CAN_IRQHandler+0x1ea>
    {
      /* Clear FIFO 1 full Flag */
      __HAL_CAN_CLEAR_FLAG(hcan, CAN_FLAG_FF1);
 8002962:	687b      	ldr	r3, [r7, #4]
 8002964:	681b      	ldr	r3, [r3, #0]
 8002966:	2208      	movs	r2, #8
 8002968:	611a      	str	r2, [r3, #16]
#if USE_HAL_CAN_REGISTER_CALLBACKS == 1
      /* Call registered callback*/
      hcan->RxFifo1FullCallback(hcan);
#else
      /* Call weak (surcharged) callback */
      HAL_CAN_RxFifo1FullCallback(hcan);
 800296a:	6878      	ldr	r0, [r7, #4]
 800296c:	f000 f912 	bl	8002b94 <HAL_CAN_RxFifo1FullCallback>
#endif /* USE_HAL_CAN_REGISTER_CALLBACKS */
    }
  }

  /* Receive FIFO 1 message pending interrupt management *********************/
  if ((interrupts & CAN_IT_RX_FIFO1_MSG_PENDING) != 0U)
 8002970:	6a3b      	ldr	r3, [r7, #32]
 8002972:	f003 0310 	and.w	r3, r3, #16
 8002976:	2b00      	cmp	r3, #0
 8002978:	d009      	beq.n	800298e <HAL_CAN_IRQHandler+0x208>
  {
    /* Check if message is still pending */
    if ((hcan->Instance->RF1R & CAN_RF1R_FMP1) != 0U)
 800297a:	687b      	ldr	r3, [r7, #4]
 800297c:	681b      	ldr	r3, [r3, #0]
 800297e:	691b      	ldr	r3, [r3, #16]
 8002980:	f003 0303 	and.w	r3, r3, #3
 8002984:	2b00      	cmp	r3, #0
 8002986:	d002      	beq.n	800298e <HAL_CAN_IRQHandler+0x208>
#if USE_HAL_CAN_REGISTER_CALLBACKS == 1
      /* Call registered callback*/
      hcan->RxFifo1MsgPendingCallback(hcan);
#else
      /* Call weak (surcharged) callback */
      HAL_CAN_RxFifo1MsgPendingCallback(hcan);
 8002988:	6878      	ldr	r0, [r7, #4]
 800298a:	f000 f8f9 	bl	8002b80 <HAL_CAN_RxFifo1MsgPendingCallback>
#endif /* USE_HAL_CAN_REGISTER_CALLBACKS */
    }
  }

  /* Sleep interrupt management *********************************************/
  if ((interrupts & CAN_IT_SLEEP_ACK) != 0U)
 800298e:	6a3b      	ldr	r3, [r7, #32]
 8002990:	f403 3300 	and.w	r3, r3, #131072	@ 0x20000
 8002994:	2b00      	cmp	r3, #0
 8002996:	d00b      	beq.n	80029b0 <HAL_CAN_IRQHandler+0x22a>
  {
    if ((msrflags & CAN_MSR_SLAKI) != 0U)
 8002998:	69fb      	ldr	r3, [r7, #28]
 800299a:	f003 0310 	and.w	r3, r3, #16
 800299e:	2b00      	cmp	r3, #0
 80029a0:	d006      	beq.n	80029b0 <HAL_CAN_IRQHandler+0x22a>
    {
      /* Clear Sleep interrupt Flag */
      __HAL_CAN_CLEAR_FLAG(hcan, CAN_FLAG_SLAKI);
 80029a2:	687b      	ldr	r3, [r7, #4]
 80029a4:	681b      	ldr	r3, [r3, #0]
 80029a6:	2210      	movs	r2, #16
 80029a8:	605a      	str	r2, [r3, #4]
#if USE_HAL_CAN_REGISTER_CALLBACKS == 1
      /* Call registered callback*/
      hcan->SleepCallback(hcan);
#else
      /* Call weak (surcharged) callback */
      HAL_CAN_SleepCallback(hcan);
 80029aa:	6878      	ldr	r0, [r7, #4]
 80029ac:	f000 f8fc 	bl	8002ba8 <HAL_CAN_SleepCallback>
#endif /* USE_HAL_CAN_REGISTER_CALLBACKS */
    }
  }

  /* WakeUp interrupt management *********************************************/
  if ((interrupts & CAN_IT_WAKEUP) != 0U)
 80029b0:	6a3b      	ldr	r3, [r7, #32]
 80029b2:	f403 3380 	and.w	r3, r3, #65536	@ 0x10000
 80029b6:	2b00      	cmp	r3, #0
 80029b8:	d00b      	beq.n	80029d2 <HAL_CAN_IRQHandler+0x24c>
  {
    if ((msrflags & CAN_MSR_WKUI) != 0U)
 80029ba:	69fb      	ldr	r3, [r7, #28]
 80029bc:	f003 0308 	and.w	r3, r3, #8
 80029c0:	2b00      	cmp	r3, #0
 80029c2:	d006      	beq.n	80029d2 <HAL_CAN_IRQHandler+0x24c>
    {
      /* Clear WakeUp Flag */
      __HAL_CAN_CLEAR_FLAG(hcan, CAN_FLAG_WKU);
 80029c4:	687b      	ldr	r3, [r7, #4]
 80029c6:	681b      	ldr	r3, [r3, #0]
 80029c8:	2208      	movs	r2, #8
 80029ca:	605a      	str	r2, [r3, #4]
#if USE_HAL_CAN_REGISTER_CALLBACKS == 1
      /* Call registered callback*/
      hcan->WakeUpFromRxMsgCallback(hcan);
#else
      /* Call weak (surcharged) callback */
      HAL_CAN_WakeUpFromRxMsgCallback(hcan);
 80029cc:	6878      	ldr	r0, [r7, #4]
 80029ce:	f000 f8f5 	bl	8002bbc <HAL_CAN_WakeUpFromRxMsgCallback>
#endif /* USE_HAL_CAN_REGISTER_CALLBACKS */
    }
  }

  /* Error interrupts management *********************************************/
  if ((interrupts & CAN_IT_ERROR) != 0U)
 80029d2:	6a3b      	ldr	r3, [r7, #32]
 80029d4:	f403 4300 	and.w	r3, r3, #32768	@ 0x8000
 80029d8:	2b00      	cmp	r3, #0
 80029da:	d07b      	beq.n	8002ad4 <HAL_CAN_IRQHandler+0x34e>
  {
    if ((msrflags & CAN_MSR_ERRI) != 0U)
 80029dc:	69fb      	ldr	r3, [r7, #28]
 80029de:	f003 0304 	and.w	r3, r3, #4
 80029e2:	2b00      	cmp	r3, #0
 80029e4:	d072      	beq.n	8002acc <HAL_CAN_IRQHandler+0x346>
    {
      /* Check Error Warning Flag */
      if (((interrupts & CAN_IT_ERROR_WARNING) != 0U) &&
 80029e6:	6a3b      	ldr	r3, [r7, #32]
 80029e8:	f403 7380 	and.w	r3, r3, #256	@ 0x100
 80029ec:	2b00      	cmp	r3, #0
 80029ee:	d008      	beq.n	8002a02 <HAL_CAN_IRQHandler+0x27c>
          ((esrflags & CAN_ESR_EWGF) != 0U))
 80029f0:	68fb      	ldr	r3, [r7, #12]
 80029f2:	f003 0301 	and.w	r3, r3, #1
      if (((interrupts & CAN_IT_ERROR_WARNING) != 0U) &&
 80029f6:	2b00      	cmp	r3, #0
 80029f8:	d003      	beq.n	8002a02 <HAL_CAN_IRQHandler+0x27c>
      {
        /* Set CAN error code to Error Warning */
        errorcode |= HAL_CAN_ERROR_EWG;
 80029fa:	6a7b      	ldr	r3, [r7, #36]	@ 0x24
 80029fc:	f043 0301 	orr.w	r3, r3, #1
 8002a00:	627b      	str	r3, [r7, #36]	@ 0x24

        /* No need for clear of Error Warning Flag as read-only */
      }

      /* Check Error Passive Flag */
      if (((interrupts & CAN_IT_ERROR_PASSIVE) != 0U) &&
 8002a02:	6a3b      	ldr	r3, [r7, #32]
 8002a04:	f403 7300 	and.w	r3, r3, #512	@ 0x200
 8002a08:	2b00      	cmp	r3, #0
 8002a0a:	d008      	beq.n	8002a1e <HAL_CAN_IRQHandler+0x298>
          ((esrflags & CAN_ESR_EPVF) != 0U))
 8002a0c:	68fb      	ldr	r3, [r7, #12]
 8002a0e:	f003 0302 	and.w	r3, r3, #2
      if (((interrupts & CAN_IT_ERROR_PASSIVE) != 0U) &&
 8002a12:	2b00      	cmp	r3, #0
 8002a14:	d003      	beq.n	8002a1e <HAL_CAN_IRQHandler+0x298>
      {
        /* Set CAN error code to Error Passive */
        errorcode |= HAL_CAN_ERROR_EPV;
 8002a16:	6a7b      	ldr	r3, [r7, #36]	@ 0x24
 8002a18:	f043 0302 	orr.w	r3, r3, #2
 8002a1c:	627b      	str	r3, [r7, #36]	@ 0x24

        /* No need for clear of Error Passive Flag as read-only */
      }

      /* Check Bus-off Flag */
      if (((interrupts & CAN_IT_BUSOFF) != 0U) &&
 8002a1e:	6a3b      	ldr	r3, [r7, #32]
 8002a20:	f403 6380 	and.w	r3, r3, #1024	@ 0x400
 8002a24:	2b00      	cmp	r3, #0
 8002a26:	d008      	beq.n	8002a3a <HAL_CAN_IRQHandler+0x2b4>
          ((esrflags & CAN_ESR_BOFF) != 0U))
 8002a28:	68fb      	ldr	r3, [r7, #12]
 8002a2a:	f003 0304 	and.w	r3, r3, #4
      if (((interrupts & CAN_IT_BUSOFF) != 0U) &&
 8002a2e:	2b00      	cmp	r3, #0
 8002a30:	d003      	beq.n	8002a3a <HAL_CAN_IRQHandler+0x2b4>
      {
        /* Set CAN error code to Bus-Off */
        errorcode |= HAL_CAN_ERROR_BOF;
 8002a32:	6a7b      	ldr	r3, [r7, #36]	@ 0x24
 8002a34:	f043 0304 	orr.w	r3, r3, #4
 8002a38:	627b      	str	r3, [r7, #36]	@ 0x24

        /* No need for clear of Error Bus-Off as read-only */
      }

      /* Check Last Error Code Flag */
      if (((interrupts & CAN_IT_LAST_ERROR_CODE) != 0U) &&
 8002a3a:	6a3b      	ldr	r3, [r7, #32]
 8002a3c:	f403 6300 	and.w	r3, r3, #2048	@ 0x800
 8002a40:	2b00      	cmp	r3, #0
 8002a42:	d043      	beq.n	8002acc <HAL_CAN_IRQHandler+0x346>
          ((esrflags & CAN_ESR_LEC) != 0U))
 8002a44:	68fb      	ldr	r3, [r7, #12]
 8002a46:	f003 0370 	and.w	r3, r3, #112	@ 0x70
      if (((interrupts & CAN_IT_LAST_ERROR_CODE) != 0U) &&
 8002a4a:	2b00      	cmp	r3, #0
 8002a4c:	d03e      	beq.n	8002acc <HAL_CAN_IRQHandler+0x346>
      {
        switch (esrflags & CAN_ESR_LEC)
 8002a4e:	68fb      	ldr	r3, [r7, #12]
 8002a50:	f003 0370 	and.w	r3, r3, #112	@ 0x70
 8002a54:	2b60      	cmp	r3, #96	@ 0x60
 8002a56:	d02b      	beq.n	8002ab0 <HAL_CAN_IRQHandler+0x32a>
 8002a58:	2b60      	cmp	r3, #96	@ 0x60
 8002a5a:	d82e      	bhi.n	8002aba <HAL_CAN_IRQHandler+0x334>
 8002a5c:	2b50      	cmp	r3, #80	@ 0x50
 8002a5e:	d022      	beq.n	8002aa6 <HAL_CAN_IRQHandler+0x320>
 8002a60:	2b50      	cmp	r3, #80	@ 0x50
 8002a62:	d82a      	bhi.n	8002aba <HAL_CAN_IRQHandler+0x334>
 8002a64:	2b40      	cmp	r3, #64	@ 0x40
 8002a66:	d019      	beq.n	8002a9c <HAL_CAN_IRQHandler+0x316>
 8002a68:	2b40      	cmp	r3, #64	@ 0x40
 8002a6a:	d826      	bhi.n	8002aba <HAL_CAN_IRQHandler+0x334>
 8002a6c:	2b30      	cmp	r3, #48	@ 0x30
 8002a6e:	d010      	beq.n	8002a92 <HAL_CAN_IRQHandler+0x30c>
 8002a70:	2b30      	cmp	r3, #48	@ 0x30
 8002a72:	d822      	bhi.n	8002aba <HAL_CAN_IRQHandler+0x334>
 8002a74:	2b10      	cmp	r3, #16
 8002a76:	d002      	beq.n	8002a7e <HAL_CAN_IRQHandler+0x2f8>
 8002a78:	2b20      	cmp	r3, #32
 8002a7a:	d005      	beq.n	8002a88 <HAL_CAN_IRQHandler+0x302>
          case (CAN_ESR_LEC_2 | CAN_ESR_LEC_1):
            /* Set CAN error code to CRC error */
            errorcode |= HAL_CAN_ERROR_CRC;
            break;
          default:
            break;
 8002a7c:	e01d      	b.n	8002aba <HAL_CAN_IRQHandler+0x334>
            errorcode |= HAL_CAN_ERROR_STF;
 8002a7e:	6a7b      	ldr	r3, [r7, #36]	@ 0x24
 8002a80:	f043 0308 	orr.w	r3, r3, #8
 8002a84:	627b      	str	r3, [r7, #36]	@ 0x24
            break;
 8002a86:	e019      	b.n	8002abc <HAL_CAN_IRQHandler+0x336>
            errorcode |= HAL_CAN_ERROR_FOR;
 8002a88:	6a7b      	ldr	r3, [r7, #36]	@ 0x24
 8002a8a:	f043 0310 	orr.w	r3, r3, #16
 8002a8e:	627b      	str	r3, [r7, #36]	@ 0x24
            break;
 8002a90:	e014      	b.n	8002abc <HAL_CAN_IRQHandler+0x336>
            errorcode |= HAL_CAN_ERROR_ACK;
 8002a92:	6a7b      	ldr	r3, [r7, #36]	@ 0x24
 8002a94:	f043 0320 	orr.w	r3, r3, #32
 8002a98:	627b      	str	r3, [r7, #36]	@ 0x24
            break;
 8002a9a:	e00f      	b.n	8002abc <HAL_CAN_IRQHandler+0x336>
            errorcode |= HAL_CAN_ERROR_BR;
 8002a9c:	6a7b      	ldr	r3, [r7, #36]	@ 0x24
 8002a9e:	f043 0340 	orr.w	r3, r3, #64	@ 0x40
 8002aa2:	627b      	str	r3, [r7, #36]	@ 0x24
            break;
 8002aa4:	e00a      	b.n	8002abc <HAL_CAN_IRQHandler+0x336>
            errorcode |= HAL_CAN_ERROR_BD;
 8002aa6:	6a7b      	ldr	r3, [r7, #36]	@ 0x24
 8002aa8:	f043 0380 	orr.w	r3, r3, #128	@ 0x80
 8002aac:	627b      	str	r3, [r7, #36]	@ 0x24
            break;
 8002aae:	e005      	b.n	8002abc <HAL_CAN_IRQHandler+0x336>
            errorcode |= HAL_CAN_ERROR_CRC;
 8002ab0:	6a7b      	ldr	r3, [r7, #36]	@ 0x24
 8002ab2:	f443 7380 	orr.w	r3, r3, #256	@ 0x100
 8002ab6:	627b      	str	r3, [r7, #36]	@ 0x24
            break;
 8002ab8:	e000      	b.n	8002abc <HAL_CAN_IRQHandler+0x336>
            break;
 8002aba:	bf00      	nop
        }

        /* Clear Last error code Flag */
        CLEAR_BIT(hcan->Instance->ESR, CAN_ESR_LEC);
 8002abc:	687b      	ldr	r3, [r7, #4]
 8002abe:	681b      	ldr	r3, [r3, #0]
 8002ac0:	699a      	ldr	r2, [r3, #24]
 8002ac2:	687b      	ldr	r3, [r7, #4]
 8002ac4:	681b      	ldr	r3, [r3, #0]
 8002ac6:	f022 0270 	bic.w	r2, r2, #112	@ 0x70
 8002aca:	619a      	str	r2, [r3, #24]
      }
    }

    /* Clear ERRI Flag */
    __HAL_CAN_CLEAR_FLAG(hcan, CAN_FLAG_ERRI);
 8002acc:	687b      	ldr	r3, [r7, #4]
 8002ace:	681b      	ldr	r3, [r3, #0]
 8002ad0:	2204      	movs	r2, #4
 8002ad2:	605a      	str	r2, [r3, #4]
  }

  /* Call the Error call Back in case of Errors */
  if (errorcode != HAL_CAN_ERROR_NONE)
 8002ad4:	6a7b      	ldr	r3, [r7, #36]	@ 0x24
 8002ad6:	2b00      	cmp	r3, #0
 8002ad8:	d008      	beq.n	8002aec <HAL_CAN_IRQHandler+0x366>
  {
    /* Update error code in handle */
    hcan->ErrorCode |= errorcode;
 8002ada:	687b      	ldr	r3, [r7, #4]
 8002adc:	6a5a      	ldr	r2, [r3, #36]	@ 0x24
 8002ade:	6a7b      	ldr	r3, [r7, #36]	@ 0x24
 8002ae0:	431a      	orrs	r2, r3
 8002ae2:	687b      	ldr	r3, [r7, #4]
 8002ae4:	625a      	str	r2, [r3, #36]	@ 0x24
#if USE_HAL_CAN_REGISTER_CALLBACKS == 1
    /* Call registered callback*/
    hcan->ErrorCallback(hcan);
#else
    /* Call weak (surcharged) callback */
    HAL_CAN_ErrorCallback(hcan);
 8002ae6:	6878      	ldr	r0, [r7, #4]
 8002ae8:	f000 f872 	bl	8002bd0 <HAL_CAN_ErrorCallback>
#endif /* USE_HAL_CAN_REGISTER_CALLBACKS */
  }
}
 8002aec:	bf00      	nop
 8002aee:	3728      	adds	r7, #40	@ 0x28
 8002af0:	46bd      	mov	sp, r7
 8002af2:	bd80      	pop	{r7, pc}

08002af4 <HAL_CAN_TxMailbox0CompleteCallback>:
  * @param  hcan pointer to a CAN_HandleTypeDef structure that contains
  *         the configuration information for the specified CAN.
  * @retval None
  */
__weak void HAL_CAN_TxMailbox0CompleteCallback(CAN_HandleTypeDef *hcan)
{
 8002af4:	b480      	push	{r7}
 8002af6:	b083      	sub	sp, #12
 8002af8:	af00      	add	r7, sp, #0
 8002afa:	6078      	str	r0, [r7, #4]

  /* NOTE : This function Should not be modified, when the callback is needed,
            the HAL_CAN_TxMailbox0CompleteCallback could be implemented in the
            user file
   */
}
 8002afc:	bf00      	nop
 8002afe:	370c      	adds	r7, #12
 8002b00:	46bd      	mov	sp, r7
 8002b02:	f85d 7b04 	ldr.w	r7, [sp], #4
 8002b06:	4770      	bx	lr

08002b08 <HAL_CAN_TxMailbox1CompleteCallback>:
  * @param  hcan pointer to a CAN_HandleTypeDef structure that contains
  *         the configuration information for the specified CAN.
  * @retval None
  */
__weak void HAL_CAN_TxMailbox1CompleteCallback(CAN_HandleTypeDef *hcan)
{
 8002b08:	b480      	push	{r7}
 8002b0a:	b083      	sub	sp, #12
 8002b0c:	af00      	add	r7, sp, #0
 8002b0e:	6078      	str	r0, [r7, #4]

  /* NOTE : This function Should not be modified, when the callback is needed,
            the HAL_CAN_TxMailbox1CompleteCallback could be implemented in the
            user file
   */
}
 8002b10:	bf00      	nop
 8002b12:	370c      	adds	r7, #12
 8002b14:	46bd      	mov	sp, r7
 8002b16:	f85d 7b04 	ldr.w	r7, [sp], #4
 8002b1a:	4770      	bx	lr

08002b1c <HAL_CAN_TxMailbox2CompleteCallback>:
  * @param  hcan pointer to a CAN_HandleTypeDef structure that contains
  *         the configuration information for the specified CAN.
  * @retval None
  */
__weak void HAL_CAN_TxMailbox2CompleteCallback(CAN_HandleTypeDef *hcan)
{
 8002b1c:	b480      	push	{r7}
 8002b1e:	b083      	sub	sp, #12
 8002b20:	af00      	add	r7, sp, #0
 8002b22:	6078      	str	r0, [r7, #4]

  /* NOTE : This function Should not be modified, when the callback is needed,
            the HAL_CAN_TxMailbox2CompleteCallback could be implemented in the
            user file
   */
}
 8002b24:	bf00      	nop
 8002b26:	370c      	adds	r7, #12
 8002b28:	46bd      	mov	sp, r7
 8002b2a:	f85d 7b04 	ldr.w	r7, [sp], #4
 8002b2e:	4770      	bx	lr

08002b30 <HAL_CAN_TxMailbox0AbortCallback>:
  * @param  hcan pointer to an CAN_HandleTypeDef structure that contains
  *         the configuration information for the specified CAN.
  * @retval None
  */
__weak void HAL_CAN_TxMailbox0AbortCallback(CAN_HandleTypeDef *hcan)
{
 8002b30:	b480      	push	{r7}
 8002b32:	b083      	sub	sp, #12
 8002b34:	af00      	add	r7, sp, #0
 8002b36:	6078      	str	r0, [r7, #4]

  /* NOTE : This function Should not be modified, when the callback is needed,
            the HAL_CAN_TxMailbox0AbortCallback could be implemented in the
            user file
   */
}
 8002b38:	bf00      	nop
 8002b3a:	370c      	adds	r7, #12
 8002b3c:	46bd      	mov	sp, r7
 8002b3e:	f85d 7b04 	ldr.w	r7, [sp], #4
 8002b42:	4770      	bx	lr

08002b44 <HAL_CAN_TxMailbox1AbortCallback>:
  * @param  hcan pointer to an CAN_HandleTypeDef structure that contains
  *         the configuration information for the specified CAN.
  * @retval None
  */
__weak void HAL_CAN_TxMailbox1AbortCallback(CAN_HandleTypeDef *hcan)
{
 8002b44:	b480      	push	{r7}
 8002b46:	b083      	sub	sp, #12
 8002b48:	af00      	add	r7, sp, #0
 8002b4a:	6078      	str	r0, [r7, #4]

  /* NOTE : This function Should not be modified, when the callback is needed,
            the HAL_CAN_TxMailbox1AbortCallback could be implemented in the
            user file
   */
}
 8002b4c:	bf00      	nop
 8002b4e:	370c      	adds	r7, #12
 8002b50:	46bd      	mov	sp, r7
 8002b52:	f85d 7b04 	ldr.w	r7, [sp], #4
 8002b56:	4770      	bx	lr

08002b58 <HAL_CAN_TxMailbox2AbortCallback>:
  * @param  hcan pointer to an CAN_HandleTypeDef structure that contains
  *         the configuration information for the specified CAN.
  * @retval None
  */
__weak void HAL_CAN_TxMailbox2AbortCallback(CAN_HandleTypeDef *hcan)
{
 8002b58:	b480      	push	{r7}
 8002b5a:	b083      	sub	sp, #12
 8002b5c:	af00      	add	r7, sp, #0
 8002b5e:	6078      	str	r0, [r7, #4]

  /* NOTE : This function Should not be modified, when the callback is needed,
            the HAL_CAN_TxMailbox2AbortCallback could be implemented in the
            user file
   */
}
 8002b60:	bf00      	nop
 8002b62:	370c      	adds	r7, #12
 8002b64:	46bd      	mov	sp, r7
 8002b66:	f85d 7b04 	ldr.w	r7, [sp], #4
 8002b6a:	4770      	bx	lr

08002b6c <HAL_CAN_RxFifo0FullCallback>:
  * @param  hcan pointer to a CAN_HandleTypeDef structure that contains
  *         the configuration information for the specified CAN.
  * @retval None
  */
__weak void HAL_CAN_RxFifo0FullCallback(CAN_HandleTypeDef *hcan)
{
 8002b6c:	b480      	push	{r7}
 8002b6e:	b083      	sub	sp, #12
 8002b70:	af00      	add	r7, sp, #0
 8002b72:	6078      	str	r0, [r7, #4]

  /* NOTE : This function Should not be modified, when the callback is needed,
            the HAL_CAN_RxFifo0FullCallback could be implemented in the user
            file
   */
}
 8002b74:	bf00      	nop
 8002b76:	370c      	adds	r7, #12
 8002b78:	46bd      	mov	sp, r7
 8002b7a:	f85d 7b04 	ldr.w	r7, [sp], #4
 8002b7e:	4770      	bx	lr

08002b80 <HAL_CAN_RxFifo1MsgPendingCallback>:
  * @param  hcan pointer to a CAN_HandleTypeDef structure that contains
  *         the configuration information for the specified CAN.
  * @retval None
  */
__weak void HAL_CAN_RxFifo1MsgPendingCallback(CAN_HandleTypeDef *hcan)
{
 8002b80:	b480      	push	{r7}
 8002b82:	b083      	sub	sp, #12
 8002b84:	af00      	add	r7, sp, #0
 8002b86:	6078      	str	r0, [r7, #4]

  /* NOTE : This function Should not be modified, when the callback is needed,
            the HAL_CAN_RxFifo1MsgPendingCallback could be implemented in the
            user file
   */
}
 8002b88:	bf00      	nop
 8002b8a:	370c      	adds	r7, #12
 8002b8c:	46bd      	mov	sp, r7
 8002b8e:	f85d 7b04 	ldr.w	r7, [sp], #4
 8002b92:	4770      	bx	lr

08002b94 <HAL_CAN_RxFifo1FullCallback>:
  * @param  hcan pointer to a CAN_HandleTypeDef structure that contains
  *         the configuration information for the specified CAN.
  * @retval None
  */
__weak void HAL_CAN_RxFifo1FullCallback(CAN_HandleTypeDef *hcan)
{
 8002b94:	b480      	push	{r7}
 8002b96:	b083      	sub	sp, #12
 8002b98:	af00      	add	r7, sp, #0
 8002b9a:	6078      	str	r0, [r7, #4]

  /* NOTE : This function Should not be modified, when the callback is needed,
            the HAL_CAN_RxFifo1FullCallback could be implemented in the user
            file
   */
}
 8002b9c:	bf00      	nop
 8002b9e:	370c      	adds	r7, #12
 8002ba0:	46bd      	mov	sp, r7
 8002ba2:	f85d 7b04 	ldr.w	r7, [sp], #4
 8002ba6:	4770      	bx	lr

08002ba8 <HAL_CAN_SleepCallback>:
  * @param  hcan pointer to a CAN_HandleTypeDef structure that contains
  *         the configuration information for the specified CAN.
  * @retval None
  */
__weak void HAL_CAN_SleepCallback(CAN_HandleTypeDef *hcan)
{
 8002ba8:	b480      	push	{r7}
 8002baa:	b083      	sub	sp, #12
 8002bac:	af00      	add	r7, sp, #0
 8002bae:	6078      	str	r0, [r7, #4]
  UNUSED(hcan);

  /* NOTE : This function Should not be modified, when the callback is needed,
            the HAL_CAN_SleepCallback could be implemented in the user file
   */
}
 8002bb0:	bf00      	nop
 8002bb2:	370c      	adds	r7, #12
 8002bb4:	46bd      	mov	sp, r7
 8002bb6:	f85d 7b04 	ldr.w	r7, [sp], #4
 8002bba:	4770      	bx	lr

08002bbc <HAL_CAN_WakeUpFromRxMsgCallback>:
  * @param  hcan pointer to a CAN_HandleTypeDef structure that contains
  *         the configuration information for the specified CAN.
  * @retval None
  */
__weak void HAL_CAN_WakeUpFromRxMsgCallback(CAN_HandleTypeDef *hcan)
{
 8002bbc:	b480      	push	{r7}
 8002bbe:	b083      	sub	sp, #12
 8002bc0:	af00      	add	r7, sp, #0
 8002bc2:	6078      	str	r0, [r7, #4]

  /* NOTE : This function Should not be modified, when the callback is needed,
            the HAL_CAN_WakeUpFromRxMsgCallback could be implemented in the
            user file
   */
}
 8002bc4:	bf00      	nop
 8002bc6:	370c      	adds	r7, #12
 8002bc8:	46bd      	mov	sp, r7
 8002bca:	f85d 7b04 	ldr.w	r7, [sp], #4
 8002bce:	4770      	bx	lr

08002bd0 <HAL_CAN_ErrorCallback>:
  * @param  hcan pointer to a CAN_HandleTypeDef structure that contains
  *         the configuration information for the specified CAN.
  * @retval None
  */
__weak void HAL_CAN_ErrorCallback(CAN_HandleTypeDef *hcan)
{
 8002bd0:	b480      	push	{r7}
 8002bd2:	b083      	sub	sp, #12
 8002bd4:	af00      	add	r7, sp, #0
 8002bd6:	6078      	str	r0, [r7, #4]
  UNUSED(hcan);

  /* NOTE : This function Should not be modified, when the callback is needed,
            the HAL_CAN_ErrorCallback could be implemented in the user file
   */
}
 8002bd8:	bf00      	nop
 8002bda:	370c      	adds	r7, #12
 8002bdc:	46bd      	mov	sp, r7
 8002bde:	f85d 7b04 	ldr.w	r7, [sp], #4
 8002be2:	4770      	bx	lr

08002be4 <HAL_CAN_GetState>:
  * @param  hcan pointer to a CAN_HandleTypeDef structure that contains
  *         the configuration information for the specified CAN.
  * @retval HAL state
  */
HAL_CAN_StateTypeDef HAL_CAN_GetState(const CAN_HandleTypeDef *hcan)
{
 8002be4:	b480      	push	{r7}
 8002be6:	b085      	sub	sp, #20
 8002be8:	af00      	add	r7, sp, #0
 8002bea:	6078      	str	r0, [r7, #4]
  HAL_CAN_StateTypeDef state = hcan->State;
 8002bec:	687b      	ldr	r3, [r7, #4]
 8002bee:	f893 3020 	ldrb.w	r3, [r3, #32]
 8002bf2:	73fb      	strb	r3, [r7, #15]

  if ((state == HAL_CAN_STATE_READY) ||
 8002bf4:	7bfb      	ldrb	r3, [r7, #15]
 8002bf6:	2b01      	cmp	r3, #1
 8002bf8:	d002      	beq.n	8002c00 <HAL_CAN_GetState+0x1c>
 8002bfa:	7bfb      	ldrb	r3, [r7, #15]
 8002bfc:	2b02      	cmp	r3, #2
 8002bfe:	d112      	bne.n	8002c26 <HAL_CAN_GetState+0x42>
      (state == HAL_CAN_STATE_LISTENING))
  {
    /* Check sleep mode acknowledge flag */
    if ((hcan->Instance->MSR & CAN_MSR_SLAK) != 0U)
 8002c00:	687b      	ldr	r3, [r7, #4]
 8002c02:	681b      	ldr	r3, [r3, #0]
 8002c04:	685b      	ldr	r3, [r3, #4]
 8002c06:	f003 0302 	and.w	r3, r3, #2
 8002c0a:	2b00      	cmp	r3, #0
 8002c0c:	d002      	beq.n	8002c14 <HAL_CAN_GetState+0x30>
    {
      /* Sleep mode is active */
      state = HAL_CAN_STATE_SLEEP_ACTIVE;
 8002c0e:	2304      	movs	r3, #4
 8002c10:	73fb      	strb	r3, [r7, #15]
 8002c12:	e008      	b.n	8002c26 <HAL_CAN_GetState+0x42>
    }
    /* Check sleep mode request flag */
    else if ((hcan->Instance->MCR & CAN_MCR_SLEEP) != 0U)
 8002c14:	687b      	ldr	r3, [r7, #4]
 8002c16:	681b      	ldr	r3, [r3, #0]
 8002c18:	681b      	ldr	r3, [r3, #0]
 8002c1a:	f003 0302 	and.w	r3, r3, #2
 8002c1e:	2b00      	cmp	r3, #0
 8002c20:	d001      	beq.n	8002c26 <HAL_CAN_GetState+0x42>
    {
      /* Sleep mode request is pending */
      state = HAL_CAN_STATE_SLEEP_PENDING;
 8002c22:	2303      	movs	r3, #3
 8002c24:	73fb      	strb	r3, [r7, #15]
      /* Neither sleep mode request nor sleep mode acknowledge */
    }
  }

  /* Return CAN state */
  return state;
 8002c26:	7bfb      	ldrb	r3, [r7, #15]
}
 8002c28:	4618      	mov	r0, r3
 8002c2a:	3714      	adds	r7, #20
 8002c2c:	46bd      	mov	sp, r7
 8002c2e:	f85d 7b04 	ldr.w	r7, [sp], #4
 8002c32:	4770      	bx	lr

08002c34 <HAL_CAN_GetError>:
  * @param  hcan pointer to a CAN_HandleTypeDef structure that contains
  *         the configuration information for the specified CAN.
  * @retval CAN Error Code
  */
uint32_t HAL_CAN_GetError(const CAN_HandleTypeDef *hcan)
{
 8002c34:	b480      	push	{r7}
 8002c36:	b083      	sub	sp, #12
 8002c38:	af00      	add	r7, sp, #0
 8002c3a:	6078      	str	r0, [r7, #4]
  /* Return CAN error code */
  return hcan->ErrorCode;
 8002c3c:	687b      	ldr	r3, [r7, #4]
 8002c3e:	6a5b      	ldr	r3, [r3, #36]	@ 0x24
}
 8002c40:	4618      	mov	r0, r3
 8002c42:	370c      	adds	r7, #12
 8002c44:	46bd      	mov	sp, r7
 8002c46:	f85d 7b04 	ldr.w	r7, [sp], #4
 8002c4a:	4770      	bx	lr

08002c4c <__NVIC_SetPriorityGrouping>:
           In case of a conflict between priority grouping and available
           priority bits (__NVIC_PRIO_BITS), the smallest possible priority group is set.
  \param [in]      PriorityGroup  Priority grouping field.
 */
__STATIC_INLINE void __NVIC_SetPriorityGrouping(uint32_t PriorityGroup)
{
 8002c4c:	b480      	push	{r7}
 8002c4e:	b085      	sub	sp, #20
 8002c50:	af00      	add	r7, sp, #0
 8002c52:	6078      	str	r0, [r7, #4]
  uint32_t reg_value;
  uint32_t PriorityGroupTmp = (PriorityGroup & (uint32_t)0x07UL);             /* only values 0..7 are used          */
 8002c54:	687b      	ldr	r3, [r7, #4]
 8002c56:	f003 0307 	and.w	r3, r3, #7
 8002c5a:	60fb      	str	r3, [r7, #12]

  reg_value  =  SCB->AIRCR;                                                   /* read old register configuration    */
 8002c5c:	4b0b      	ldr	r3, [pc, #44]	@ (8002c8c <__NVIC_SetPriorityGrouping+0x40>)
 8002c5e:	68db      	ldr	r3, [r3, #12]
 8002c60:	60bb      	str	r3, [r7, #8]
  reg_value &= ~((uint32_t)(SCB_AIRCR_VECTKEY_Msk | SCB_AIRCR_PRIGROUP_Msk)); /* clear bits to change               */
 8002c62:	68ba      	ldr	r2, [r7, #8]
 8002c64:	f64f 03ff 	movw	r3, #63743	@ 0xf8ff
 8002c68:	4013      	ands	r3, r2
 8002c6a:	60bb      	str	r3, [r7, #8]
  reg_value  =  (reg_value                                   |
                ((uint32_t)0x5FAUL << SCB_AIRCR_VECTKEY_Pos) |
                (PriorityGroupTmp << SCB_AIRCR_PRIGROUP_Pos)  );              /* Insert write key and priority group */
 8002c6c:	68fb      	ldr	r3, [r7, #12]
 8002c6e:	021a      	lsls	r2, r3, #8
                ((uint32_t)0x5FAUL << SCB_AIRCR_VECTKEY_Pos) |
 8002c70:	68bb      	ldr	r3, [r7, #8]
 8002c72:	431a      	orrs	r2, r3
  reg_value  =  (reg_value                                   |
 8002c74:	4b06      	ldr	r3, [pc, #24]	@ (8002c90 <__NVIC_SetPriorityGrouping+0x44>)
 8002c76:	4313      	orrs	r3, r2
 8002c78:	60bb      	str	r3, [r7, #8]
  SCB->AIRCR =  reg_value;
 8002c7a:	4a04      	ldr	r2, [pc, #16]	@ (8002c8c <__NVIC_SetPriorityGrouping+0x40>)
 8002c7c:	68bb      	ldr	r3, [r7, #8]
 8002c7e:	60d3      	str	r3, [r2, #12]
}
 8002c80:	bf00      	nop
 8002c82:	3714      	adds	r7, #20
 8002c84:	46bd      	mov	sp, r7
 8002c86:	f85d 7b04 	ldr.w	r7, [sp], #4
 8002c8a:	4770      	bx	lr
 8002c8c:	e000ed00 	.word	0xe000ed00
 8002c90:	05fa0000 	.word	0x05fa0000

08002c94 <__NVIC_GetPriorityGrouping>:
  \brief   Get Priority Grouping
  \details Reads the priority grouping field from the NVIC Interrupt Controller.
  \return                Priority grouping field (SCB->AIRCR [10:8] PRIGROUP field).
 */
__STATIC_INLINE uint32_t __NVIC_GetPriorityGrouping(void)
{
 8002c94:	b480      	push	{r7}
 8002c96:	af00      	add	r7, sp, #0
  return ((uint32_t)((SCB->AIRCR & SCB_AIRCR_PRIGROUP_Msk) >> SCB_AIRCR_PRIGROUP_Pos));
 8002c98:	4b04      	ldr	r3, [pc, #16]	@ (8002cac <__NVIC_GetPriorityGrouping+0x18>)
 8002c9a:	68db      	ldr	r3, [r3, #12]
 8002c9c:	0a1b      	lsrs	r3, r3, #8
 8002c9e:	f003 0307 	and.w	r3, r3, #7
}
 8002ca2:	4618      	mov	r0, r3
 8002ca4:	46bd      	mov	sp, r7
 8002ca6:	f85d 7b04 	ldr.w	r7, [sp], #4
 8002caa:	4770      	bx	lr
 8002cac:	e000ed00 	.word	0xe000ed00

08002cb0 <__NVIC_EnableIRQ>:
  \details Enables a device specific interrupt in the NVIC interrupt controller.
  \param [in]      IRQn  Device specific interrupt number.
  \note    IRQn must not be negative.
 */
__STATIC_INLINE void __NVIC_EnableIRQ(IRQn_Type IRQn)
{
 8002cb0:	b480      	push	{r7}
 8002cb2:	b083      	sub	sp, #12
 8002cb4:	af00      	add	r7, sp, #0
 8002cb6:	4603      	mov	r3, r0
 8002cb8:	71fb      	strb	r3, [r7, #7]
  if ((int32_t)(IRQn) >= 0)
 8002cba:	f997 3007 	ldrsb.w	r3, [r7, #7]
 8002cbe:	2b00      	cmp	r3, #0
 8002cc0:	db0b      	blt.n	8002cda <__NVIC_EnableIRQ+0x2a>
  {
    NVIC->ISER[(((uint32_t)IRQn) >> 5UL)] = (uint32_t)(1UL << (((uint32_t)IRQn) & 0x1FUL));
 8002cc2:	79fb      	ldrb	r3, [r7, #7]
 8002cc4:	f003 021f 	and.w	r2, r3, #31
 8002cc8:	4907      	ldr	r1, [pc, #28]	@ (8002ce8 <__NVIC_EnableIRQ+0x38>)
 8002cca:	f997 3007 	ldrsb.w	r3, [r7, #7]
 8002cce:	095b      	lsrs	r3, r3, #5
 8002cd0:	2001      	movs	r0, #1
 8002cd2:	fa00 f202 	lsl.w	r2, r0, r2
 8002cd6:	f841 2023 	str.w	r2, [r1, r3, lsl #2]
  }
}
 8002cda:	bf00      	nop
 8002cdc:	370c      	adds	r7, #12
 8002cde:	46bd      	mov	sp, r7
 8002ce0:	f85d 7b04 	ldr.w	r7, [sp], #4
 8002ce4:	4770      	bx	lr
 8002ce6:	bf00      	nop
 8002ce8:	e000e100 	.word	0xe000e100

08002cec <__NVIC_SetPriority>:
  \param [in]      IRQn  Interrupt number.
  \param [in]  priority  Priority to set.
  \note    The priority cannot be set for every processor exception.
 */
__STATIC_INLINE void __NVIC_SetPriority(IRQn_Type IRQn, uint32_t priority)
{
 8002cec:	b480      	push	{r7}
 8002cee:	b083      	sub	sp, #12
 8002cf0:	af00      	add	r7, sp, #0
 8002cf2:	4603      	mov	r3, r0
 8002cf4:	6039      	str	r1, [r7, #0]
 8002cf6:	71fb      	strb	r3, [r7, #7]
  if ((int32_t)(IRQn) >= 0)
 8002cf8:	f997 3007 	ldrsb.w	r3, [r7, #7]
 8002cfc:	2b00      	cmp	r3, #0
 8002cfe:	db0a      	blt.n	8002d16 <__NVIC_SetPriority+0x2a>
  {
    NVIC->IP[((uint32_t)IRQn)]                = (uint8_t)((priority << (8U - __NVIC_PRIO_BITS)) & (uint32_t)0xFFUL);
 8002d00:	683b      	ldr	r3, [r7, #0]
 8002d02:	b2da      	uxtb	r2, r3
 8002d04:	490c      	ldr	r1, [pc, #48]	@ (8002d38 <__NVIC_SetPriority+0x4c>)
 8002d06:	f997 3007 	ldrsb.w	r3, [r7, #7]
 8002d0a:	0112      	lsls	r2, r2, #4
 8002d0c:	b2d2      	uxtb	r2, r2
 8002d0e:	440b      	add	r3, r1
 8002d10:	f883 2300 	strb.w	r2, [r3, #768]	@ 0x300
  }
  else
  {
    SCB->SHPR[(((uint32_t)IRQn) & 0xFUL)-4UL] = (uint8_t)((priority << (8U - __NVIC_PRIO_BITS)) & (uint32_t)0xFFUL);
  }
}
 8002d14:	e00a      	b.n	8002d2c <__NVIC_SetPriority+0x40>
    SCB->SHPR[(((uint32_t)IRQn) & 0xFUL)-4UL] = (uint8_t)((priority << (8U - __NVIC_PRIO_BITS)) & (uint32_t)0xFFUL);
 8002d16:	683b      	ldr	r3, [r7, #0]
 8002d18:	b2da      	uxtb	r2, r3
 8002d1a:	4908      	ldr	r1, [pc, #32]	@ (8002d3c <__NVIC_SetPriority+0x50>)
 8002d1c:	79fb      	ldrb	r3, [r7, #7]
 8002d1e:	f003 030f 	and.w	r3, r3, #15
 8002d22:	3b04      	subs	r3, #4
 8002d24:	0112      	lsls	r2, r2, #4
 8002d26:	b2d2      	uxtb	r2, r2
 8002d28:	440b      	add	r3, r1
 8002d2a:	761a      	strb	r2, [r3, #24]
}
 8002d2c:	bf00      	nop
 8002d2e:	370c      	adds	r7, #12
 8002d30:	46bd      	mov	sp, r7
 8002d32:	f85d 7b04 	ldr.w	r7, [sp], #4
 8002d36:	4770      	bx	lr
 8002d38:	e000e100 	.word	0xe000e100
 8002d3c:	e000ed00 	.word	0xe000ed00

08002d40 <NVIC_EncodePriority>:
  \param [in]   PreemptPriority  Preemptive priority value (starting from 0).
  \param [in]       SubPriority  Subpriority value (starting from 0).
  \return                        Encoded priority. Value can be used in the function \ref NVIC_SetPriority().
 */
__STATIC_INLINE uint32_t NVIC_EncodePriority (uint32_t PriorityGroup, uint32_t PreemptPriority, uint32_t SubPriority)
{
 8002d40:	b480      	push	{r7}
 8002d42:	b089      	sub	sp, #36	@ 0x24
 8002d44:	af00      	add	r7, sp, #0
 8002d46:	60f8      	str	r0, [r7, #12]
 8002d48:	60b9      	str	r1, [r7, #8]
 8002d4a:	607a      	str	r2, [r7, #4]
  uint32_t PriorityGroupTmp = (PriorityGroup & (uint32_t)0x07UL);   /* only values 0..7 are used          */
 8002d4c:	68fb      	ldr	r3, [r7, #12]
 8002d4e:	f003 0307 	and.w	r3, r3, #7
 8002d52:	61fb      	str	r3, [r7, #28]
  uint32_t PreemptPriorityBits;
  uint32_t SubPriorityBits;

  PreemptPriorityBits = ((7UL - PriorityGroupTmp) > (uint32_t)(__NVIC_PRIO_BITS)) ? (uint32_t)(__NVIC_PRIO_BITS) : (uint32_t)(7UL - PriorityGroupTmp);
 8002d54:	69fb      	ldr	r3, [r7, #28]
 8002d56:	f1c3 0307 	rsb	r3, r3, #7
 8002d5a:	2b04      	cmp	r3, #4
 8002d5c:	bf28      	it	cs
 8002d5e:	2304      	movcs	r3, #4
 8002d60:	61bb      	str	r3, [r7, #24]
  SubPriorityBits     = ((PriorityGroupTmp + (uint32_t)(__NVIC_PRIO_BITS)) < (uint32_t)7UL) ? (uint32_t)0UL : (uint32_t)((PriorityGroupTmp - 7UL) + (uint32_t)(__NVIC_PRIO_BITS));
 8002d62:	69fb      	ldr	r3, [r7, #28]
 8002d64:	3304      	adds	r3, #4
 8002d66:	2b06      	cmp	r3, #6
 8002d68:	d902      	bls.n	8002d70 <NVIC_EncodePriority+0x30>
 8002d6a:	69fb      	ldr	r3, [r7, #28]
 8002d6c:	3b03      	subs	r3, #3
 8002d6e:	e000      	b.n	8002d72 <NVIC_EncodePriority+0x32>
 8002d70:	2300      	movs	r3, #0
 8002d72:	617b      	str	r3, [r7, #20]

  return (
           ((PreemptPriority & (uint32_t)((1UL << (PreemptPriorityBits)) - 1UL)) << SubPriorityBits) |
 8002d74:	f04f 32ff 	mov.w	r2, #4294967295
 8002d78:	69bb      	ldr	r3, [r7, #24]
 8002d7a:	fa02 f303 	lsl.w	r3, r2, r3
 8002d7e:	43da      	mvns	r2, r3
 8002d80:	68bb      	ldr	r3, [r7, #8]
 8002d82:	401a      	ands	r2, r3
 8002d84:	697b      	ldr	r3, [r7, #20]
 8002d86:	409a      	lsls	r2, r3
           ((SubPriority     & (uint32_t)((1UL << (SubPriorityBits    )) - 1UL)))
 8002d88:	f04f 31ff 	mov.w	r1, #4294967295
 8002d8c:	697b      	ldr	r3, [r7, #20]
 8002d8e:	fa01 f303 	lsl.w	r3, r1, r3
 8002d92:	43d9      	mvns	r1, r3
 8002d94:	687b      	ldr	r3, [r7, #4]
 8002d96:	400b      	ands	r3, r1
           ((PreemptPriority & (uint32_t)((1UL << (PreemptPriorityBits)) - 1UL)) << SubPriorityBits) |
 8002d98:	4313      	orrs	r3, r2
         );
}
 8002d9a:	4618      	mov	r0, r3
 8002d9c:	3724      	adds	r7, #36	@ 0x24
 8002d9e:	46bd      	mov	sp, r7
 8002da0:	f85d 7b04 	ldr.w	r7, [sp], #4
 8002da4:	4770      	bx	lr
	...

08002da8 <SysTick_Config>:
  \note    When the variable <b>__Vendor_SysTickConfig</b> is set to 1, then the
           function <b>SysTick_Config</b> is not included. In this case, the file <b><i>device</i>.h</b>
           must contain a vendor-specific implementation of this function.
 */
__STATIC_INLINE uint32_t SysTick_Config(uint32_t ticks)
{
 8002da8:	b580      	push	{r7, lr}
 8002daa:	b082      	sub	sp, #8
 8002dac:	af00      	add	r7, sp, #0
 8002dae:	6078      	str	r0, [r7, #4]
  if ((ticks - 1UL) > SysTick_LOAD_RELOAD_Msk)
 8002db0:	687b      	ldr	r3, [r7, #4]
 8002db2:	3b01      	subs	r3, #1
 8002db4:	f1b3 7f80 	cmp.w	r3, #16777216	@ 0x1000000
 8002db8:	d301      	bcc.n	8002dbe <SysTick_Config+0x16>
  {
    return (1UL);                                                   /* Reload value impossible */
 8002dba:	2301      	movs	r3, #1
 8002dbc:	e00f      	b.n	8002dde <SysTick_Config+0x36>
  }

  SysTick->LOAD  = (uint32_t)(ticks - 1UL);                         /* set reload register */
 8002dbe:	4a0a      	ldr	r2, [pc, #40]	@ (8002de8 <SysTick_Config+0x40>)
 8002dc0:	687b      	ldr	r3, [r7, #4]
 8002dc2:	3b01      	subs	r3, #1
 8002dc4:	6053      	str	r3, [r2, #4]
  NVIC_SetPriority (SysTick_IRQn, (1UL << __NVIC_PRIO_BITS) - 1UL); /* set Priority for Systick Interrupt */
 8002dc6:	210f      	movs	r1, #15
 8002dc8:	f04f 30ff 	mov.w	r0, #4294967295
 8002dcc:	f7ff ff8e 	bl	8002cec <__NVIC_SetPriority>
  SysTick->VAL   = 0UL;                                             /* Load the SysTick Counter Value */
 8002dd0:	4b05      	ldr	r3, [pc, #20]	@ (8002de8 <SysTick_Config+0x40>)
 8002dd2:	2200      	movs	r2, #0
 8002dd4:	609a      	str	r2, [r3, #8]
  SysTick->CTRL  = SysTick_CTRL_CLKSOURCE_Msk |
 8002dd6:	4b04      	ldr	r3, [pc, #16]	@ (8002de8 <SysTick_Config+0x40>)
 8002dd8:	2207      	movs	r2, #7
 8002dda:	601a      	str	r2, [r3, #0]
                   SysTick_CTRL_TICKINT_Msk   |
                   SysTick_CTRL_ENABLE_Msk;                         /* Enable SysTick IRQ and SysTick Timer */
  return (0UL);                                                     /* Function successful */
 8002ddc:	2300      	movs	r3, #0
}
 8002dde:	4618      	mov	r0, r3
 8002de0:	3708      	adds	r7, #8
 8002de2:	46bd      	mov	sp, r7
 8002de4:	bd80      	pop	{r7, pc}
 8002de6:	bf00      	nop
 8002de8:	e000e010 	.word	0xe000e010

08002dec <HAL_NVIC_SetPriorityGrouping>:
  * @note   When the NVIC_PriorityGroup_0 is selected, IRQ preemption is no more possible. 
  *         The pending IRQ priority will be managed only by the subpriority. 
  * @retval None
  */
void HAL_NVIC_SetPriorityGrouping(uint32_t PriorityGroup)
{
 8002dec:	b580      	push	{r7, lr}
 8002dee:	b082      	sub	sp, #8
 8002df0:	af00      	add	r7, sp, #0
 8002df2:	6078      	str	r0, [r7, #4]
  /* Check the parameters */
  assert_param(IS_NVIC_PRIORITY_GROUP(PriorityGroup));
  
  /* Set the PRIGROUP[10:8] bits according to the PriorityGroup parameter value */
  NVIC_SetPriorityGrouping(PriorityGroup);
 8002df4:	6878      	ldr	r0, [r7, #4]
 8002df6:	f7ff ff29 	bl	8002c4c <__NVIC_SetPriorityGrouping>
}
 8002dfa:	bf00      	nop
 8002dfc:	3708      	adds	r7, #8
 8002dfe:	46bd      	mov	sp, r7
 8002e00:	bd80      	pop	{r7, pc}

08002e02 <HAL_NVIC_SetPriority>:
  *         This parameter can be a value between 0 and 15
  *         A lower priority value indicates a higher priority.          
  * @retval None
  */
void HAL_NVIC_SetPriority(IRQn_Type IRQn, uint32_t PreemptPriority, uint32_t SubPriority)
{ 
 8002e02:	b580      	push	{r7, lr}
 8002e04:	b086      	sub	sp, #24
 8002e06:	af00      	add	r7, sp, #0
 8002e08:	4603      	mov	r3, r0
 8002e0a:	60b9      	str	r1, [r7, #8]
 8002e0c:	607a      	str	r2, [r7, #4]
 8002e0e:	73fb      	strb	r3, [r7, #15]
  uint32_t prioritygroup = 0x00;
 8002e10:	2300      	movs	r3, #0
 8002e12:	617b      	str	r3, [r7, #20]
  
  /* Check the parameters */
  assert_param(IS_NVIC_SUB_PRIORITY(SubPriority));
  assert_param(IS_NVIC_PREEMPTION_PRIORITY(PreemptPriority));
  
  prioritygroup = NVIC_GetPriorityGrouping();
 8002e14:	f7ff ff3e 	bl	8002c94 <__NVIC_GetPriorityGrouping>
 8002e18:	6178      	str	r0, [r7, #20]
  
  NVIC_SetPriority(IRQn, NVIC_EncodePriority(prioritygroup, PreemptPriority, SubPriority));
 8002e1a:	687a      	ldr	r2, [r7, #4]
 8002e1c:	68b9      	ldr	r1, [r7, #8]
 8002e1e:	6978      	ldr	r0, [r7, #20]
 8002e20:	f7ff ff8e 	bl	8002d40 <NVIC_EncodePriority>
 8002e24:	4602      	mov	r2, r0
 8002e26:	f997 300f 	ldrsb.w	r3, [r7, #15]
 8002e2a:	4611      	mov	r1, r2
 8002e2c:	4618      	mov	r0, r3
 8002e2e:	f7ff ff5d 	bl	8002cec <__NVIC_SetPriority>
}
 8002e32:	bf00      	nop
 8002e34:	3718      	adds	r7, #24
 8002e36:	46bd      	mov	sp, r7
 8002e38:	bd80      	pop	{r7, pc}

08002e3a <HAL_NVIC_EnableIRQ>:
  *         This parameter can be an enumerator of IRQn_Type enumeration
  *         (For the complete STM32 Devices IRQ Channels list, please refer to the appropriate CMSIS device file (stm32f7xxxx.h))
  * @retval None
  */
void HAL_NVIC_EnableIRQ(IRQn_Type IRQn)
{
 8002e3a:	b580      	push	{r7, lr}
 8002e3c:	b082      	sub	sp, #8
 8002e3e:	af00      	add	r7, sp, #0
 8002e40:	4603      	mov	r3, r0
 8002e42:	71fb      	strb	r3, [r7, #7]
  /* Check the parameters */
  assert_param(IS_NVIC_DEVICE_IRQ(IRQn));
  
  /* Enable interrupt */
  NVIC_EnableIRQ(IRQn);
 8002e44:	f997 3007 	ldrsb.w	r3, [r7, #7]
 8002e48:	4618      	mov	r0, r3
 8002e4a:	f7ff ff31 	bl	8002cb0 <__NVIC_EnableIRQ>
}
 8002e4e:	bf00      	nop
 8002e50:	3708      	adds	r7, #8
 8002e52:	46bd      	mov	sp, r7
 8002e54:	bd80      	pop	{r7, pc}

08002e56 <HAL_SYSTICK_Config>:
  * @param  TicksNumb Specifies the ticks Number of ticks between two interrupts.
  * @retval status:  - 0  Function succeeded.
  *                  - 1  Function failed.
  */
uint32_t HAL_SYSTICK_Config(uint32_t TicksNumb)
{
 8002e56:	b580      	push	{r7, lr}
 8002e58:	b082      	sub	sp, #8
 8002e5a:	af00      	add	r7, sp, #0
 8002e5c:	6078      	str	r0, [r7, #4]
   return SysTick_Config(TicksNumb);
 8002e5e:	6878      	ldr	r0, [r7, #4]
 8002e60:	f7ff ffa2 	bl	8002da8 <SysTick_Config>
 8002e64:	4603      	mov	r3, r0
}
 8002e66:	4618      	mov	r0, r3
 8002e68:	3708      	adds	r7, #8
 8002e6a:	46bd      	mov	sp, r7
 8002e6c:	bd80      	pop	{r7, pc}
	...

08002e70 <HAL_MPU_Disable>:
/**
  * @brief  Disables the MPU
  * @retval None
  */
void HAL_MPU_Disable(void)
{
 8002e70:	b480      	push	{r7}
 8002e72:	af00      	add	r7, sp, #0
  \details Ensures the apparent order of the explicit memory operations before
           and after the instruction, without ensuring their completion.
 */
__STATIC_FORCEINLINE void __DMB(void)
{
  __ASM volatile ("dmb 0xF":::"memory");
 8002e74:	f3bf 8f5f 	dmb	sy
}
 8002e78:	bf00      	nop
  /* Make sure outstanding transfers are done */
  __DMB();

  /* Disable fault exceptions */
  SCB->SHCSR &= ~SCB_SHCSR_MEMFAULTENA_Msk;
 8002e7a:	4b07      	ldr	r3, [pc, #28]	@ (8002e98 <HAL_MPU_Disable+0x28>)
 8002e7c:	6a5b      	ldr	r3, [r3, #36]	@ 0x24
 8002e7e:	4a06      	ldr	r2, [pc, #24]	@ (8002e98 <HAL_MPU_Disable+0x28>)
 8002e80:	f423 3380 	bic.w	r3, r3, #65536	@ 0x10000
 8002e84:	6253      	str	r3, [r2, #36]	@ 0x24
  
  /* Disable the MPU and clear the control register*/
  MPU->CTRL = 0;
 8002e86:	4b05      	ldr	r3, [pc, #20]	@ (8002e9c <HAL_MPU_Disable+0x2c>)
 8002e88:	2200      	movs	r2, #0
 8002e8a:	605a      	str	r2, [r3, #4]
}
 8002e8c:	bf00      	nop
 8002e8e:	46bd      	mov	sp, r7
 8002e90:	f85d 7b04 	ldr.w	r7, [sp], #4
 8002e94:	4770      	bx	lr
 8002e96:	bf00      	nop
 8002e98:	e000ed00 	.word	0xe000ed00
 8002e9c:	e000ed90 	.word	0xe000ed90

08002ea0 <HAL_MPU_Enable>:
  *            @arg MPU_PRIVILEGED_DEFAULT
  *            @arg MPU_HFNMI_PRIVDEF
  * @retval None
  */
void HAL_MPU_Enable(uint32_t MPU_Control)
{
 8002ea0:	b480      	push	{r7}
 8002ea2:	b083      	sub	sp, #12
 8002ea4:	af00      	add	r7, sp, #0
 8002ea6:	6078      	str	r0, [r7, #4]
  /* Enable the MPU */
  MPU->CTRL = MPU_Control | MPU_CTRL_ENABLE_Msk;
 8002ea8:	4a0b      	ldr	r2, [pc, #44]	@ (8002ed8 <HAL_MPU_Enable+0x38>)
 8002eaa:	687b      	ldr	r3, [r7, #4]
 8002eac:	f043 0301 	orr.w	r3, r3, #1
 8002eb0:	6053      	str	r3, [r2, #4]
  
  /* Enable fault exceptions */
  SCB->SHCSR |= SCB_SHCSR_MEMFAULTENA_Msk;
 8002eb2:	4b0a      	ldr	r3, [pc, #40]	@ (8002edc <HAL_MPU_Enable+0x3c>)
 8002eb4:	6a5b      	ldr	r3, [r3, #36]	@ 0x24
 8002eb6:	4a09      	ldr	r2, [pc, #36]	@ (8002edc <HAL_MPU_Enable+0x3c>)
 8002eb8:	f443 3380 	orr.w	r3, r3, #65536	@ 0x10000
 8002ebc:	6253      	str	r3, [r2, #36]	@ 0x24
  __ASM volatile ("dsb 0xF":::"memory");
 8002ebe:	f3bf 8f4f 	dsb	sy
}
 8002ec2:	bf00      	nop
  __ASM volatile ("isb 0xF":::"memory");
 8002ec4:	f3bf 8f6f 	isb	sy
}
 8002ec8:	bf00      	nop
  
  /* Ensure MPU setting take effects */
  __DSB();
  __ISB();
}
 8002eca:	bf00      	nop
 8002ecc:	370c      	adds	r7, #12
 8002ece:	46bd      	mov	sp, r7
 8002ed0:	f85d 7b04 	ldr.w	r7, [sp], #4
 8002ed4:	4770      	bx	lr
 8002ed6:	bf00      	nop
 8002ed8:	e000ed90 	.word	0xe000ed90
 8002edc:	e000ed00 	.word	0xe000ed00

08002ee0 <HAL_MPU_ConfigRegion>:
  * @param MPU_Init Pointer to a MPU_Region_InitTypeDef structure that contains
  *                the initialization and configuration information.
  * @retval None
  */
void HAL_MPU_ConfigRegion(MPU_Region_InitTypeDef *MPU_Init)
{
 8002ee0:	b480      	push	{r7}
 8002ee2:	b083      	sub	sp, #12
 8002ee4:	af00      	add	r7, sp, #0
 8002ee6:	6078      	str	r0, [r7, #4]
  assert_param(IS_MPU_ACCESS_BUFFERABLE(MPU_Init->IsBufferable));
  assert_param(IS_MPU_SUB_REGION_DISABLE(MPU_Init->SubRegionDisable));
  assert_param(IS_MPU_REGION_SIZE(MPU_Init->Size));

  /* Set the Region number */
  MPU->RNR = MPU_Init->Number;
 8002ee8:	687b      	ldr	r3, [r7, #4]
 8002eea:	785a      	ldrb	r2, [r3, #1]
 8002eec:	4b1b      	ldr	r3, [pc, #108]	@ (8002f5c <HAL_MPU_ConfigRegion+0x7c>)
 8002eee:	609a      	str	r2, [r3, #8]

  /* Disable the Region */
  CLEAR_BIT(MPU->RASR, MPU_RASR_ENABLE_Msk);
 8002ef0:	4b1a      	ldr	r3, [pc, #104]	@ (8002f5c <HAL_MPU_ConfigRegion+0x7c>)
 8002ef2:	691b      	ldr	r3, [r3, #16]
 8002ef4:	4a19      	ldr	r2, [pc, #100]	@ (8002f5c <HAL_MPU_ConfigRegion+0x7c>)
 8002ef6:	f023 0301 	bic.w	r3, r3, #1
 8002efa:	6113      	str	r3, [r2, #16]

  /* Apply configuration */
  MPU->RBAR = MPU_Init->BaseAddress;
 8002efc:	4a17      	ldr	r2, [pc, #92]	@ (8002f5c <HAL_MPU_ConfigRegion+0x7c>)
 8002efe:	687b      	ldr	r3, [r7, #4]
 8002f00:	685b      	ldr	r3, [r3, #4]
 8002f02:	60d3      	str	r3, [r2, #12]
  MPU->RASR = ((uint32_t)MPU_Init->DisableExec             << MPU_RASR_XN_Pos)   |
 8002f04:	687b      	ldr	r3, [r7, #4]
 8002f06:	7b1b      	ldrb	r3, [r3, #12]
 8002f08:	071a      	lsls	r2, r3, #28
              ((uint32_t)MPU_Init->AccessPermission        << MPU_RASR_AP_Pos)   |
 8002f0a:	687b      	ldr	r3, [r7, #4]
 8002f0c:	7adb      	ldrb	r3, [r3, #11]
 8002f0e:	061b      	lsls	r3, r3, #24
  MPU->RASR = ((uint32_t)MPU_Init->DisableExec             << MPU_RASR_XN_Pos)   |
 8002f10:	431a      	orrs	r2, r3
              ((uint32_t)MPU_Init->TypeExtField            << MPU_RASR_TEX_Pos)  |
 8002f12:	687b      	ldr	r3, [r7, #4]
 8002f14:	7a9b      	ldrb	r3, [r3, #10]
 8002f16:	04db      	lsls	r3, r3, #19
              ((uint32_t)MPU_Init->AccessPermission        << MPU_RASR_AP_Pos)   |
 8002f18:	431a      	orrs	r2, r3
              ((uint32_t)MPU_Init->IsShareable             << MPU_RASR_S_Pos)    |
 8002f1a:	687b      	ldr	r3, [r7, #4]
 8002f1c:	7b5b      	ldrb	r3, [r3, #13]
 8002f1e:	049b      	lsls	r3, r3, #18
              ((uint32_t)MPU_Init->TypeExtField            << MPU_RASR_TEX_Pos)  |
 8002f20:	431a      	orrs	r2, r3
              ((uint32_t)MPU_Init->IsCacheable             << MPU_RASR_C_Pos)    |
 8002f22:	687b      	ldr	r3, [r7, #4]
 8002f24:	7b9b      	ldrb	r3, [r3, #14]
 8002f26:	045b      	lsls	r3, r3, #17
              ((uint32_t)MPU_Init->IsShareable             << MPU_RASR_S_Pos)    |
 8002f28:	431a      	orrs	r2, r3
              ((uint32_t)MPU_Init->IsBufferable            << MPU_RASR_B_Pos)    |
 8002f2a:	687b      	ldr	r3, [r7, #4]
 8002f2c:	7bdb      	ldrb	r3, [r3, #15]
 8002f2e:	041b      	lsls	r3, r3, #16
              ((uint32_t)MPU_Init->IsCacheable             << MPU_RASR_C_Pos)    |
 8002f30:	431a      	orrs	r2, r3
              ((uint32_t)MPU_Init->SubRegionDisable        << MPU_RASR_SRD_Pos)  |
 8002f32:	687b      	ldr	r3, [r7, #4]
 8002f34:	7a5b      	ldrb	r3, [r3, #9]
 8002f36:	021b      	lsls	r3, r3, #8
              ((uint32_t)MPU_Init->IsBufferable            << MPU_RASR_B_Pos)    |
 8002f38:	431a      	orrs	r2, r3
              ((uint32_t)MPU_Init->Size                    << MPU_RASR_SIZE_Pos) |
 8002f3a:	687b      	ldr	r3, [r7, #4]
 8002f3c:	7a1b      	ldrb	r3, [r3, #8]
 8002f3e:	005b      	lsls	r3, r3, #1
              ((uint32_t)MPU_Init->SubRegionDisable        << MPU_RASR_SRD_Pos)  |
 8002f40:	4313      	orrs	r3, r2
              ((uint32_t)MPU_Init->Enable                  << MPU_RASR_ENABLE_Pos);
 8002f42:	687a      	ldr	r2, [r7, #4]
 8002f44:	7812      	ldrb	r2, [r2, #0]
 8002f46:	4611      	mov	r1, r2
  MPU->RASR = ((uint32_t)MPU_Init->DisableExec             << MPU_RASR_XN_Pos)   |
 8002f48:	4a04      	ldr	r2, [pc, #16]	@ (8002f5c <HAL_MPU_ConfigRegion+0x7c>)
              ((uint32_t)MPU_Init->Size                    << MPU_RASR_SIZE_Pos) |
 8002f4a:	430b      	orrs	r3, r1
  MPU->RASR = ((uint32_t)MPU_Init->DisableExec             << MPU_RASR_XN_Pos)   |
 8002f4c:	6113      	str	r3, [r2, #16]
}
 8002f4e:	bf00      	nop
 8002f50:	370c      	adds	r7, #12
 8002f52:	46bd      	mov	sp, r7
 8002f54:	f85d 7b04 	ldr.w	r7, [sp], #4
 8002f58:	4770      	bx	lr
 8002f5a:	bf00      	nop
 8002f5c:	e000ed90 	.word	0xe000ed90

08002f60 <HAL_DMA_Abort>:
  *        and the Stream will be effectively disabled only after the transfer of
  *        this single data is finished.  
  * @retval HAL status
  */
HAL_StatusTypeDef HAL_DMA_Abort(DMA_HandleTypeDef *hdma)
{
 8002f60:	b580      	push	{r7, lr}
 8002f62:	b084      	sub	sp, #16
 8002f64:	af00      	add	r7, sp, #0
 8002f66:	6078      	str	r0, [r7, #4]
  /* calculate DMA base and stream number */
  DMA_Base_Registers *regs = (DMA_Base_Registers *)hdma->StreamBaseAddress;
 8002f68:	687b      	ldr	r3, [r7, #4]
 8002f6a:	6d9b      	ldr	r3, [r3, #88]	@ 0x58
 8002f6c:	60fb      	str	r3, [r7, #12]
  
  uint32_t tickstart = HAL_GetTick();
 8002f6e:	f7fe ff6d 	bl	8001e4c <HAL_GetTick>
 8002f72:	60b8      	str	r0, [r7, #8]
  
  if(hdma->State != HAL_DMA_STATE_BUSY)
 8002f74:	687b      	ldr	r3, [r7, #4]
 8002f76:	f893 3035 	ldrb.w	r3, [r3, #53]	@ 0x35
 8002f7a:	b2db      	uxtb	r3, r3
 8002f7c:	2b02      	cmp	r3, #2
 8002f7e:	d008      	beq.n	8002f92 <HAL_DMA_Abort+0x32>
  {
    hdma->ErrorCode = HAL_DMA_ERROR_NO_XFER;
 8002f80:	687b      	ldr	r3, [r7, #4]
 8002f82:	2280      	movs	r2, #128	@ 0x80
 8002f84:	655a      	str	r2, [r3, #84]	@ 0x54
    
    /* Process Unlocked */
    __HAL_UNLOCK(hdma);
 8002f86:	687b      	ldr	r3, [r7, #4]
 8002f88:	2200      	movs	r2, #0
 8002f8a:	f883 2034 	strb.w	r2, [r3, #52]	@ 0x34
    
    return HAL_ERROR;
 8002f8e:	2301      	movs	r3, #1
 8002f90:	e052      	b.n	8003038 <HAL_DMA_Abort+0xd8>
  }
  else
  {
    /* Disable all the transfer interrupts */
    hdma->Instance->CR  &= ~(DMA_IT_TC | DMA_IT_TE | DMA_IT_DME);
 8002f92:	687b      	ldr	r3, [r7, #4]
 8002f94:	681b      	ldr	r3, [r3, #0]
 8002f96:	681a      	ldr	r2, [r3, #0]
 8002f98:	687b      	ldr	r3, [r7, #4]
 8002f9a:	681b      	ldr	r3, [r3, #0]
 8002f9c:	f022 0216 	bic.w	r2, r2, #22
 8002fa0:	601a      	str	r2, [r3, #0]
    hdma->Instance->FCR &= ~(DMA_IT_FE);
 8002fa2:	687b      	ldr	r3, [r7, #4]
 8002fa4:	681b      	ldr	r3, [r3, #0]
 8002fa6:	695a      	ldr	r2, [r3, #20]
 8002fa8:	687b      	ldr	r3, [r7, #4]
 8002faa:	681b      	ldr	r3, [r3, #0]
 8002fac:	f022 0280 	bic.w	r2, r2, #128	@ 0x80
 8002fb0:	615a      	str	r2, [r3, #20]
    
    if((hdma->XferHalfCpltCallback != NULL) || (hdma->XferM1HalfCpltCallback != NULL))
 8002fb2:	687b      	ldr	r3, [r7, #4]
 8002fb4:	6c1b      	ldr	r3, [r3, #64]	@ 0x40
 8002fb6:	2b00      	cmp	r3, #0
 8002fb8:	d103      	bne.n	8002fc2 <HAL_DMA_Abort+0x62>
 8002fba:	687b      	ldr	r3, [r7, #4]
 8002fbc:	6c9b      	ldr	r3, [r3, #72]	@ 0x48
 8002fbe:	2b00      	cmp	r3, #0
 8002fc0:	d007      	beq.n	8002fd2 <HAL_DMA_Abort+0x72>
    {
      hdma->Instance->CR  &= ~(DMA_IT_HT);
 8002fc2:	687b      	ldr	r3, [r7, #4]
 8002fc4:	681b      	ldr	r3, [r3, #0]
 8002fc6:	681a      	ldr	r2, [r3, #0]
 8002fc8:	687b      	ldr	r3, [r7, #4]
 8002fca:	681b      	ldr	r3, [r3, #0]
 8002fcc:	f022 0208 	bic.w	r2, r2, #8
 8002fd0:	601a      	str	r2, [r3, #0]
    }
    
    /* Disable the stream */
    __HAL_DMA_DISABLE(hdma);
 8002fd2:	687b      	ldr	r3, [r7, #4]
 8002fd4:	681b      	ldr	r3, [r3, #0]
 8002fd6:	681a      	ldr	r2, [r3, #0]
 8002fd8:	687b      	ldr	r3, [r7, #4]
 8002fda:	681b      	ldr	r3, [r3, #0]
 8002fdc:	f022 0201 	bic.w	r2, r2, #1
 8002fe0:	601a      	str	r2, [r3, #0]
    
    /* Check if the DMA Stream is effectively disabled */
    while((hdma->Instance->CR & DMA_SxCR_EN) != RESET)
 8002fe2:	e013      	b.n	800300c <HAL_DMA_Abort+0xac>
    {
      /* Check for the Timeout */
      if((HAL_GetTick() - tickstart ) > HAL_TIMEOUT_DMA_ABORT)
 8002fe4:	f7fe ff32 	bl	8001e4c <HAL_GetTick>
 8002fe8:	4602      	mov	r2, r0
 8002fea:	68bb      	ldr	r3, [r7, #8]
 8002fec:	1ad3      	subs	r3, r2, r3
 8002fee:	2b05      	cmp	r3, #5
 8002ff0:	d90c      	bls.n	800300c <HAL_DMA_Abort+0xac>
      {
        /* Update error code */
        hdma->ErrorCode = HAL_DMA_ERROR_TIMEOUT;
 8002ff2:	687b      	ldr	r3, [r7, #4]
 8002ff4:	2220      	movs	r2, #32
 8002ff6:	655a      	str	r2, [r3, #84]	@ 0x54
        
        /* Change the DMA state */
        hdma->State = HAL_DMA_STATE_TIMEOUT;
 8002ff8:	687b      	ldr	r3, [r7, #4]
 8002ffa:	2203      	movs	r2, #3
 8002ffc:	f883 2035 	strb.w	r2, [r3, #53]	@ 0x35
        
        /* Process Unlocked */
        __HAL_UNLOCK(hdma);
 8003000:	687b      	ldr	r3, [r7, #4]
 8003002:	2200      	movs	r2, #0
 8003004:	f883 2034 	strb.w	r2, [r3, #52]	@ 0x34

        return HAL_TIMEOUT;
 8003008:	2303      	movs	r3, #3
 800300a:	e015      	b.n	8003038 <HAL_DMA_Abort+0xd8>
    while((hdma->Instance->CR & DMA_SxCR_EN) != RESET)
 800300c:	687b      	ldr	r3, [r7, #4]
 800300e:	681b      	ldr	r3, [r3, #0]
 8003010:	681b      	ldr	r3, [r3, #0]
 8003012:	f003 0301 	and.w	r3, r3, #1
 8003016:	2b00      	cmp	r3, #0
 8003018:	d1e4      	bne.n	8002fe4 <HAL_DMA_Abort+0x84>
      }
    }
    
    /* Clear all interrupt flags at correct offset within the register */
    regs->IFCR = 0x3FU << hdma->StreamIndex;
 800301a:	687b      	ldr	r3, [r7, #4]
 800301c:	6ddb      	ldr	r3, [r3, #92]	@ 0x5c
 800301e:	223f      	movs	r2, #63	@ 0x3f
 8003020:	409a      	lsls	r2, r3
 8003022:	68fb      	ldr	r3, [r7, #12]
 8003024:	609a      	str	r2, [r3, #8]
    
    /* Change the DMA state*/
    hdma->State = HAL_DMA_STATE_READY;
 8003026:	687b      	ldr	r3, [r7, #4]
 8003028:	2201      	movs	r2, #1
 800302a:	f883 2035 	strb.w	r2, [r3, #53]	@ 0x35
    
    /* Process Unlocked */
    __HAL_UNLOCK(hdma);
 800302e:	687b      	ldr	r3, [r7, #4]
 8003030:	2200      	movs	r2, #0
 8003032:	f883 2034 	strb.w	r2, [r3, #52]	@ 0x34
    
  }
  return HAL_OK;
 8003036:	2300      	movs	r3, #0
}
 8003038:	4618      	mov	r0, r3
 800303a:	3710      	adds	r7, #16
 800303c:	46bd      	mov	sp, r7
 800303e:	bd80      	pop	{r7, pc}

08003040 <HAL_DMA_Abort_IT>:
  * @param  hdma   pointer to a DMA_HandleTypeDef structure that contains
  *                 the configuration information for the specified DMA Stream.
  * @retval HAL status
  */
HAL_StatusTypeDef HAL_DMA_Abort_IT(DMA_HandleTypeDef *hdma)
{
 8003040:	b480      	push	{r7}
 8003042:	b083      	sub	sp, #12
 8003044:	af00      	add	r7, sp, #0
 8003046:	6078      	str	r0, [r7, #4]
  if(hdma->State != HAL_DMA_STATE_BUSY)
 8003048:	687b      	ldr	r3, [r7, #4]
 800304a:	f893 3035 	ldrb.w	r3, [r3, #53]	@ 0x35
 800304e:	b2db      	uxtb	r3, r3
 8003050:	2b02      	cmp	r3, #2
 8003052:	d004      	beq.n	800305e <HAL_DMA_Abort_IT+0x1e>
  {
    hdma->ErrorCode = HAL_DMA_ERROR_NO_XFER;
 8003054:	687b      	ldr	r3, [r7, #4]
 8003056:	2280      	movs	r2, #128	@ 0x80
 8003058:	655a      	str	r2, [r3, #84]	@ 0x54
    return HAL_ERROR;
 800305a:	2301      	movs	r3, #1
 800305c:	e00c      	b.n	8003078 <HAL_DMA_Abort_IT+0x38>
  }
  else
  {
    /* Set Abort State  */
    hdma->State = HAL_DMA_STATE_ABORT;
 800305e:	687b      	ldr	r3, [r7, #4]
 8003060:	2205      	movs	r2, #5
 8003062:	f883 2035 	strb.w	r2, [r3, #53]	@ 0x35
    
    /* Disable the stream */
    __HAL_DMA_DISABLE(hdma);
 8003066:	687b      	ldr	r3, [r7, #4]
 8003068:	681b      	ldr	r3, [r3, #0]
 800306a:	681a      	ldr	r2, [r3, #0]
 800306c:	687b      	ldr	r3, [r7, #4]
 800306e:	681b      	ldr	r3, [r3, #0]
 8003070:	f022 0201 	bic.w	r2, r2, #1
 8003074:	601a      	str	r2, [r3, #0]
  }

  return HAL_OK;
 8003076:	2300      	movs	r3, #0
}
 8003078:	4618      	mov	r0, r3
 800307a:	370c      	adds	r7, #12
 800307c:	46bd      	mov	sp, r7
 800307e:	f85d 7b04 	ldr.w	r7, [sp], #4
 8003082:	4770      	bx	lr

08003084 <HAL_GPIO_Init>:
  * @param  GPIO_Init pointer to a GPIO_InitTypeDef structure that contains
  *         the configuration information for the specified GPIO peripheral.
  * @retval None
  */
void HAL_GPIO_Init(GPIO_TypeDef  *GPIOx, GPIO_InitTypeDef *GPIO_Init)
{
 8003084:	b480      	push	{r7}
 8003086:	b089      	sub	sp, #36	@ 0x24
 8003088:	af00      	add	r7, sp, #0
 800308a:	6078      	str	r0, [r7, #4]
 800308c:	6039      	str	r1, [r7, #0]
  uint32_t position = 0x00;
 800308e:	2300      	movs	r3, #0
 8003090:	61fb      	str	r3, [r7, #28]
  uint32_t ioposition = 0x00;
 8003092:	2300      	movs	r3, #0
 8003094:	617b      	str	r3, [r7, #20]
  uint32_t iocurrent = 0x00;
 8003096:	2300      	movs	r3, #0
 8003098:	613b      	str	r3, [r7, #16]
  uint32_t temp = 0x00;
 800309a:	2300      	movs	r3, #0
 800309c:	61bb      	str	r3, [r7, #24]
  assert_param(IS_GPIO_ALL_INSTANCE(GPIOx));
  assert_param(IS_GPIO_PIN(GPIO_Init->Pin));
  assert_param(IS_GPIO_MODE(GPIO_Init->Mode));

  /* Configure the port pins */
  for (position = 0; position < GPIO_NUMBER; position++)
 800309e:	2300      	movs	r3, #0
 80030a0:	61fb      	str	r3, [r7, #28]
 80030a2:	e175      	b.n	8003390 <HAL_GPIO_Init+0x30c>
  {
    /* Get the IO position */
    ioposition = ((uint32_t)0x01) << position;
 80030a4:	2201      	movs	r2, #1
 80030a6:	69fb      	ldr	r3, [r7, #28]
 80030a8:	fa02 f303 	lsl.w	r3, r2, r3
 80030ac:	617b      	str	r3, [r7, #20]
    /* Get the current IO position */
    iocurrent = (uint32_t)(GPIO_Init->Pin) & ioposition;
 80030ae:	683b      	ldr	r3, [r7, #0]
 80030b0:	681b      	ldr	r3, [r3, #0]
 80030b2:	697a      	ldr	r2, [r7, #20]
 80030b4:	4013      	ands	r3, r2
 80030b6:	613b      	str	r3, [r7, #16]

    if (iocurrent == ioposition)
 80030b8:	693a      	ldr	r2, [r7, #16]
 80030ba:	697b      	ldr	r3, [r7, #20]
 80030bc:	429a      	cmp	r2, r3
 80030be:	f040 8164 	bne.w	800338a <HAL_GPIO_Init+0x306>
    {
      /*--------------------- GPIO Mode Configuration ------------------------*/
      /* In case of Output or Alternate function mode selection */
      if (((GPIO_Init->Mode & GPIO_MODE) == MODE_OUTPUT) || ((GPIO_Init->Mode & GPIO_MODE) == MODE_AF))
 80030c2:	683b      	ldr	r3, [r7, #0]
 80030c4:	685b      	ldr	r3, [r3, #4]
 80030c6:	f003 0303 	and.w	r3, r3, #3
 80030ca:	2b01      	cmp	r3, #1
 80030cc:	d005      	beq.n	80030da <HAL_GPIO_Init+0x56>
 80030ce:	683b      	ldr	r3, [r7, #0]
 80030d0:	685b      	ldr	r3, [r3, #4]
 80030d2:	f003 0303 	and.w	r3, r3, #3
 80030d6:	2b02      	cmp	r3, #2
 80030d8:	d130      	bne.n	800313c <HAL_GPIO_Init+0xb8>
      {
        /* Check the Speed parameter */
        assert_param(IS_GPIO_SPEED(GPIO_Init->Speed));
        /* Configure the IO Speed */
        temp = GPIOx->OSPEEDR;
 80030da:	687b      	ldr	r3, [r7, #4]
 80030dc:	689b      	ldr	r3, [r3, #8]
 80030de:	61bb      	str	r3, [r7, #24]
        temp &= ~(GPIO_OSPEEDER_OSPEEDR0 << (position * 2));
 80030e0:	69fb      	ldr	r3, [r7, #28]
 80030e2:	005b      	lsls	r3, r3, #1
 80030e4:	2203      	movs	r2, #3
 80030e6:	fa02 f303 	lsl.w	r3, r2, r3
 80030ea:	43db      	mvns	r3, r3
 80030ec:	69ba      	ldr	r2, [r7, #24]
 80030ee:	4013      	ands	r3, r2
 80030f0:	61bb      	str	r3, [r7, #24]
        temp |= (GPIO_Init->Speed << (position * 2));
 80030f2:	683b      	ldr	r3, [r7, #0]
 80030f4:	68da      	ldr	r2, [r3, #12]
 80030f6:	69fb      	ldr	r3, [r7, #28]
 80030f8:	005b      	lsls	r3, r3, #1
 80030fa:	fa02 f303 	lsl.w	r3, r2, r3
 80030fe:	69ba      	ldr	r2, [r7, #24]
 8003100:	4313      	orrs	r3, r2
 8003102:	61bb      	str	r3, [r7, #24]
        GPIOx->OSPEEDR = temp;
 8003104:	687b      	ldr	r3, [r7, #4]
 8003106:	69ba      	ldr	r2, [r7, #24]
 8003108:	609a      	str	r2, [r3, #8]

        /* Configure the IO Output Type */
        temp = GPIOx->OTYPER;
 800310a:	687b      	ldr	r3, [r7, #4]
 800310c:	685b      	ldr	r3, [r3, #4]
 800310e:	61bb      	str	r3, [r7, #24]
        temp &= ~(GPIO_OTYPER_OT_0 << position) ;
 8003110:	2201      	movs	r2, #1
 8003112:	69fb      	ldr	r3, [r7, #28]
 8003114:	fa02 f303 	lsl.w	r3, r2, r3
 8003118:	43db      	mvns	r3, r3
 800311a:	69ba      	ldr	r2, [r7, #24]
 800311c:	4013      	ands	r3, r2
 800311e:	61bb      	str	r3, [r7, #24]
        temp |= (((GPIO_Init->Mode & OUTPUT_TYPE) >> OUTPUT_TYPE_Pos) << position);
 8003120:	683b      	ldr	r3, [r7, #0]
 8003122:	685b      	ldr	r3, [r3, #4]
 8003124:	091b      	lsrs	r3, r3, #4
 8003126:	f003 0201 	and.w	r2, r3, #1
 800312a:	69fb      	ldr	r3, [r7, #28]
 800312c:	fa02 f303 	lsl.w	r3, r2, r3
 8003130:	69ba      	ldr	r2, [r7, #24]
 8003132:	4313      	orrs	r3, r2
 8003134:	61bb      	str	r3, [r7, #24]
        GPIOx->OTYPER = temp;
 8003136:	687b      	ldr	r3, [r7, #4]
 8003138:	69ba      	ldr	r2, [r7, #24]
 800313a:	605a      	str	r2, [r3, #4]
      }

      if ((GPIO_Init->Mode & GPIO_MODE) != MODE_ANALOG)
 800313c:	683b      	ldr	r3, [r7, #0]
 800313e:	685b      	ldr	r3, [r3, #4]
 8003140:	f003 0303 	and.w	r3, r3, #3
 8003144:	2b03      	cmp	r3, #3
 8003146:	d017      	beq.n	8003178 <HAL_GPIO_Init+0xf4>
      {
        /* Check the Pull parameter */
        assert_param(IS_GPIO_PULL(GPIO_Init->Pull));

        /* Activate the Pull-up or Pull down resistor for the current IO */
        temp = GPIOx->PUPDR;
 8003148:	687b      	ldr	r3, [r7, #4]
 800314a:	68db      	ldr	r3, [r3, #12]
 800314c:	61bb      	str	r3, [r7, #24]
        temp &= ~(GPIO_PUPDR_PUPDR0 << (position * 2));
 800314e:	69fb      	ldr	r3, [r7, #28]
 8003150:	005b      	lsls	r3, r3, #1
 8003152:	2203      	movs	r2, #3
 8003154:	fa02 f303 	lsl.w	r3, r2, r3
 8003158:	43db      	mvns	r3, r3
 800315a:	69ba      	ldr	r2, [r7, #24]
 800315c:	4013      	ands	r3, r2
 800315e:	61bb      	str	r3, [r7, #24]
        temp |= ((GPIO_Init->Pull) << (position * 2));
 8003160:	683b      	ldr	r3, [r7, #0]
 8003162:	689a      	ldr	r2, [r3, #8]
 8003164:	69fb      	ldr	r3, [r7, #28]
 8003166:	005b      	lsls	r3, r3, #1
 8003168:	fa02 f303 	lsl.w	r3, r2, r3
 800316c:	69ba      	ldr	r2, [r7, #24]
 800316e:	4313      	orrs	r3, r2
 8003170:	61bb      	str	r3, [r7, #24]
        GPIOx->PUPDR = temp;
 8003172:	687b      	ldr	r3, [r7, #4]
 8003174:	69ba      	ldr	r2, [r7, #24]
 8003176:	60da      	str	r2, [r3, #12]
      }

      /* In case of Alternate function mode selection */
      if ((GPIO_Init->Mode & GPIO_MODE) == MODE_AF)
 8003178:	683b      	ldr	r3, [r7, #0]
 800317a:	685b      	ldr	r3, [r3, #4]
 800317c:	f003 0303 	and.w	r3, r3, #3
 8003180:	2b02      	cmp	r3, #2
 8003182:	d123      	bne.n	80031cc <HAL_GPIO_Init+0x148>
      {
        /* Check the Alternate function parameter */
        assert_param(IS_GPIO_AF(GPIO_Init->Alternate));

        /* Configure Alternate function mapped with the current IO */
        temp = GPIOx->AFR[position >> 3];
 8003184:	69fb      	ldr	r3, [r7, #28]
 8003186:	08da      	lsrs	r2, r3, #3
 8003188:	687b      	ldr	r3, [r7, #4]
 800318a:	3208      	adds	r2, #8
 800318c:	f853 3022 	ldr.w	r3, [r3, r2, lsl #2]
 8003190:	61bb      	str	r3, [r7, #24]
        temp &= ~((uint32_t)0xF << ((uint32_t)(position & (uint32_t)0x07) * 4)) ;
 8003192:	69fb      	ldr	r3, [r7, #28]
 8003194:	f003 0307 	and.w	r3, r3, #7
 8003198:	009b      	lsls	r3, r3, #2
 800319a:	220f      	movs	r2, #15
 800319c:	fa02 f303 	lsl.w	r3, r2, r3
 80031a0:	43db      	mvns	r3, r3
 80031a2:	69ba      	ldr	r2, [r7, #24]
 80031a4:	4013      	ands	r3, r2
 80031a6:	61bb      	str	r3, [r7, #24]
        temp |= ((uint32_t)(GPIO_Init->Alternate) << (((uint32_t)position & (uint32_t)0x07) * 4));
 80031a8:	683b      	ldr	r3, [r7, #0]
 80031aa:	691a      	ldr	r2, [r3, #16]
 80031ac:	69fb      	ldr	r3, [r7, #28]
 80031ae:	f003 0307 	and.w	r3, r3, #7
 80031b2:	009b      	lsls	r3, r3, #2
 80031b4:	fa02 f303 	lsl.w	r3, r2, r3
 80031b8:	69ba      	ldr	r2, [r7, #24]
 80031ba:	4313      	orrs	r3, r2
 80031bc:	61bb      	str	r3, [r7, #24]
        GPIOx->AFR[position >> 3] = temp;
 80031be:	69fb      	ldr	r3, [r7, #28]
 80031c0:	08da      	lsrs	r2, r3, #3
 80031c2:	687b      	ldr	r3, [r7, #4]
 80031c4:	3208      	adds	r2, #8
 80031c6:	69b9      	ldr	r1, [r7, #24]
 80031c8:	f843 1022 	str.w	r1, [r3, r2, lsl #2]
      }

      /* Configure IO Direction mode (Input, Output, Alternate or Analog) */
      temp = GPIOx->MODER;
 80031cc:	687b      	ldr	r3, [r7, #4]
 80031ce:	681b      	ldr	r3, [r3, #0]
 80031d0:	61bb      	str	r3, [r7, #24]
      temp &= ~(GPIO_MODER_MODER0 << (position * 2));
 80031d2:	69fb      	ldr	r3, [r7, #28]
 80031d4:	005b      	lsls	r3, r3, #1
 80031d6:	2203      	movs	r2, #3
 80031d8:	fa02 f303 	lsl.w	r3, r2, r3
 80031dc:	43db      	mvns	r3, r3
 80031de:	69ba      	ldr	r2, [r7, #24]
 80031e0:	4013      	ands	r3, r2
 80031e2:	61bb      	str	r3, [r7, #24]
      temp |= ((GPIO_Init->Mode & GPIO_MODE) << (position * 2));
 80031e4:	683b      	ldr	r3, [r7, #0]
 80031e6:	685b      	ldr	r3, [r3, #4]
 80031e8:	f003 0203 	and.w	r2, r3, #3
 80031ec:	69fb      	ldr	r3, [r7, #28]
 80031ee:	005b      	lsls	r3, r3, #1
 80031f0:	fa02 f303 	lsl.w	r3, r2, r3
 80031f4:	69ba      	ldr	r2, [r7, #24]
 80031f6:	4313      	orrs	r3, r2
 80031f8:	61bb      	str	r3, [r7, #24]
      GPIOx->MODER = temp;
 80031fa:	687b      	ldr	r3, [r7, #4]
 80031fc:	69ba      	ldr	r2, [r7, #24]
 80031fe:	601a      	str	r2, [r3, #0]

      /*--------------------- EXTI Mode Configuration ------------------------*/
      /* Configure the External Interrupt or event for the current IO */
      if ((GPIO_Init->Mode & EXTI_MODE) != 0x00u)
 8003200:	683b      	ldr	r3, [r7, #0]
 8003202:	685b      	ldr	r3, [r3, #4]
 8003204:	f403 3340 	and.w	r3, r3, #196608	@ 0x30000
 8003208:	2b00      	cmp	r3, #0
 800320a:	f000 80be 	beq.w	800338a <HAL_GPIO_Init+0x306>
      {
        /* Enable SYSCFG Clock */
        __HAL_RCC_SYSCFG_CLK_ENABLE();
 800320e:	4b66      	ldr	r3, [pc, #408]	@ (80033a8 <HAL_GPIO_Init+0x324>)
 8003210:	6c5b      	ldr	r3, [r3, #68]	@ 0x44
 8003212:	4a65      	ldr	r2, [pc, #404]	@ (80033a8 <HAL_GPIO_Init+0x324>)
 8003214:	f443 4380 	orr.w	r3, r3, #16384	@ 0x4000
 8003218:	6453      	str	r3, [r2, #68]	@ 0x44
 800321a:	4b63      	ldr	r3, [pc, #396]	@ (80033a8 <HAL_GPIO_Init+0x324>)
 800321c:	6c5b      	ldr	r3, [r3, #68]	@ 0x44
 800321e:	f403 4380 	and.w	r3, r3, #16384	@ 0x4000
 8003222:	60fb      	str	r3, [r7, #12]
 8003224:	68fb      	ldr	r3, [r7, #12]

        temp = SYSCFG->EXTICR[position >> 2];
 8003226:	4a61      	ldr	r2, [pc, #388]	@ (80033ac <HAL_GPIO_Init+0x328>)
 8003228:	69fb      	ldr	r3, [r7, #28]
 800322a:	089b      	lsrs	r3, r3, #2
 800322c:	3302      	adds	r3, #2
 800322e:	f852 3023 	ldr.w	r3, [r2, r3, lsl #2]
 8003232:	61bb      	str	r3, [r7, #24]
        temp &= ~(((uint32_t)0x0F) << (4 * (position & 0x03)));
 8003234:	69fb      	ldr	r3, [r7, #28]
 8003236:	f003 0303 	and.w	r3, r3, #3
 800323a:	009b      	lsls	r3, r3, #2
 800323c:	220f      	movs	r2, #15
 800323e:	fa02 f303 	lsl.w	r3, r2, r3
 8003242:	43db      	mvns	r3, r3
 8003244:	69ba      	ldr	r2, [r7, #24]
 8003246:	4013      	ands	r3, r2
 8003248:	61bb      	str	r3, [r7, #24]
        temp |= ((uint32_t)(GPIO_GET_INDEX(GPIOx)) << (4 * (position & 0x03)));
 800324a:	687b      	ldr	r3, [r7, #4]
 800324c:	4a58      	ldr	r2, [pc, #352]	@ (80033b0 <HAL_GPIO_Init+0x32c>)
 800324e:	4293      	cmp	r3, r2
 8003250:	d037      	beq.n	80032c2 <HAL_GPIO_Init+0x23e>
 8003252:	687b      	ldr	r3, [r7, #4]
 8003254:	4a57      	ldr	r2, [pc, #348]	@ (80033b4 <HAL_GPIO_Init+0x330>)
 8003256:	4293      	cmp	r3, r2
 8003258:	d031      	beq.n	80032be <HAL_GPIO_Init+0x23a>
 800325a:	687b      	ldr	r3, [r7, #4]
 800325c:	4a56      	ldr	r2, [pc, #344]	@ (80033b8 <HAL_GPIO_Init+0x334>)
 800325e:	4293      	cmp	r3, r2
 8003260:	d02b      	beq.n	80032ba <HAL_GPIO_Init+0x236>
 8003262:	687b      	ldr	r3, [r7, #4]
 8003264:	4a55      	ldr	r2, [pc, #340]	@ (80033bc <HAL_GPIO_Init+0x338>)
 8003266:	4293      	cmp	r3, r2
 8003268:	d025      	beq.n	80032b6 <HAL_GPIO_Init+0x232>
 800326a:	687b      	ldr	r3, [r7, #4]
 800326c:	4a54      	ldr	r2, [pc, #336]	@ (80033c0 <HAL_GPIO_Init+0x33c>)
 800326e:	4293      	cmp	r3, r2
 8003270:	d01f      	beq.n	80032b2 <HAL_GPIO_Init+0x22e>
 8003272:	687b      	ldr	r3, [r7, #4]
 8003274:	4a53      	ldr	r2, [pc, #332]	@ (80033c4 <HAL_GPIO_Init+0x340>)
 8003276:	4293      	cmp	r3, r2
 8003278:	d019      	beq.n	80032ae <HAL_GPIO_Init+0x22a>
 800327a:	687b      	ldr	r3, [r7, #4]
 800327c:	4a52      	ldr	r2, [pc, #328]	@ (80033c8 <HAL_GPIO_Init+0x344>)
 800327e:	4293      	cmp	r3, r2
 8003280:	d013      	beq.n	80032aa <HAL_GPIO_Init+0x226>
 8003282:	687b      	ldr	r3, [r7, #4]
 8003284:	4a51      	ldr	r2, [pc, #324]	@ (80033cc <HAL_GPIO_Init+0x348>)
 8003286:	4293      	cmp	r3, r2
 8003288:	d00d      	beq.n	80032a6 <HAL_GPIO_Init+0x222>
 800328a:	687b      	ldr	r3, [r7, #4]
 800328c:	4a50      	ldr	r2, [pc, #320]	@ (80033d0 <HAL_GPIO_Init+0x34c>)
 800328e:	4293      	cmp	r3, r2
 8003290:	d007      	beq.n	80032a2 <HAL_GPIO_Init+0x21e>
 8003292:	687b      	ldr	r3, [r7, #4]
 8003294:	4a4f      	ldr	r2, [pc, #316]	@ (80033d4 <HAL_GPIO_Init+0x350>)
 8003296:	4293      	cmp	r3, r2
 8003298:	d101      	bne.n	800329e <HAL_GPIO_Init+0x21a>
 800329a:	2309      	movs	r3, #9
 800329c:	e012      	b.n	80032c4 <HAL_GPIO_Init+0x240>
 800329e:	230a      	movs	r3, #10
 80032a0:	e010      	b.n	80032c4 <HAL_GPIO_Init+0x240>
 80032a2:	2308      	movs	r3, #8
 80032a4:	e00e      	b.n	80032c4 <HAL_GPIO_Init+0x240>
 80032a6:	2307      	movs	r3, #7
 80032a8:	e00c      	b.n	80032c4 <HAL_GPIO_Init+0x240>
 80032aa:	2306      	movs	r3, #6
 80032ac:	e00a      	b.n	80032c4 <HAL_GPIO_Init+0x240>
 80032ae:	2305      	movs	r3, #5
 80032b0:	e008      	b.n	80032c4 <HAL_GPIO_Init+0x240>
 80032b2:	2304      	movs	r3, #4
 80032b4:	e006      	b.n	80032c4 <HAL_GPIO_Init+0x240>
 80032b6:	2303      	movs	r3, #3
 80032b8:	e004      	b.n	80032c4 <HAL_GPIO_Init+0x240>
 80032ba:	2302      	movs	r3, #2
 80032bc:	e002      	b.n	80032c4 <HAL_GPIO_Init+0x240>
 80032be:	2301      	movs	r3, #1
 80032c0:	e000      	b.n	80032c4 <HAL_GPIO_Init+0x240>
 80032c2:	2300      	movs	r3, #0
 80032c4:	69fa      	ldr	r2, [r7, #28]
 80032c6:	f002 0203 	and.w	r2, r2, #3
 80032ca:	0092      	lsls	r2, r2, #2
 80032cc:	4093      	lsls	r3, r2
 80032ce:	69ba      	ldr	r2, [r7, #24]
 80032d0:	4313      	orrs	r3, r2
 80032d2:	61bb      	str	r3, [r7, #24]
        SYSCFG->EXTICR[position >> 2] = temp;
 80032d4:	4935      	ldr	r1, [pc, #212]	@ (80033ac <HAL_GPIO_Init+0x328>)
 80032d6:	69fb      	ldr	r3, [r7, #28]
 80032d8:	089b      	lsrs	r3, r3, #2
 80032da:	3302      	adds	r3, #2
 80032dc:	69ba      	ldr	r2, [r7, #24]
 80032de:	f841 2023 	str.w	r2, [r1, r3, lsl #2]

        /* Clear Rising Falling edge configuration */
        temp = EXTI->RTSR;
 80032e2:	4b3d      	ldr	r3, [pc, #244]	@ (80033d8 <HAL_GPIO_Init+0x354>)
 80032e4:	689b      	ldr	r3, [r3, #8]
 80032e6:	61bb      	str	r3, [r7, #24]
        temp &= ~((uint32_t)iocurrent);
 80032e8:	693b      	ldr	r3, [r7, #16]
 80032ea:	43db      	mvns	r3, r3
 80032ec:	69ba      	ldr	r2, [r7, #24]
 80032ee:	4013      	ands	r3, r2
 80032f0:	61bb      	str	r3, [r7, #24]
        if ((GPIO_Init->Mode & TRIGGER_RISING) != 0x00u)
 80032f2:	683b      	ldr	r3, [r7, #0]
 80032f4:	685b      	ldr	r3, [r3, #4]
 80032f6:	f403 1380 	and.w	r3, r3, #1048576	@ 0x100000
 80032fa:	2b00      	cmp	r3, #0
 80032fc:	d003      	beq.n	8003306 <HAL_GPIO_Init+0x282>
        {
          temp |= iocurrent;
 80032fe:	69ba      	ldr	r2, [r7, #24]
 8003300:	693b      	ldr	r3, [r7, #16]
 8003302:	4313      	orrs	r3, r2
 8003304:	61bb      	str	r3, [r7, #24]
        }
        EXTI->RTSR = temp;
 8003306:	4a34      	ldr	r2, [pc, #208]	@ (80033d8 <HAL_GPIO_Init+0x354>)
 8003308:	69bb      	ldr	r3, [r7, #24]
 800330a:	6093      	str	r3, [r2, #8]

        temp = EXTI->FTSR;
 800330c:	4b32      	ldr	r3, [pc, #200]	@ (80033d8 <HAL_GPIO_Init+0x354>)
 800330e:	68db      	ldr	r3, [r3, #12]
 8003310:	61bb      	str	r3, [r7, #24]
        temp &= ~((uint32_t)iocurrent);
 8003312:	693b      	ldr	r3, [r7, #16]
 8003314:	43db      	mvns	r3, r3
 8003316:	69ba      	ldr	r2, [r7, #24]
 8003318:	4013      	ands	r3, r2
 800331a:	61bb      	str	r3, [r7, #24]
        if ((GPIO_Init->Mode & TRIGGER_FALLING) != 0x00u)
 800331c:	683b      	ldr	r3, [r7, #0]
 800331e:	685b      	ldr	r3, [r3, #4]
 8003320:	f403 1300 	and.w	r3, r3, #2097152	@ 0x200000
 8003324:	2b00      	cmp	r3, #0
 8003326:	d003      	beq.n	8003330 <HAL_GPIO_Init+0x2ac>
        {
          temp |= iocurrent;
 8003328:	69ba      	ldr	r2, [r7, #24]
 800332a:	693b      	ldr	r3, [r7, #16]
 800332c:	4313      	orrs	r3, r2
 800332e:	61bb      	str	r3, [r7, #24]
        }
        EXTI->FTSR = temp;
 8003330:	4a29      	ldr	r2, [pc, #164]	@ (80033d8 <HAL_GPIO_Init+0x354>)
 8003332:	69bb      	ldr	r3, [r7, #24]
 8003334:	60d3      	str	r3, [r2, #12]

        temp = EXTI->EMR;
 8003336:	4b28      	ldr	r3, [pc, #160]	@ (80033d8 <HAL_GPIO_Init+0x354>)
 8003338:	685b      	ldr	r3, [r3, #4]
 800333a:	61bb      	str	r3, [r7, #24]
        temp &= ~((uint32_t)iocurrent);
 800333c:	693b      	ldr	r3, [r7, #16]
 800333e:	43db      	mvns	r3, r3
 8003340:	69ba      	ldr	r2, [r7, #24]
 8003342:	4013      	ands	r3, r2
 8003344:	61bb      	str	r3, [r7, #24]
        if ((GPIO_Init->Mode & EXTI_EVT) != 0x00u)
 8003346:	683b      	ldr	r3, [r7, #0]
 8003348:	685b      	ldr	r3, [r3, #4]
 800334a:	f403 3300 	and.w	r3, r3, #131072	@ 0x20000
 800334e:	2b00      	cmp	r3, #0
 8003350:	d003      	beq.n	800335a <HAL_GPIO_Init+0x2d6>
        {
          temp |= iocurrent;
 8003352:	69ba      	ldr	r2, [r7, #24]
 8003354:	693b      	ldr	r3, [r7, #16]
 8003356:	4313      	orrs	r3, r2
 8003358:	61bb      	str	r3, [r7, #24]
        }
        EXTI->EMR = temp;
 800335a:	4a1f      	ldr	r2, [pc, #124]	@ (80033d8 <HAL_GPIO_Init+0x354>)
 800335c:	69bb      	ldr	r3, [r7, #24]
 800335e:	6053      	str	r3, [r2, #4]

        /* Clear EXTI line configuration */
        temp = EXTI->IMR;
 8003360:	4b1d      	ldr	r3, [pc, #116]	@ (80033d8 <HAL_GPIO_Init+0x354>)
 8003362:	681b      	ldr	r3, [r3, #0]
 8003364:	61bb      	str	r3, [r7, #24]
        temp &= ~((uint32_t)iocurrent);
 8003366:	693b      	ldr	r3, [r7, #16]
 8003368:	43db      	mvns	r3, r3
 800336a:	69ba      	ldr	r2, [r7, #24]
 800336c:	4013      	ands	r3, r2
 800336e:	61bb      	str	r3, [r7, #24]
        if ((GPIO_Init->Mode & EXTI_IT) != 0x00u)
 8003370:	683b      	ldr	r3, [r7, #0]
 8003372:	685b      	ldr	r3, [r3, #4]
 8003374:	f403 3380 	and.w	r3, r3, #65536	@ 0x10000
 8003378:	2b00      	cmp	r3, #0
 800337a:	d003      	beq.n	8003384 <HAL_GPIO_Init+0x300>
        {
          temp |= iocurrent;
 800337c:	69ba      	ldr	r2, [r7, #24]
 800337e:	693b      	ldr	r3, [r7, #16]
 8003380:	4313      	orrs	r3, r2
 8003382:	61bb      	str	r3, [r7, #24]
        }
        EXTI->IMR = temp;
 8003384:	4a14      	ldr	r2, [pc, #80]	@ (80033d8 <HAL_GPIO_Init+0x354>)
 8003386:	69bb      	ldr	r3, [r7, #24]
 8003388:	6013      	str	r3, [r2, #0]
  for (position = 0; position < GPIO_NUMBER; position++)
 800338a:	69fb      	ldr	r3, [r7, #28]
 800338c:	3301      	adds	r3, #1
 800338e:	61fb      	str	r3, [r7, #28]
 8003390:	69fb      	ldr	r3, [r7, #28]
 8003392:	2b0f      	cmp	r3, #15
 8003394:	f67f ae86 	bls.w	80030a4 <HAL_GPIO_Init+0x20>
      }
    }
  }
}
 8003398:	bf00      	nop
 800339a:	bf00      	nop
 800339c:	3724      	adds	r7, #36	@ 0x24
 800339e:	46bd      	mov	sp, r7
 80033a0:	f85d 7b04 	ldr.w	r7, [sp], #4
 80033a4:	4770      	bx	lr
 80033a6:	bf00      	nop
 80033a8:	40023800 	.word	0x40023800
 80033ac:	40013800 	.word	0x40013800
 80033b0:	40020000 	.word	0x40020000
 80033b4:	40020400 	.word	0x40020400
 80033b8:	40020800 	.word	0x40020800
 80033bc:	40020c00 	.word	0x40020c00
 80033c0:	40021000 	.word	0x40021000
 80033c4:	40021400 	.word	0x40021400
 80033c8:	40021800 	.word	0x40021800
 80033cc:	40021c00 	.word	0x40021c00
 80033d0:	40022000 	.word	0x40022000
 80033d4:	40022400 	.word	0x40022400
 80033d8:	40013c00 	.word	0x40013c00

080033dc <HAL_RCC_OscConfig>:
  *         supported by this function. User should request a transition to HSE Off
  *         first and then HSE On or HSE Bypass.
  * @retval HAL status
  */
HAL_StatusTypeDef HAL_RCC_OscConfig(const RCC_OscInitTypeDef  *RCC_OscInitStruct)
{
 80033dc:	b580      	push	{r7, lr}
 80033de:	b086      	sub	sp, #24
 80033e0:	af00      	add	r7, sp, #0
 80033e2:	6078      	str	r0, [r7, #4]
  uint32_t tickstart;
  uint32_t pll_config;
  FlagStatus pwrclkchanged = RESET;
 80033e4:	2300      	movs	r3, #0
 80033e6:	75fb      	strb	r3, [r7, #23]

  /* Check Null pointer */
  if (RCC_OscInitStruct == NULL)
 80033e8:	687b      	ldr	r3, [r7, #4]
 80033ea:	2b00      	cmp	r3, #0
 80033ec:	d101      	bne.n	80033f2 <HAL_RCC_OscConfig+0x16>
  {
    return HAL_ERROR;
 80033ee:	2301      	movs	r3, #1
 80033f0:	e291      	b.n	8003916 <HAL_RCC_OscConfig+0x53a>

  /* Check the parameters */
  assert_param(IS_RCC_OSCILLATORTYPE(RCC_OscInitStruct->OscillatorType));

  /*------------------------------- HSE Configuration ------------------------*/
  if (((RCC_OscInitStruct->OscillatorType) & RCC_OSCILLATORTYPE_HSE) == RCC_OSCILLATORTYPE_HSE)
 80033f2:	687b      	ldr	r3, [r7, #4]
 80033f4:	681b      	ldr	r3, [r3, #0]
 80033f6:	f003 0301 	and.w	r3, r3, #1
 80033fa:	2b00      	cmp	r3, #0
 80033fc:	f000 8087 	beq.w	800350e <HAL_RCC_OscConfig+0x132>
  {
    /* Check the parameters */
    assert_param(IS_RCC_HSE(RCC_OscInitStruct->HSEState));
    /* When the HSE is used as system clock or clock source for PLL, It can not be disabled */
    if ((__HAL_RCC_GET_SYSCLK_SOURCE() == RCC_SYSCLKSOURCE_STATUS_HSE)
 8003400:	4b96      	ldr	r3, [pc, #600]	@ (800365c <HAL_RCC_OscConfig+0x280>)
 8003402:	689b      	ldr	r3, [r3, #8]
 8003404:	f003 030c 	and.w	r3, r3, #12
 8003408:	2b04      	cmp	r3, #4
 800340a:	d00c      	beq.n	8003426 <HAL_RCC_OscConfig+0x4a>
        || ((__HAL_RCC_GET_SYSCLK_SOURCE() == RCC_SYSCLKSOURCE_STATUS_PLLCLK) && ((RCC->PLLCFGR & RCC_PLLCFGR_PLLSRC) == RCC_PLLCFGR_PLLSRC_HSE)))
 800340c:	4b93      	ldr	r3, [pc, #588]	@ (800365c <HAL_RCC_OscConfig+0x280>)
 800340e:	689b      	ldr	r3, [r3, #8]
 8003410:	f003 030c 	and.w	r3, r3, #12
 8003414:	2b08      	cmp	r3, #8
 8003416:	d112      	bne.n	800343e <HAL_RCC_OscConfig+0x62>
 8003418:	4b90      	ldr	r3, [pc, #576]	@ (800365c <HAL_RCC_OscConfig+0x280>)
 800341a:	685b      	ldr	r3, [r3, #4]
 800341c:	f403 0380 	and.w	r3, r3, #4194304	@ 0x400000
 8003420:	f5b3 0f80 	cmp.w	r3, #4194304	@ 0x400000
 8003424:	d10b      	bne.n	800343e <HAL_RCC_OscConfig+0x62>
    {
      if ((__HAL_RCC_GET_FLAG(RCC_FLAG_HSERDY) != RESET) && (RCC_OscInitStruct->HSEState == RCC_HSE_OFF))
 8003426:	4b8d      	ldr	r3, [pc, #564]	@ (800365c <HAL_RCC_OscConfig+0x280>)
 8003428:	681b      	ldr	r3, [r3, #0]
 800342a:	f403 3300 	and.w	r3, r3, #131072	@ 0x20000
 800342e:	2b00      	cmp	r3, #0
 8003430:	d06c      	beq.n	800350c <HAL_RCC_OscConfig+0x130>
 8003432:	687b      	ldr	r3, [r7, #4]
 8003434:	685b      	ldr	r3, [r3, #4]
 8003436:	2b00      	cmp	r3, #0
 8003438:	d168      	bne.n	800350c <HAL_RCC_OscConfig+0x130>
      {
        return HAL_ERROR;
 800343a:	2301      	movs	r3, #1
 800343c:	e26b      	b.n	8003916 <HAL_RCC_OscConfig+0x53a>
      }
    }
    else
    {
      /* Set the new HSE configuration ---------------------------------------*/
      __HAL_RCC_HSE_CONFIG(RCC_OscInitStruct->HSEState);
 800343e:	687b      	ldr	r3, [r7, #4]
 8003440:	685b      	ldr	r3, [r3, #4]
 8003442:	f5b3 3f80 	cmp.w	r3, #65536	@ 0x10000
 8003446:	d106      	bne.n	8003456 <HAL_RCC_OscConfig+0x7a>
 8003448:	4b84      	ldr	r3, [pc, #528]	@ (800365c <HAL_RCC_OscConfig+0x280>)
 800344a:	681b      	ldr	r3, [r3, #0]
 800344c:	4a83      	ldr	r2, [pc, #524]	@ (800365c <HAL_RCC_OscConfig+0x280>)
 800344e:	f443 3380 	orr.w	r3, r3, #65536	@ 0x10000
 8003452:	6013      	str	r3, [r2, #0]
 8003454:	e02e      	b.n	80034b4 <HAL_RCC_OscConfig+0xd8>
 8003456:	687b      	ldr	r3, [r7, #4]
 8003458:	685b      	ldr	r3, [r3, #4]
 800345a:	2b00      	cmp	r3, #0
 800345c:	d10c      	bne.n	8003478 <HAL_RCC_OscConfig+0x9c>
 800345e:	4b7f      	ldr	r3, [pc, #508]	@ (800365c <HAL_RCC_OscConfig+0x280>)
 8003460:	681b      	ldr	r3, [r3, #0]
 8003462:	4a7e      	ldr	r2, [pc, #504]	@ (800365c <HAL_RCC_OscConfig+0x280>)
 8003464:	f423 3380 	bic.w	r3, r3, #65536	@ 0x10000
 8003468:	6013      	str	r3, [r2, #0]
 800346a:	4b7c      	ldr	r3, [pc, #496]	@ (800365c <HAL_RCC_OscConfig+0x280>)
 800346c:	681b      	ldr	r3, [r3, #0]
 800346e:	4a7b      	ldr	r2, [pc, #492]	@ (800365c <HAL_RCC_OscConfig+0x280>)
 8003470:	f423 2380 	bic.w	r3, r3, #262144	@ 0x40000
 8003474:	6013      	str	r3, [r2, #0]
 8003476:	e01d      	b.n	80034b4 <HAL_RCC_OscConfig+0xd8>
 8003478:	687b      	ldr	r3, [r7, #4]
 800347a:	685b      	ldr	r3, [r3, #4]
 800347c:	f5b3 2fa0 	cmp.w	r3, #327680	@ 0x50000
 8003480:	d10c      	bne.n	800349c <HAL_RCC_OscConfig+0xc0>
 8003482:	4b76      	ldr	r3, [pc, #472]	@ (800365c <HAL_RCC_OscConfig+0x280>)
 8003484:	681b      	ldr	r3, [r3, #0]
 8003486:	4a75      	ldr	r2, [pc, #468]	@ (800365c <HAL_RCC_OscConfig+0x280>)
 8003488:	f443 2380 	orr.w	r3, r3, #262144	@ 0x40000
 800348c:	6013      	str	r3, [r2, #0]
 800348e:	4b73      	ldr	r3, [pc, #460]	@ (800365c <HAL_RCC_OscConfig+0x280>)
 8003490:	681b      	ldr	r3, [r3, #0]
 8003492:	4a72      	ldr	r2, [pc, #456]	@ (800365c <HAL_RCC_OscConfig+0x280>)
 8003494:	f443 3380 	orr.w	r3, r3, #65536	@ 0x10000
 8003498:	6013      	str	r3, [r2, #0]
 800349a:	e00b      	b.n	80034b4 <HAL_RCC_OscConfig+0xd8>
 800349c:	4b6f      	ldr	r3, [pc, #444]	@ (800365c <HAL_RCC_OscConfig+0x280>)
 800349e:	681b      	ldr	r3, [r3, #0]
 80034a0:	4a6e      	ldr	r2, [pc, #440]	@ (800365c <HAL_RCC_OscConfig+0x280>)
 80034a2:	f423 3380 	bic.w	r3, r3, #65536	@ 0x10000
 80034a6:	6013      	str	r3, [r2, #0]
 80034a8:	4b6c      	ldr	r3, [pc, #432]	@ (800365c <HAL_RCC_OscConfig+0x280>)
 80034aa:	681b      	ldr	r3, [r3, #0]
 80034ac:	4a6b      	ldr	r2, [pc, #428]	@ (800365c <HAL_RCC_OscConfig+0x280>)
 80034ae:	f423 2380 	bic.w	r3, r3, #262144	@ 0x40000
 80034b2:	6013      	str	r3, [r2, #0]

      /* Check the HSE State */
      if (RCC_OscInitStruct->HSEState != RCC_HSE_OFF)
 80034b4:	687b      	ldr	r3, [r7, #4]
 80034b6:	685b      	ldr	r3, [r3, #4]
 80034b8:	2b00      	cmp	r3, #0
 80034ba:	d013      	beq.n	80034e4 <HAL_RCC_OscConfig+0x108>
      {
        /* Get Start Tick*/
        tickstart = HAL_GetTick();
 80034bc:	f7fe fcc6 	bl	8001e4c <HAL_GetTick>
 80034c0:	6138      	str	r0, [r7, #16]

        /* Wait till HSE is ready */
        while (__HAL_RCC_GET_FLAG(RCC_FLAG_HSERDY) == RESET)
 80034c2:	e008      	b.n	80034d6 <HAL_RCC_OscConfig+0xfa>
        {
          if ((HAL_GetTick() - tickstart) > HSE_TIMEOUT_VALUE)
 80034c4:	f7fe fcc2 	bl	8001e4c <HAL_GetTick>
 80034c8:	4602      	mov	r2, r0
 80034ca:	693b      	ldr	r3, [r7, #16]
 80034cc:	1ad3      	subs	r3, r2, r3
 80034ce:	2b64      	cmp	r3, #100	@ 0x64
 80034d0:	d901      	bls.n	80034d6 <HAL_RCC_OscConfig+0xfa>
          {
            return HAL_TIMEOUT;
 80034d2:	2303      	movs	r3, #3
 80034d4:	e21f      	b.n	8003916 <HAL_RCC_OscConfig+0x53a>
        while (__HAL_RCC_GET_FLAG(RCC_FLAG_HSERDY) == RESET)
 80034d6:	4b61      	ldr	r3, [pc, #388]	@ (800365c <HAL_RCC_OscConfig+0x280>)
 80034d8:	681b      	ldr	r3, [r3, #0]
 80034da:	f403 3300 	and.w	r3, r3, #131072	@ 0x20000
 80034de:	2b00      	cmp	r3, #0
 80034e0:	d0f0      	beq.n	80034c4 <HAL_RCC_OscConfig+0xe8>
 80034e2:	e014      	b.n	800350e <HAL_RCC_OscConfig+0x132>
        }
      }
      else
      {
        /* Get Start Tick*/
        tickstart = HAL_GetTick();
 80034e4:	f7fe fcb2 	bl	8001e4c <HAL_GetTick>
 80034e8:	6138      	str	r0, [r7, #16]

        /* Wait till HSE is bypassed or disabled */
        while (__HAL_RCC_GET_FLAG(RCC_FLAG_HSERDY) != RESET)
 80034ea:	e008      	b.n	80034fe <HAL_RCC_OscConfig+0x122>
        {
          if ((HAL_GetTick() - tickstart) > HSE_TIMEOUT_VALUE)
 80034ec:	f7fe fcae 	bl	8001e4c <HAL_GetTick>
 80034f0:	4602      	mov	r2, r0
 80034f2:	693b      	ldr	r3, [r7, #16]
 80034f4:	1ad3      	subs	r3, r2, r3
 80034f6:	2b64      	cmp	r3, #100	@ 0x64
 80034f8:	d901      	bls.n	80034fe <HAL_RCC_OscConfig+0x122>
          {
            return HAL_TIMEOUT;
 80034fa:	2303      	movs	r3, #3
 80034fc:	e20b      	b.n	8003916 <HAL_RCC_OscConfig+0x53a>
        while (__HAL_RCC_GET_FLAG(RCC_FLAG_HSERDY) != RESET)
 80034fe:	4b57      	ldr	r3, [pc, #348]	@ (800365c <HAL_RCC_OscConfig+0x280>)
 8003500:	681b      	ldr	r3, [r3, #0]
 8003502:	f403 3300 	and.w	r3, r3, #131072	@ 0x20000
 8003506:	2b00      	cmp	r3, #0
 8003508:	d1f0      	bne.n	80034ec <HAL_RCC_OscConfig+0x110>
 800350a:	e000      	b.n	800350e <HAL_RCC_OscConfig+0x132>
      if ((__HAL_RCC_GET_FLAG(RCC_FLAG_HSERDY) != RESET) && (RCC_OscInitStruct->HSEState == RCC_HSE_OFF))
 800350c:	bf00      	nop
        }
      }
    }
  }
  /*----------------------------- HSI Configuration --------------------------*/
  if (((RCC_OscInitStruct->OscillatorType) & RCC_OSCILLATORTYPE_HSI) == RCC_OSCILLATORTYPE_HSI)
 800350e:	687b      	ldr	r3, [r7, #4]
 8003510:	681b      	ldr	r3, [r3, #0]
 8003512:	f003 0302 	and.w	r3, r3, #2
 8003516:	2b00      	cmp	r3, #0
 8003518:	d069      	beq.n	80035ee <HAL_RCC_OscConfig+0x212>
    /* Check the parameters */
    assert_param(IS_RCC_HSI(RCC_OscInitStruct->HSIState));
    assert_param(IS_RCC_CALIBRATION_VALUE(RCC_OscInitStruct->HSICalibrationValue));

    /* Check if HSI is used as system clock or as PLL source when PLL is selected as system clock */
    if ((__HAL_RCC_GET_SYSCLK_SOURCE() == RCC_SYSCLKSOURCE_STATUS_HSI)
 800351a:	4b50      	ldr	r3, [pc, #320]	@ (800365c <HAL_RCC_OscConfig+0x280>)
 800351c:	689b      	ldr	r3, [r3, #8]
 800351e:	f003 030c 	and.w	r3, r3, #12
 8003522:	2b00      	cmp	r3, #0
 8003524:	d00b      	beq.n	800353e <HAL_RCC_OscConfig+0x162>
        || ((__HAL_RCC_GET_SYSCLK_SOURCE() == RCC_SYSCLKSOURCE_STATUS_PLLCLK) && ((RCC->PLLCFGR & RCC_PLLCFGR_PLLSRC) == RCC_PLLCFGR_PLLSRC_HSI)))
 8003526:	4b4d      	ldr	r3, [pc, #308]	@ (800365c <HAL_RCC_OscConfig+0x280>)
 8003528:	689b      	ldr	r3, [r3, #8]
 800352a:	f003 030c 	and.w	r3, r3, #12
 800352e:	2b08      	cmp	r3, #8
 8003530:	d11c      	bne.n	800356c <HAL_RCC_OscConfig+0x190>
 8003532:	4b4a      	ldr	r3, [pc, #296]	@ (800365c <HAL_RCC_OscConfig+0x280>)
 8003534:	685b      	ldr	r3, [r3, #4]
 8003536:	f403 0380 	and.w	r3, r3, #4194304	@ 0x400000
 800353a:	2b00      	cmp	r3, #0
 800353c:	d116      	bne.n	800356c <HAL_RCC_OscConfig+0x190>
    {
      /* When HSI is used as system clock it will not disabled */
      if ((__HAL_RCC_GET_FLAG(RCC_FLAG_HSIRDY) != RESET) && (RCC_OscInitStruct->HSIState != RCC_HSI_ON))
 800353e:	4b47      	ldr	r3, [pc, #284]	@ (800365c <HAL_RCC_OscConfig+0x280>)
 8003540:	681b      	ldr	r3, [r3, #0]
 8003542:	f003 0302 	and.w	r3, r3, #2
 8003546:	2b00      	cmp	r3, #0
 8003548:	d005      	beq.n	8003556 <HAL_RCC_OscConfig+0x17a>
 800354a:	687b      	ldr	r3, [r7, #4]
 800354c:	68db      	ldr	r3, [r3, #12]
 800354e:	2b01      	cmp	r3, #1
 8003550:	d001      	beq.n	8003556 <HAL_RCC_OscConfig+0x17a>
      {
        return HAL_ERROR;
 8003552:	2301      	movs	r3, #1
 8003554:	e1df      	b.n	8003916 <HAL_RCC_OscConfig+0x53a>
      }
      /* Otherwise, just the calibration is allowed */
      else
      {
        /* Adjusts the Internal High Speed oscillator (HSI) calibration value.*/
        __HAL_RCC_HSI_CALIBRATIONVALUE_ADJUST(RCC_OscInitStruct->HSICalibrationValue);
 8003556:	4b41      	ldr	r3, [pc, #260]	@ (800365c <HAL_RCC_OscConfig+0x280>)
 8003558:	681b      	ldr	r3, [r3, #0]
 800355a:	f023 02f8 	bic.w	r2, r3, #248	@ 0xf8
 800355e:	687b      	ldr	r3, [r7, #4]
 8003560:	691b      	ldr	r3, [r3, #16]
 8003562:	00db      	lsls	r3, r3, #3
 8003564:	493d      	ldr	r1, [pc, #244]	@ (800365c <HAL_RCC_OscConfig+0x280>)
 8003566:	4313      	orrs	r3, r2
 8003568:	600b      	str	r3, [r1, #0]
      if ((__HAL_RCC_GET_FLAG(RCC_FLAG_HSIRDY) != RESET) && (RCC_OscInitStruct->HSIState != RCC_HSI_ON))
 800356a:	e040      	b.n	80035ee <HAL_RCC_OscConfig+0x212>
      }
    }
    else
    {
      /* Check the HSI State */
      if ((RCC_OscInitStruct->HSIState) != RCC_HSI_OFF)
 800356c:	687b      	ldr	r3, [r7, #4]
 800356e:	68db      	ldr	r3, [r3, #12]
 8003570:	2b00      	cmp	r3, #0
 8003572:	d023      	beq.n	80035bc <HAL_RCC_OscConfig+0x1e0>
      {
        /* Enable the Internal High Speed oscillator (HSI). */
        __HAL_RCC_HSI_ENABLE();
 8003574:	4b39      	ldr	r3, [pc, #228]	@ (800365c <HAL_RCC_OscConfig+0x280>)
 8003576:	681b      	ldr	r3, [r3, #0]
 8003578:	4a38      	ldr	r2, [pc, #224]	@ (800365c <HAL_RCC_OscConfig+0x280>)
 800357a:	f043 0301 	orr.w	r3, r3, #1
 800357e:	6013      	str	r3, [r2, #0]

        /* Get Start Tick*/
        tickstart = HAL_GetTick();
 8003580:	f7fe fc64 	bl	8001e4c <HAL_GetTick>
 8003584:	6138      	str	r0, [r7, #16]

        /* Wait till HSI is ready */
        while (__HAL_RCC_GET_FLAG(RCC_FLAG_HSIRDY) == RESET)
 8003586:	e008      	b.n	800359a <HAL_RCC_OscConfig+0x1be>
        {
          if ((HAL_GetTick() - tickstart) > HSI_TIMEOUT_VALUE)
 8003588:	f7fe fc60 	bl	8001e4c <HAL_GetTick>
 800358c:	4602      	mov	r2, r0
 800358e:	693b      	ldr	r3, [r7, #16]
 8003590:	1ad3      	subs	r3, r2, r3
 8003592:	2b02      	cmp	r3, #2
 8003594:	d901      	bls.n	800359a <HAL_RCC_OscConfig+0x1be>
          {
            return HAL_TIMEOUT;
 8003596:	2303      	movs	r3, #3
 8003598:	e1bd      	b.n	8003916 <HAL_RCC_OscConfig+0x53a>
        while (__HAL_RCC_GET_FLAG(RCC_FLAG_HSIRDY) == RESET)
 800359a:	4b30      	ldr	r3, [pc, #192]	@ (800365c <HAL_RCC_OscConfig+0x280>)
 800359c:	681b      	ldr	r3, [r3, #0]
 800359e:	f003 0302 	and.w	r3, r3, #2
 80035a2:	2b00      	cmp	r3, #0
 80035a4:	d0f0      	beq.n	8003588 <HAL_RCC_OscConfig+0x1ac>
          }
        }

        /* Adjusts the Internal High Speed oscillator (HSI) calibration value.*/
        __HAL_RCC_HSI_CALIBRATIONVALUE_ADJUST(RCC_OscInitStruct->HSICalibrationValue);
 80035a6:	4b2d      	ldr	r3, [pc, #180]	@ (800365c <HAL_RCC_OscConfig+0x280>)
 80035a8:	681b      	ldr	r3, [r3, #0]
 80035aa:	f023 02f8 	bic.w	r2, r3, #248	@ 0xf8
 80035ae:	687b      	ldr	r3, [r7, #4]
 80035b0:	691b      	ldr	r3, [r3, #16]
 80035b2:	00db      	lsls	r3, r3, #3
 80035b4:	4929      	ldr	r1, [pc, #164]	@ (800365c <HAL_RCC_OscConfig+0x280>)
 80035b6:	4313      	orrs	r3, r2
 80035b8:	600b      	str	r3, [r1, #0]
 80035ba:	e018      	b.n	80035ee <HAL_RCC_OscConfig+0x212>
      }
      else
      {
        /* Disable the Internal High Speed oscillator (HSI). */
        __HAL_RCC_HSI_DISABLE();
 80035bc:	4b27      	ldr	r3, [pc, #156]	@ (800365c <HAL_RCC_OscConfig+0x280>)
 80035be:	681b      	ldr	r3, [r3, #0]
 80035c0:	4a26      	ldr	r2, [pc, #152]	@ (800365c <HAL_RCC_OscConfig+0x280>)
 80035c2:	f023 0301 	bic.w	r3, r3, #1
 80035c6:	6013      	str	r3, [r2, #0]

        /* Get Start Tick*/
        tickstart = HAL_GetTick();
 80035c8:	f7fe fc40 	bl	8001e4c <HAL_GetTick>
 80035cc:	6138      	str	r0, [r7, #16]

        /* Wait till HSI is ready */
        while (__HAL_RCC_GET_FLAG(RCC_FLAG_HSIRDY) != RESET)
 80035ce:	e008      	b.n	80035e2 <HAL_RCC_OscConfig+0x206>
        {
          if ((HAL_GetTick() - tickstart) > HSI_TIMEOUT_VALUE)
 80035d0:	f7fe fc3c 	bl	8001e4c <HAL_GetTick>
 80035d4:	4602      	mov	r2, r0
 80035d6:	693b      	ldr	r3, [r7, #16]
 80035d8:	1ad3      	subs	r3, r2, r3
 80035da:	2b02      	cmp	r3, #2
 80035dc:	d901      	bls.n	80035e2 <HAL_RCC_OscConfig+0x206>
          {
            return HAL_TIMEOUT;
 80035de:	2303      	movs	r3, #3
 80035e0:	e199      	b.n	8003916 <HAL_RCC_OscConfig+0x53a>
        while (__HAL_RCC_GET_FLAG(RCC_FLAG_HSIRDY) != RESET)
 80035e2:	4b1e      	ldr	r3, [pc, #120]	@ (800365c <HAL_RCC_OscConfig+0x280>)
 80035e4:	681b      	ldr	r3, [r3, #0]
 80035e6:	f003 0302 	and.w	r3, r3, #2
 80035ea:	2b00      	cmp	r3, #0
 80035ec:	d1f0      	bne.n	80035d0 <HAL_RCC_OscConfig+0x1f4>
        }
      }
    }
  }
  /*------------------------------ LSI Configuration -------------------------*/
  if (((RCC_OscInitStruct->OscillatorType) & RCC_OSCILLATORTYPE_LSI) == RCC_OSCILLATORTYPE_LSI)
 80035ee:	687b      	ldr	r3, [r7, #4]
 80035f0:	681b      	ldr	r3, [r3, #0]
 80035f2:	f003 0308 	and.w	r3, r3, #8
 80035f6:	2b00      	cmp	r3, #0
 80035f8:	d038      	beq.n	800366c <HAL_RCC_OscConfig+0x290>
  {
    /* Check the parameters */
    assert_param(IS_RCC_LSI(RCC_OscInitStruct->LSIState));

    /* Check the LSI State */
    if ((RCC_OscInitStruct->LSIState) != RCC_LSI_OFF)
 80035fa:	687b      	ldr	r3, [r7, #4]
 80035fc:	695b      	ldr	r3, [r3, #20]
 80035fe:	2b00      	cmp	r3, #0
 8003600:	d019      	beq.n	8003636 <HAL_RCC_OscConfig+0x25a>
    {
      /* Enable the Internal Low Speed oscillator (LSI). */
      __HAL_RCC_LSI_ENABLE();
 8003602:	4b16      	ldr	r3, [pc, #88]	@ (800365c <HAL_RCC_OscConfig+0x280>)
 8003604:	6f5b      	ldr	r3, [r3, #116]	@ 0x74
 8003606:	4a15      	ldr	r2, [pc, #84]	@ (800365c <HAL_RCC_OscConfig+0x280>)
 8003608:	f043 0301 	orr.w	r3, r3, #1
 800360c:	6753      	str	r3, [r2, #116]	@ 0x74

      /* Get Start Tick*/
      tickstart = HAL_GetTick();
 800360e:	f7fe fc1d 	bl	8001e4c <HAL_GetTick>
 8003612:	6138      	str	r0, [r7, #16]

      /* Wait till LSI is ready */
      while (__HAL_RCC_GET_FLAG(RCC_FLAG_LSIRDY) == RESET)
 8003614:	e008      	b.n	8003628 <HAL_RCC_OscConfig+0x24c>
      {
        if ((HAL_GetTick() - tickstart) > LSI_TIMEOUT_VALUE)
 8003616:	f7fe fc19 	bl	8001e4c <HAL_GetTick>
 800361a:	4602      	mov	r2, r0
 800361c:	693b      	ldr	r3, [r7, #16]
 800361e:	1ad3      	subs	r3, r2, r3
 8003620:	2b02      	cmp	r3, #2
 8003622:	d901      	bls.n	8003628 <HAL_RCC_OscConfig+0x24c>
        {
          return HAL_TIMEOUT;
 8003624:	2303      	movs	r3, #3
 8003626:	e176      	b.n	8003916 <HAL_RCC_OscConfig+0x53a>
      while (__HAL_RCC_GET_FLAG(RCC_FLAG_LSIRDY) == RESET)
 8003628:	4b0c      	ldr	r3, [pc, #48]	@ (800365c <HAL_RCC_OscConfig+0x280>)
 800362a:	6f5b      	ldr	r3, [r3, #116]	@ 0x74
 800362c:	f003 0302 	and.w	r3, r3, #2
 8003630:	2b00      	cmp	r3, #0
 8003632:	d0f0      	beq.n	8003616 <HAL_RCC_OscConfig+0x23a>
 8003634:	e01a      	b.n	800366c <HAL_RCC_OscConfig+0x290>
      }
    }
    else
    {
      /* Disable the Internal Low Speed oscillator (LSI). */
      __HAL_RCC_LSI_DISABLE();
 8003636:	4b09      	ldr	r3, [pc, #36]	@ (800365c <HAL_RCC_OscConfig+0x280>)
 8003638:	6f5b      	ldr	r3, [r3, #116]	@ 0x74
 800363a:	4a08      	ldr	r2, [pc, #32]	@ (800365c <HAL_RCC_OscConfig+0x280>)
 800363c:	f023 0301 	bic.w	r3, r3, #1
 8003640:	6753      	str	r3, [r2, #116]	@ 0x74

      /* Get Start Tick*/
      tickstart = HAL_GetTick();
 8003642:	f7fe fc03 	bl	8001e4c <HAL_GetTick>
 8003646:	6138      	str	r0, [r7, #16]

      /* Wait till LSI is ready */
      while (__HAL_RCC_GET_FLAG(RCC_FLAG_LSIRDY) != RESET)
 8003648:	e00a      	b.n	8003660 <HAL_RCC_OscConfig+0x284>
      {
        if ((HAL_GetTick() - tickstart) > LSI_TIMEOUT_VALUE)
 800364a:	f7fe fbff 	bl	8001e4c <HAL_GetTick>
 800364e:	4602      	mov	r2, r0
 8003650:	693b      	ldr	r3, [r7, #16]
 8003652:	1ad3      	subs	r3, r2, r3
 8003654:	2b02      	cmp	r3, #2
 8003656:	d903      	bls.n	8003660 <HAL_RCC_OscConfig+0x284>
        {
          return HAL_TIMEOUT;
 8003658:	2303      	movs	r3, #3
 800365a:	e15c      	b.n	8003916 <HAL_RCC_OscConfig+0x53a>
 800365c:	40023800 	.word	0x40023800
      while (__HAL_RCC_GET_FLAG(RCC_FLAG_LSIRDY) != RESET)
 8003660:	4b91      	ldr	r3, [pc, #580]	@ (80038a8 <HAL_RCC_OscConfig+0x4cc>)
 8003662:	6f5b      	ldr	r3, [r3, #116]	@ 0x74
 8003664:	f003 0302 	and.w	r3, r3, #2
 8003668:	2b00      	cmp	r3, #0
 800366a:	d1ee      	bne.n	800364a <HAL_RCC_OscConfig+0x26e>
        }
      }
    }
  }
  /*------------------------------ LSE Configuration -------------------------*/
  if (((RCC_OscInitStruct->OscillatorType) & RCC_OSCILLATORTYPE_LSE) == RCC_OSCILLATORTYPE_LSE)
 800366c:	687b      	ldr	r3, [r7, #4]
 800366e:	681b      	ldr	r3, [r3, #0]
 8003670:	f003 0304 	and.w	r3, r3, #4
 8003674:	2b00      	cmp	r3, #0
 8003676:	f000 80a4 	beq.w	80037c2 <HAL_RCC_OscConfig+0x3e6>
    /* Check the parameters */
    assert_param(IS_RCC_LSE(RCC_OscInitStruct->LSEState));

    /* Update LSE configuration in Backup Domain control register    */
    /* Requires to enable write access to Backup Domain of necessary */
    if (__HAL_RCC_PWR_IS_CLK_DISABLED())
 800367a:	4b8b      	ldr	r3, [pc, #556]	@ (80038a8 <HAL_RCC_OscConfig+0x4cc>)
 800367c:	6c1b      	ldr	r3, [r3, #64]	@ 0x40
 800367e:	f003 5380 	and.w	r3, r3, #268435456	@ 0x10000000
 8003682:	2b00      	cmp	r3, #0
 8003684:	d10d      	bne.n	80036a2 <HAL_RCC_OscConfig+0x2c6>
    {
      /* Enable Power Clock*/
      __HAL_RCC_PWR_CLK_ENABLE();
 8003686:	4b88      	ldr	r3, [pc, #544]	@ (80038a8 <HAL_RCC_OscConfig+0x4cc>)
 8003688:	6c1b      	ldr	r3, [r3, #64]	@ 0x40
 800368a:	4a87      	ldr	r2, [pc, #540]	@ (80038a8 <HAL_RCC_OscConfig+0x4cc>)
 800368c:	f043 5380 	orr.w	r3, r3, #268435456	@ 0x10000000
 8003690:	6413      	str	r3, [r2, #64]	@ 0x40
 8003692:	4b85      	ldr	r3, [pc, #532]	@ (80038a8 <HAL_RCC_OscConfig+0x4cc>)
 8003694:	6c1b      	ldr	r3, [r3, #64]	@ 0x40
 8003696:	f003 5380 	and.w	r3, r3, #268435456	@ 0x10000000
 800369a:	60bb      	str	r3, [r7, #8]
 800369c:	68bb      	ldr	r3, [r7, #8]
      pwrclkchanged = SET;
 800369e:	2301      	movs	r3, #1
 80036a0:	75fb      	strb	r3, [r7, #23]
    }

    if (HAL_IS_BIT_CLR(PWR->CR1, PWR_CR1_DBP))
 80036a2:	4b82      	ldr	r3, [pc, #520]	@ (80038ac <HAL_RCC_OscConfig+0x4d0>)
 80036a4:	681b      	ldr	r3, [r3, #0]
 80036a6:	f403 7380 	and.w	r3, r3, #256	@ 0x100
 80036aa:	2b00      	cmp	r3, #0
 80036ac:	d118      	bne.n	80036e0 <HAL_RCC_OscConfig+0x304>
    {
      /* Enable write access to Backup domain */
      PWR->CR1 |= PWR_CR1_DBP;
 80036ae:	4b7f      	ldr	r3, [pc, #508]	@ (80038ac <HAL_RCC_OscConfig+0x4d0>)
 80036b0:	681b      	ldr	r3, [r3, #0]
 80036b2:	4a7e      	ldr	r2, [pc, #504]	@ (80038ac <HAL_RCC_OscConfig+0x4d0>)
 80036b4:	f443 7380 	orr.w	r3, r3, #256	@ 0x100
 80036b8:	6013      	str	r3, [r2, #0]

      /* Wait for Backup domain Write protection disable */
      tickstart = HAL_GetTick();
 80036ba:	f7fe fbc7 	bl	8001e4c <HAL_GetTick>
 80036be:	6138      	str	r0, [r7, #16]

      while (HAL_IS_BIT_CLR(PWR->CR1, PWR_CR1_DBP))
 80036c0:	e008      	b.n	80036d4 <HAL_RCC_OscConfig+0x2f8>
      {
        if ((HAL_GetTick() - tickstart) > RCC_DBP_TIMEOUT_VALUE)
 80036c2:	f7fe fbc3 	bl	8001e4c <HAL_GetTick>
 80036c6:	4602      	mov	r2, r0
 80036c8:	693b      	ldr	r3, [r7, #16]
 80036ca:	1ad3      	subs	r3, r2, r3
 80036cc:	2b64      	cmp	r3, #100	@ 0x64
 80036ce:	d901      	bls.n	80036d4 <HAL_RCC_OscConfig+0x2f8>
        {
          return HAL_TIMEOUT;
 80036d0:	2303      	movs	r3, #3
 80036d2:	e120      	b.n	8003916 <HAL_RCC_OscConfig+0x53a>
      while (HAL_IS_BIT_CLR(PWR->CR1, PWR_CR1_DBP))
 80036d4:	4b75      	ldr	r3, [pc, #468]	@ (80038ac <HAL_RCC_OscConfig+0x4d0>)
 80036d6:	681b      	ldr	r3, [r3, #0]
 80036d8:	f403 7380 	and.w	r3, r3, #256	@ 0x100
 80036dc:	2b00      	cmp	r3, #0
 80036de:	d0f0      	beq.n	80036c2 <HAL_RCC_OscConfig+0x2e6>
        }
      }
    }

    /* Set the new LSE configuration -----------------------------------------*/
    __HAL_RCC_LSE_CONFIG(RCC_OscInitStruct->LSEState);
 80036e0:	687b      	ldr	r3, [r7, #4]
 80036e2:	689b      	ldr	r3, [r3, #8]
 80036e4:	2b01      	cmp	r3, #1
 80036e6:	d106      	bne.n	80036f6 <HAL_RCC_OscConfig+0x31a>
 80036e8:	4b6f      	ldr	r3, [pc, #444]	@ (80038a8 <HAL_RCC_OscConfig+0x4cc>)
 80036ea:	6f1b      	ldr	r3, [r3, #112]	@ 0x70
 80036ec:	4a6e      	ldr	r2, [pc, #440]	@ (80038a8 <HAL_RCC_OscConfig+0x4cc>)
 80036ee:	f043 0301 	orr.w	r3, r3, #1
 80036f2:	6713      	str	r3, [r2, #112]	@ 0x70
 80036f4:	e02d      	b.n	8003752 <HAL_RCC_OscConfig+0x376>
 80036f6:	687b      	ldr	r3, [r7, #4]
 80036f8:	689b      	ldr	r3, [r3, #8]
 80036fa:	2b00      	cmp	r3, #0
 80036fc:	d10c      	bne.n	8003718 <HAL_RCC_OscConfig+0x33c>
 80036fe:	4b6a      	ldr	r3, [pc, #424]	@ (80038a8 <HAL_RCC_OscConfig+0x4cc>)
 8003700:	6f1b      	ldr	r3, [r3, #112]	@ 0x70
 8003702:	4a69      	ldr	r2, [pc, #420]	@ (80038a8 <HAL_RCC_OscConfig+0x4cc>)
 8003704:	f023 0301 	bic.w	r3, r3, #1
 8003708:	6713      	str	r3, [r2, #112]	@ 0x70
 800370a:	4b67      	ldr	r3, [pc, #412]	@ (80038a8 <HAL_RCC_OscConfig+0x4cc>)
 800370c:	6f1b      	ldr	r3, [r3, #112]	@ 0x70
 800370e:	4a66      	ldr	r2, [pc, #408]	@ (80038a8 <HAL_RCC_OscConfig+0x4cc>)
 8003710:	f023 0304 	bic.w	r3, r3, #4
 8003714:	6713      	str	r3, [r2, #112]	@ 0x70
 8003716:	e01c      	b.n	8003752 <HAL_RCC_OscConfig+0x376>
 8003718:	687b      	ldr	r3, [r7, #4]
 800371a:	689b      	ldr	r3, [r3, #8]
 800371c:	2b05      	cmp	r3, #5
 800371e:	d10c      	bne.n	800373a <HAL_RCC_OscConfig+0x35e>
 8003720:	4b61      	ldr	r3, [pc, #388]	@ (80038a8 <HAL_RCC_OscConfig+0x4cc>)
 8003722:	6f1b      	ldr	r3, [r3, #112]	@ 0x70
 8003724:	4a60      	ldr	r2, [pc, #384]	@ (80038a8 <HAL_RCC_OscConfig+0x4cc>)
 8003726:	f043 0304 	orr.w	r3, r3, #4
 800372a:	6713      	str	r3, [r2, #112]	@ 0x70
 800372c:	4b5e      	ldr	r3, [pc, #376]	@ (80038a8 <HAL_RCC_OscConfig+0x4cc>)
 800372e:	6f1b      	ldr	r3, [r3, #112]	@ 0x70
 8003730:	4a5d      	ldr	r2, [pc, #372]	@ (80038a8 <HAL_RCC_OscConfig+0x4cc>)
 8003732:	f043 0301 	orr.w	r3, r3, #1
 8003736:	6713      	str	r3, [r2, #112]	@ 0x70
 8003738:	e00b      	b.n	8003752 <HAL_RCC_OscConfig+0x376>
 800373a:	4b5b      	ldr	r3, [pc, #364]	@ (80038a8 <HAL_RCC_OscConfig+0x4cc>)
 800373c:	6f1b      	ldr	r3, [r3, #112]	@ 0x70
 800373e:	4a5a      	ldr	r2, [pc, #360]	@ (80038a8 <HAL_RCC_OscConfig+0x4cc>)
 8003740:	f023 0301 	bic.w	r3, r3, #1
 8003744:	6713      	str	r3, [r2, #112]	@ 0x70
 8003746:	4b58      	ldr	r3, [pc, #352]	@ (80038a8 <HAL_RCC_OscConfig+0x4cc>)
 8003748:	6f1b      	ldr	r3, [r3, #112]	@ 0x70
 800374a:	4a57      	ldr	r2, [pc, #348]	@ (80038a8 <HAL_RCC_OscConfig+0x4cc>)
 800374c:	f023 0304 	bic.w	r3, r3, #4
 8003750:	6713      	str	r3, [r2, #112]	@ 0x70
    /* Check the LSE State */
    if ((RCC_OscInitStruct->LSEState) != RCC_LSE_OFF)
 8003752:	687b      	ldr	r3, [r7, #4]
 8003754:	689b      	ldr	r3, [r3, #8]
 8003756:	2b00      	cmp	r3, #0
 8003758:	d015      	beq.n	8003786 <HAL_RCC_OscConfig+0x3aa>
    {
      /* Get Start Tick*/
      tickstart = HAL_GetTick();
 800375a:	f7fe fb77 	bl	8001e4c <HAL_GetTick>
 800375e:	6138      	str	r0, [r7, #16]

      /* Wait till LSE is ready */
      while (__HAL_RCC_GET_FLAG(RCC_FLAG_LSERDY) == RESET)
 8003760:	e00a      	b.n	8003778 <HAL_RCC_OscConfig+0x39c>
      {
        if ((HAL_GetTick() - tickstart) > RCC_LSE_TIMEOUT_VALUE)
 8003762:	f7fe fb73 	bl	8001e4c <HAL_GetTick>
 8003766:	4602      	mov	r2, r0
 8003768:	693b      	ldr	r3, [r7, #16]
 800376a:	1ad3      	subs	r3, r2, r3
 800376c:	f241 3288 	movw	r2, #5000	@ 0x1388
 8003770:	4293      	cmp	r3, r2
 8003772:	d901      	bls.n	8003778 <HAL_RCC_OscConfig+0x39c>
        {
          return HAL_TIMEOUT;
 8003774:	2303      	movs	r3, #3
 8003776:	e0ce      	b.n	8003916 <HAL_RCC_OscConfig+0x53a>
      while (__HAL_RCC_GET_FLAG(RCC_FLAG_LSERDY) == RESET)
 8003778:	4b4b      	ldr	r3, [pc, #300]	@ (80038a8 <HAL_RCC_OscConfig+0x4cc>)
 800377a:	6f1b      	ldr	r3, [r3, #112]	@ 0x70
 800377c:	f003 0302 	and.w	r3, r3, #2
 8003780:	2b00      	cmp	r3, #0
 8003782:	d0ee      	beq.n	8003762 <HAL_RCC_OscConfig+0x386>
 8003784:	e014      	b.n	80037b0 <HAL_RCC_OscConfig+0x3d4>
      }
    }
    else
    {
      /* Get Start Tick*/
      tickstart = HAL_GetTick();
 8003786:	f7fe fb61 	bl	8001e4c <HAL_GetTick>
 800378a:	6138      	str	r0, [r7, #16]

      /* Wait till LSE is ready */
      while (__HAL_RCC_GET_FLAG(RCC_FLAG_LSERDY) != RESET)
 800378c:	e00a      	b.n	80037a4 <HAL_RCC_OscConfig+0x3c8>
      {
        if ((HAL_GetTick() - tickstart) > RCC_LSE_TIMEOUT_VALUE)
 800378e:	f7fe fb5d 	bl	8001e4c <HAL_GetTick>
 8003792:	4602      	mov	r2, r0
 8003794:	693b      	ldr	r3, [r7, #16]
 8003796:	1ad3      	subs	r3, r2, r3
 8003798:	f241 3288 	movw	r2, #5000	@ 0x1388
 800379c:	4293      	cmp	r3, r2
 800379e:	d901      	bls.n	80037a4 <HAL_RCC_OscConfig+0x3c8>
        {
          return HAL_TIMEOUT;
 80037a0:	2303      	movs	r3, #3
 80037a2:	e0b8      	b.n	8003916 <HAL_RCC_OscConfig+0x53a>
      while (__HAL_RCC_GET_FLAG(RCC_FLAG_LSERDY) != RESET)
 80037a4:	4b40      	ldr	r3, [pc, #256]	@ (80038a8 <HAL_RCC_OscConfig+0x4cc>)
 80037a6:	6f1b      	ldr	r3, [r3, #112]	@ 0x70
 80037a8:	f003 0302 	and.w	r3, r3, #2
 80037ac:	2b00      	cmp	r3, #0
 80037ae:	d1ee      	bne.n	800378e <HAL_RCC_OscConfig+0x3b2>
        }
      }
    }

    /* Restore clock configuration if changed */
    if (pwrclkchanged == SET)
 80037b0:	7dfb      	ldrb	r3, [r7, #23]
 80037b2:	2b01      	cmp	r3, #1
 80037b4:	d105      	bne.n	80037c2 <HAL_RCC_OscConfig+0x3e6>
    {
      __HAL_RCC_PWR_CLK_DISABLE();
 80037b6:	4b3c      	ldr	r3, [pc, #240]	@ (80038a8 <HAL_RCC_OscConfig+0x4cc>)
 80037b8:	6c1b      	ldr	r3, [r3, #64]	@ 0x40
 80037ba:	4a3b      	ldr	r2, [pc, #236]	@ (80038a8 <HAL_RCC_OscConfig+0x4cc>)
 80037bc:	f023 5380 	bic.w	r3, r3, #268435456	@ 0x10000000
 80037c0:	6413      	str	r3, [r2, #64]	@ 0x40
    }
  }
  /*-------------------------------- PLL Configuration -----------------------*/
  /* Check the parameters */
  assert_param(IS_RCC_PLL(RCC_OscInitStruct->PLL.PLLState));
  if ((RCC_OscInitStruct->PLL.PLLState) != RCC_PLL_NONE)
 80037c2:	687b      	ldr	r3, [r7, #4]
 80037c4:	699b      	ldr	r3, [r3, #24]
 80037c6:	2b00      	cmp	r3, #0
 80037c8:	f000 80a4 	beq.w	8003914 <HAL_RCC_OscConfig+0x538>
  {
    /* Check if the PLL is used as system clock or not */
    if (__HAL_RCC_GET_SYSCLK_SOURCE() != RCC_SYSCLKSOURCE_STATUS_PLLCLK)
 80037cc:	4b36      	ldr	r3, [pc, #216]	@ (80038a8 <HAL_RCC_OscConfig+0x4cc>)
 80037ce:	689b      	ldr	r3, [r3, #8]
 80037d0:	f003 030c 	and.w	r3, r3, #12
 80037d4:	2b08      	cmp	r3, #8
 80037d6:	d06b      	beq.n	80038b0 <HAL_RCC_OscConfig+0x4d4>
    {
      if ((RCC_OscInitStruct->PLL.PLLState) == RCC_PLL_ON)
 80037d8:	687b      	ldr	r3, [r7, #4]
 80037da:	699b      	ldr	r3, [r3, #24]
 80037dc:	2b02      	cmp	r3, #2
 80037de:	d149      	bne.n	8003874 <HAL_RCC_OscConfig+0x498>
#if defined (RCC_PLLCFGR_PLLR)
        assert_param(IS_RCC_PLLR_VALUE(RCC_OscInitStruct->PLL.PLLR));
#endif

        /* Disable the main PLL. */
        __HAL_RCC_PLL_DISABLE();
 80037e0:	4b31      	ldr	r3, [pc, #196]	@ (80038a8 <HAL_RCC_OscConfig+0x4cc>)
 80037e2:	681b      	ldr	r3, [r3, #0]
 80037e4:	4a30      	ldr	r2, [pc, #192]	@ (80038a8 <HAL_RCC_OscConfig+0x4cc>)
 80037e6:	f023 7380 	bic.w	r3, r3, #16777216	@ 0x1000000
 80037ea:	6013      	str	r3, [r2, #0]

        /* Get Start Tick*/
        tickstart = HAL_GetTick();
 80037ec:	f7fe fb2e 	bl	8001e4c <HAL_GetTick>
 80037f0:	6138      	str	r0, [r7, #16]

        /* Wait till PLL is ready */
        while (__HAL_RCC_GET_FLAG(RCC_FLAG_PLLRDY) != RESET)
 80037f2:	e008      	b.n	8003806 <HAL_RCC_OscConfig+0x42a>
        {
          if ((HAL_GetTick() - tickstart) > PLL_TIMEOUT_VALUE)
 80037f4:	f7fe fb2a 	bl	8001e4c <HAL_GetTick>
 80037f8:	4602      	mov	r2, r0
 80037fa:	693b      	ldr	r3, [r7, #16]
 80037fc:	1ad3      	subs	r3, r2, r3
 80037fe:	2b02      	cmp	r3, #2
 8003800:	d901      	bls.n	8003806 <HAL_RCC_OscConfig+0x42a>
          {
            return HAL_TIMEOUT;
 8003802:	2303      	movs	r3, #3
 8003804:	e087      	b.n	8003916 <HAL_RCC_OscConfig+0x53a>
        while (__HAL_RCC_GET_FLAG(RCC_FLAG_PLLRDY) != RESET)
 8003806:	4b28      	ldr	r3, [pc, #160]	@ (80038a8 <HAL_RCC_OscConfig+0x4cc>)
 8003808:	681b      	ldr	r3, [r3, #0]
 800380a:	f003 7300 	and.w	r3, r3, #33554432	@ 0x2000000
 800380e:	2b00      	cmp	r3, #0
 8003810:	d1f0      	bne.n	80037f4 <HAL_RCC_OscConfig+0x418>
                             RCC_OscInitStruct->PLL.PLLN,
                             RCC_OscInitStruct->PLL.PLLP,
                             RCC_OscInitStruct->PLL.PLLQ,
                             RCC_OscInitStruct->PLL.PLLR);
#else
        __HAL_RCC_PLL_CONFIG(RCC_OscInitStruct->PLL.PLLSource,
 8003812:	687b      	ldr	r3, [r7, #4]
 8003814:	69da      	ldr	r2, [r3, #28]
 8003816:	687b      	ldr	r3, [r7, #4]
 8003818:	6a1b      	ldr	r3, [r3, #32]
 800381a:	431a      	orrs	r2, r3
 800381c:	687b      	ldr	r3, [r7, #4]
 800381e:	6a5b      	ldr	r3, [r3, #36]	@ 0x24
 8003820:	019b      	lsls	r3, r3, #6
 8003822:	431a      	orrs	r2, r3
 8003824:	687b      	ldr	r3, [r7, #4]
 8003826:	6a9b      	ldr	r3, [r3, #40]	@ 0x28
 8003828:	085b      	lsrs	r3, r3, #1
 800382a:	3b01      	subs	r3, #1
 800382c:	041b      	lsls	r3, r3, #16
 800382e:	431a      	orrs	r2, r3
 8003830:	687b      	ldr	r3, [r7, #4]
 8003832:	6adb      	ldr	r3, [r3, #44]	@ 0x2c
 8003834:	061b      	lsls	r3, r3, #24
 8003836:	4313      	orrs	r3, r2
 8003838:	4a1b      	ldr	r2, [pc, #108]	@ (80038a8 <HAL_RCC_OscConfig+0x4cc>)
 800383a:	f043 5300 	orr.w	r3, r3, #536870912	@ 0x20000000
 800383e:	6053      	str	r3, [r2, #4]
                             RCC_OscInitStruct->PLL.PLLP,
                             RCC_OscInitStruct->PLL.PLLQ);
#endif

        /* Enable the main PLL. */
        __HAL_RCC_PLL_ENABLE();
 8003840:	4b19      	ldr	r3, [pc, #100]	@ (80038a8 <HAL_RCC_OscConfig+0x4cc>)
 8003842:	681b      	ldr	r3, [r3, #0]
 8003844:	4a18      	ldr	r2, [pc, #96]	@ (80038a8 <HAL_RCC_OscConfig+0x4cc>)
 8003846:	f043 7380 	orr.w	r3, r3, #16777216	@ 0x1000000
 800384a:	6013      	str	r3, [r2, #0]

        /* Get Start Tick*/
        tickstart = HAL_GetTick();
 800384c:	f7fe fafe 	bl	8001e4c <HAL_GetTick>
 8003850:	6138      	str	r0, [r7, #16]

        /* Wait till PLL is ready */
        while (__HAL_RCC_GET_FLAG(RCC_FLAG_PLLRDY) == RESET)
 8003852:	e008      	b.n	8003866 <HAL_RCC_OscConfig+0x48a>
        {
          if ((HAL_GetTick() - tickstart) > PLL_TIMEOUT_VALUE)
 8003854:	f7fe fafa 	bl	8001e4c <HAL_GetTick>
 8003858:	4602      	mov	r2, r0
 800385a:	693b      	ldr	r3, [r7, #16]
 800385c:	1ad3      	subs	r3, r2, r3
 800385e:	2b02      	cmp	r3, #2
 8003860:	d901      	bls.n	8003866 <HAL_RCC_OscConfig+0x48a>
          {
            return HAL_TIMEOUT;
 8003862:	2303      	movs	r3, #3
 8003864:	e057      	b.n	8003916 <HAL_RCC_OscConfig+0x53a>
        while (__HAL_RCC_GET_FLAG(RCC_FLAG_PLLRDY) == RESET)
 8003866:	4b10      	ldr	r3, [pc, #64]	@ (80038a8 <HAL_RCC_OscConfig+0x4cc>)
 8003868:	681b      	ldr	r3, [r3, #0]
 800386a:	f003 7300 	and.w	r3, r3, #33554432	@ 0x2000000
 800386e:	2b00      	cmp	r3, #0
 8003870:	d0f0      	beq.n	8003854 <HAL_RCC_OscConfig+0x478>
 8003872:	e04f      	b.n	8003914 <HAL_RCC_OscConfig+0x538>
        }
      }
      else
      {
        /* Disable the main PLL. */
        __HAL_RCC_PLL_DISABLE();
 8003874:	4b0c      	ldr	r3, [pc, #48]	@ (80038a8 <HAL_RCC_OscConfig+0x4cc>)
 8003876:	681b      	ldr	r3, [r3, #0]
 8003878:	4a0b      	ldr	r2, [pc, #44]	@ (80038a8 <HAL_RCC_OscConfig+0x4cc>)
 800387a:	f023 7380 	bic.w	r3, r3, #16777216	@ 0x1000000
 800387e:	6013      	str	r3, [r2, #0]

        /* Get Start Tick*/
        tickstart = HAL_GetTick();
 8003880:	f7fe fae4 	bl	8001e4c <HAL_GetTick>
 8003884:	6138      	str	r0, [r7, #16]

        /* Wait till PLL is ready */
        while (__HAL_RCC_GET_FLAG(RCC_FLAG_PLLRDY) != RESET)
 8003886:	e008      	b.n	800389a <HAL_RCC_OscConfig+0x4be>
        {
          if ((HAL_GetTick() - tickstart) > PLL_TIMEOUT_VALUE)
 8003888:	f7fe fae0 	bl	8001e4c <HAL_GetTick>
 800388c:	4602      	mov	r2, r0
 800388e:	693b      	ldr	r3, [r7, #16]
 8003890:	1ad3      	subs	r3, r2, r3
 8003892:	2b02      	cmp	r3, #2
 8003894:	d901      	bls.n	800389a <HAL_RCC_OscConfig+0x4be>
          {
            return HAL_TIMEOUT;
 8003896:	2303      	movs	r3, #3
 8003898:	e03d      	b.n	8003916 <HAL_RCC_OscConfig+0x53a>
        while (__HAL_RCC_GET_FLAG(RCC_FLAG_PLLRDY) != RESET)
 800389a:	4b03      	ldr	r3, [pc, #12]	@ (80038a8 <HAL_RCC_OscConfig+0x4cc>)
 800389c:	681b      	ldr	r3, [r3, #0]
 800389e:	f003 7300 	and.w	r3, r3, #33554432	@ 0x2000000
 80038a2:	2b00      	cmp	r3, #0
 80038a4:	d1f0      	bne.n	8003888 <HAL_RCC_OscConfig+0x4ac>
 80038a6:	e035      	b.n	8003914 <HAL_RCC_OscConfig+0x538>
 80038a8:	40023800 	.word	0x40023800
 80038ac:	40007000 	.word	0x40007000
      }
    }
    else
    {
      /* Do not return HAL_ERROR if request repeats the current configuration */
      pll_config = RCC->PLLCFGR;
 80038b0:	4b1b      	ldr	r3, [pc, #108]	@ (8003920 <HAL_RCC_OscConfig+0x544>)
 80038b2:	685b      	ldr	r3, [r3, #4]
 80038b4:	60fb      	str	r3, [r7, #12]
          (READ_BIT(pll_config, RCC_PLLCFGR_PLLN) != (RCC_OscInitStruct->PLL.PLLN << RCC_PLLCFGR_PLLN_Pos)) ||
          (READ_BIT(pll_config, RCC_PLLCFGR_PLLP) != ((((RCC_OscInitStruct->PLL.PLLP) >> 1U) - 1U) << RCC_PLLCFGR_PLLP_Pos)) ||
          (READ_BIT(pll_config, RCC_PLLCFGR_PLLQ) != (RCC_OscInitStruct->PLL.PLLQ << RCC_PLLCFGR_PLLQ_Pos)) ||
          (READ_BIT(pll_config, RCC_PLLCFGR_PLLR) != (RCC_OscInitStruct->PLL.PLLR << RCC_PLLCFGR_PLLR_Pos)))
#else
      if (((RCC_OscInitStruct->PLL.PLLState) == RCC_PLL_OFF) ||
 80038b6:	687b      	ldr	r3, [r7, #4]
 80038b8:	699b      	ldr	r3, [r3, #24]
 80038ba:	2b01      	cmp	r3, #1
 80038bc:	d028      	beq.n	8003910 <HAL_RCC_OscConfig+0x534>
          (READ_BIT(pll_config, RCC_PLLCFGR_PLLSRC) != RCC_OscInitStruct->PLL.PLLSource) ||
 80038be:	68fb      	ldr	r3, [r7, #12]
 80038c0:	f403 0280 	and.w	r2, r3, #4194304	@ 0x400000
 80038c4:	687b      	ldr	r3, [r7, #4]
 80038c6:	69db      	ldr	r3, [r3, #28]
      if (((RCC_OscInitStruct->PLL.PLLState) == RCC_PLL_OFF) ||
 80038c8:	429a      	cmp	r2, r3
 80038ca:	d121      	bne.n	8003910 <HAL_RCC_OscConfig+0x534>
          (READ_BIT(pll_config, RCC_PLLCFGR_PLLM) != RCC_OscInitStruct->PLL.PLLM) ||
 80038cc:	68fb      	ldr	r3, [r7, #12]
 80038ce:	f003 023f 	and.w	r2, r3, #63	@ 0x3f
 80038d2:	687b      	ldr	r3, [r7, #4]
 80038d4:	6a1b      	ldr	r3, [r3, #32]
          (READ_BIT(pll_config, RCC_PLLCFGR_PLLSRC) != RCC_OscInitStruct->PLL.PLLSource) ||
 80038d6:	429a      	cmp	r2, r3
 80038d8:	d11a      	bne.n	8003910 <HAL_RCC_OscConfig+0x534>
          (READ_BIT(pll_config, RCC_PLLCFGR_PLLN) != (RCC_OscInitStruct->PLL.PLLN << RCC_PLLCFGR_PLLN_Pos)) ||
 80038da:	68fa      	ldr	r2, [r7, #12]
 80038dc:	f647 73c0 	movw	r3, #32704	@ 0x7fc0
 80038e0:	4013      	ands	r3, r2
 80038e2:	687a      	ldr	r2, [r7, #4]
 80038e4:	6a52      	ldr	r2, [r2, #36]	@ 0x24
 80038e6:	0192      	lsls	r2, r2, #6
          (READ_BIT(pll_config, RCC_PLLCFGR_PLLM) != RCC_OscInitStruct->PLL.PLLM) ||
 80038e8:	4293      	cmp	r3, r2
 80038ea:	d111      	bne.n	8003910 <HAL_RCC_OscConfig+0x534>
          (READ_BIT(pll_config, RCC_PLLCFGR_PLLP) != ((((RCC_OscInitStruct->PLL.PLLP) >> 1U) - 1U) << RCC_PLLCFGR_PLLP_Pos)) ||
 80038ec:	68fb      	ldr	r3, [r7, #12]
 80038ee:	f403 3240 	and.w	r2, r3, #196608	@ 0x30000
 80038f2:	687b      	ldr	r3, [r7, #4]
 80038f4:	6a9b      	ldr	r3, [r3, #40]	@ 0x28
 80038f6:	085b      	lsrs	r3, r3, #1
 80038f8:	3b01      	subs	r3, #1
 80038fa:	041b      	lsls	r3, r3, #16
          (READ_BIT(pll_config, RCC_PLLCFGR_PLLN) != (RCC_OscInitStruct->PLL.PLLN << RCC_PLLCFGR_PLLN_Pos)) ||
 80038fc:	429a      	cmp	r2, r3
 80038fe:	d107      	bne.n	8003910 <HAL_RCC_OscConfig+0x534>
          (READ_BIT(pll_config, RCC_PLLCFGR_PLLQ) != (RCC_OscInitStruct->PLL.PLLQ << RCC_PLLCFGR_PLLQ_Pos)))
 8003900:	68fb      	ldr	r3, [r7, #12]
 8003902:	f003 6270 	and.w	r2, r3, #251658240	@ 0xf000000
 8003906:	687b      	ldr	r3, [r7, #4]
 8003908:	6adb      	ldr	r3, [r3, #44]	@ 0x2c
 800390a:	061b      	lsls	r3, r3, #24
          (READ_BIT(pll_config, RCC_PLLCFGR_PLLP) != ((((RCC_OscInitStruct->PLL.PLLP) >> 1U) - 1U) << RCC_PLLCFGR_PLLP_Pos)) ||
 800390c:	429a      	cmp	r2, r3
 800390e:	d001      	beq.n	8003914 <HAL_RCC_OscConfig+0x538>
#endif
      {
        return HAL_ERROR;
 8003910:	2301      	movs	r3, #1
 8003912:	e000      	b.n	8003916 <HAL_RCC_OscConfig+0x53a>
      }
    }
  }
  return HAL_OK;
 8003914:	2300      	movs	r3, #0
}
 8003916:	4618      	mov	r0, r3
 8003918:	3718      	adds	r7, #24
 800391a:	46bd      	mov	sp, r7
 800391c:	bd80      	pop	{r7, pc}
 800391e:	bf00      	nop
 8003920:	40023800 	.word	0x40023800

08003924 <HAL_RCC_ClockConfig>:
  *         HPRE[3:0] bits to ensure that HCLK not exceed the maximum allowed frequency
  *         (for more details refer to section above "Initialization/de-initialization functions")
  * @retval None
  */
HAL_StatusTypeDef HAL_RCC_ClockConfig(const RCC_ClkInitTypeDef  *RCC_ClkInitStruct, uint32_t FLatency)
{
 8003924:	b580      	push	{r7, lr}
 8003926:	b084      	sub	sp, #16
 8003928:	af00      	add	r7, sp, #0
 800392a:	6078      	str	r0, [r7, #4]
 800392c:	6039      	str	r1, [r7, #0]
  uint32_t tickstart = 0;
 800392e:	2300      	movs	r3, #0
 8003930:	60fb      	str	r3, [r7, #12]

  /* Check Null pointer */
  if (RCC_ClkInitStruct == NULL)
 8003932:	687b      	ldr	r3, [r7, #4]
 8003934:	2b00      	cmp	r3, #0
 8003936:	d101      	bne.n	800393c <HAL_RCC_ClockConfig+0x18>
  {
    return HAL_ERROR;
 8003938:	2301      	movs	r3, #1
 800393a:	e0d0      	b.n	8003ade <HAL_RCC_ClockConfig+0x1ba>
  /* To correctly read data from FLASH memory, the number of wait states (LATENCY)
     must be correctly programmed according to the frequency of the CPU clock
     (HCLK) and the supply voltage of the device. */

  /* Increasing the CPU frequency */
  if (FLatency > __HAL_FLASH_GET_LATENCY())
 800393c:	4b6a      	ldr	r3, [pc, #424]	@ (8003ae8 <HAL_RCC_ClockConfig+0x1c4>)
 800393e:	681b      	ldr	r3, [r3, #0]
 8003940:	f003 030f 	and.w	r3, r3, #15
 8003944:	683a      	ldr	r2, [r7, #0]
 8003946:	429a      	cmp	r2, r3
 8003948:	d910      	bls.n	800396c <HAL_RCC_ClockConfig+0x48>
  {
    /* Program the new number of wait states to the LATENCY bits in the FLASH_ACR register */
    __HAL_FLASH_SET_LATENCY(FLatency);
 800394a:	4b67      	ldr	r3, [pc, #412]	@ (8003ae8 <HAL_RCC_ClockConfig+0x1c4>)
 800394c:	681b      	ldr	r3, [r3, #0]
 800394e:	f023 020f 	bic.w	r2, r3, #15
 8003952:	4965      	ldr	r1, [pc, #404]	@ (8003ae8 <HAL_RCC_ClockConfig+0x1c4>)
 8003954:	683b      	ldr	r3, [r7, #0]
 8003956:	4313      	orrs	r3, r2
 8003958:	600b      	str	r3, [r1, #0]

    /* Check that the new number of wait states is taken into account to access the Flash
    memory by reading the FLASH_ACR register */
    if (__HAL_FLASH_GET_LATENCY() != FLatency)
 800395a:	4b63      	ldr	r3, [pc, #396]	@ (8003ae8 <HAL_RCC_ClockConfig+0x1c4>)
 800395c:	681b      	ldr	r3, [r3, #0]
 800395e:	f003 030f 	and.w	r3, r3, #15
 8003962:	683a      	ldr	r2, [r7, #0]
 8003964:	429a      	cmp	r2, r3
 8003966:	d001      	beq.n	800396c <HAL_RCC_ClockConfig+0x48>
    {
      return HAL_ERROR;
 8003968:	2301      	movs	r3, #1
 800396a:	e0b8      	b.n	8003ade <HAL_RCC_ClockConfig+0x1ba>
    }
  }

  /*-------------------------- HCLK Configuration --------------------------*/
  if (((RCC_ClkInitStruct->ClockType) & RCC_CLOCKTYPE_HCLK) == RCC_CLOCKTYPE_HCLK)
 800396c:	687b      	ldr	r3, [r7, #4]
 800396e:	681b      	ldr	r3, [r3, #0]
 8003970:	f003 0302 	and.w	r3, r3, #2
 8003974:	2b00      	cmp	r3, #0
 8003976:	d020      	beq.n	80039ba <HAL_RCC_ClockConfig+0x96>
  {
    /* Set the highest APBx dividers in order to ensure that we do not go through
       a non-spec phase whatever we decrease or increase HCLK. */
    if (((RCC_ClkInitStruct->ClockType) & RCC_CLOCKTYPE_PCLK1) == RCC_CLOCKTYPE_PCLK1)
 8003978:	687b      	ldr	r3, [r7, #4]
 800397a:	681b      	ldr	r3, [r3, #0]
 800397c:	f003 0304 	and.w	r3, r3, #4
 8003980:	2b00      	cmp	r3, #0
 8003982:	d005      	beq.n	8003990 <HAL_RCC_ClockConfig+0x6c>
    {
      MODIFY_REG(RCC->CFGR, RCC_CFGR_PPRE1, RCC_HCLK_DIV16);
 8003984:	4b59      	ldr	r3, [pc, #356]	@ (8003aec <HAL_RCC_ClockConfig+0x1c8>)
 8003986:	689b      	ldr	r3, [r3, #8]
 8003988:	4a58      	ldr	r2, [pc, #352]	@ (8003aec <HAL_RCC_ClockConfig+0x1c8>)
 800398a:	f443 53e0 	orr.w	r3, r3, #7168	@ 0x1c00
 800398e:	6093      	str	r3, [r2, #8]
    }

    if (((RCC_ClkInitStruct->ClockType) & RCC_CLOCKTYPE_PCLK2) == RCC_CLOCKTYPE_PCLK2)
 8003990:	687b      	ldr	r3, [r7, #4]
 8003992:	681b      	ldr	r3, [r3, #0]
 8003994:	f003 0308 	and.w	r3, r3, #8
 8003998:	2b00      	cmp	r3, #0
 800399a:	d005      	beq.n	80039a8 <HAL_RCC_ClockConfig+0x84>
    {
      MODIFY_REG(RCC->CFGR, RCC_CFGR_PPRE2, (RCC_HCLK_DIV16 << 3));
 800399c:	4b53      	ldr	r3, [pc, #332]	@ (8003aec <HAL_RCC_ClockConfig+0x1c8>)
 800399e:	689b      	ldr	r3, [r3, #8]
 80039a0:	4a52      	ldr	r2, [pc, #328]	@ (8003aec <HAL_RCC_ClockConfig+0x1c8>)
 80039a2:	f443 4360 	orr.w	r3, r3, #57344	@ 0xe000
 80039a6:	6093      	str	r3, [r2, #8]
    }

    /* Set the new HCLK clock divider */
    assert_param(IS_RCC_HCLK(RCC_ClkInitStruct->AHBCLKDivider));
    MODIFY_REG(RCC->CFGR, RCC_CFGR_HPRE, RCC_ClkInitStruct->AHBCLKDivider);
 80039a8:	4b50      	ldr	r3, [pc, #320]	@ (8003aec <HAL_RCC_ClockConfig+0x1c8>)
 80039aa:	689b      	ldr	r3, [r3, #8]
 80039ac:	f023 02f0 	bic.w	r2, r3, #240	@ 0xf0
 80039b0:	687b      	ldr	r3, [r7, #4]
 80039b2:	689b      	ldr	r3, [r3, #8]
 80039b4:	494d      	ldr	r1, [pc, #308]	@ (8003aec <HAL_RCC_ClockConfig+0x1c8>)
 80039b6:	4313      	orrs	r3, r2
 80039b8:	608b      	str	r3, [r1, #8]
  }

  /*------------------------- SYSCLK Configuration ---------------------------*/
  if (((RCC_ClkInitStruct->ClockType) & RCC_CLOCKTYPE_SYSCLK) == RCC_CLOCKTYPE_SYSCLK)
 80039ba:	687b      	ldr	r3, [r7, #4]
 80039bc:	681b      	ldr	r3, [r3, #0]
 80039be:	f003 0301 	and.w	r3, r3, #1
 80039c2:	2b00      	cmp	r3, #0
 80039c4:	d040      	beq.n	8003a48 <HAL_RCC_ClockConfig+0x124>
  {
    assert_param(IS_RCC_SYSCLKSOURCE(RCC_ClkInitStruct->SYSCLKSource));

    /* HSE is selected as System Clock Source */
    if (RCC_ClkInitStruct->SYSCLKSource == RCC_SYSCLKSOURCE_HSE)
 80039c6:	687b      	ldr	r3, [r7, #4]
 80039c8:	685b      	ldr	r3, [r3, #4]
 80039ca:	2b01      	cmp	r3, #1
 80039cc:	d107      	bne.n	80039de <HAL_RCC_ClockConfig+0xba>
    {
      /* Check the HSE ready flag */
      if (__HAL_RCC_GET_FLAG(RCC_FLAG_HSERDY) == RESET)
 80039ce:	4b47      	ldr	r3, [pc, #284]	@ (8003aec <HAL_RCC_ClockConfig+0x1c8>)
 80039d0:	681b      	ldr	r3, [r3, #0]
 80039d2:	f403 3300 	and.w	r3, r3, #131072	@ 0x20000
 80039d6:	2b00      	cmp	r3, #0
 80039d8:	d115      	bne.n	8003a06 <HAL_RCC_ClockConfig+0xe2>
      {
        return HAL_ERROR;
 80039da:	2301      	movs	r3, #1
 80039dc:	e07f      	b.n	8003ade <HAL_RCC_ClockConfig+0x1ba>
      }
    }
    /* PLL is selected as System Clock Source */
    else if (RCC_ClkInitStruct->SYSCLKSource == RCC_SYSCLKSOURCE_PLLCLK)
 80039de:	687b      	ldr	r3, [r7, #4]
 80039e0:	685b      	ldr	r3, [r3, #4]
 80039e2:	2b02      	cmp	r3, #2
 80039e4:	d107      	bne.n	80039f6 <HAL_RCC_ClockConfig+0xd2>
    {
      /* Check the PLL ready flag */
      if (__HAL_RCC_GET_FLAG(RCC_FLAG_PLLRDY) == RESET)
 80039e6:	4b41      	ldr	r3, [pc, #260]	@ (8003aec <HAL_RCC_ClockConfig+0x1c8>)
 80039e8:	681b      	ldr	r3, [r3, #0]
 80039ea:	f003 7300 	and.w	r3, r3, #33554432	@ 0x2000000
 80039ee:	2b00      	cmp	r3, #0
 80039f0:	d109      	bne.n	8003a06 <HAL_RCC_ClockConfig+0xe2>
      {
        return HAL_ERROR;
 80039f2:	2301      	movs	r3, #1
 80039f4:	e073      	b.n	8003ade <HAL_RCC_ClockConfig+0x1ba>
    }
    /* HSI is selected as System Clock Source */
    else
    {
      /* Check the HSI ready flag */
      if (__HAL_RCC_GET_FLAG(RCC_FLAG_HSIRDY) == RESET)
 80039f6:	4b3d      	ldr	r3, [pc, #244]	@ (8003aec <HAL_RCC_ClockConfig+0x1c8>)
 80039f8:	681b      	ldr	r3, [r3, #0]
 80039fa:	f003 0302 	and.w	r3, r3, #2
 80039fe:	2b00      	cmp	r3, #0
 8003a00:	d101      	bne.n	8003a06 <HAL_RCC_ClockConfig+0xe2>
      {
        return HAL_ERROR;
 8003a02:	2301      	movs	r3, #1
 8003a04:	e06b      	b.n	8003ade <HAL_RCC_ClockConfig+0x1ba>
      }
    }

    __HAL_RCC_SYSCLK_CONFIG(RCC_ClkInitStruct->SYSCLKSource);
 8003a06:	4b39      	ldr	r3, [pc, #228]	@ (8003aec <HAL_RCC_ClockConfig+0x1c8>)
 8003a08:	689b      	ldr	r3, [r3, #8]
 8003a0a:	f023 0203 	bic.w	r2, r3, #3
 8003a0e:	687b      	ldr	r3, [r7, #4]
 8003a10:	685b      	ldr	r3, [r3, #4]
 8003a12:	4936      	ldr	r1, [pc, #216]	@ (8003aec <HAL_RCC_ClockConfig+0x1c8>)
 8003a14:	4313      	orrs	r3, r2
 8003a16:	608b      	str	r3, [r1, #8]

    /* Get Start Tick*/
    tickstart = HAL_GetTick();
 8003a18:	f7fe fa18 	bl	8001e4c <HAL_GetTick>
 8003a1c:	60f8      	str	r0, [r7, #12]

    while (__HAL_RCC_GET_SYSCLK_SOURCE() != (RCC_ClkInitStruct->SYSCLKSource << RCC_CFGR_SWS_Pos))
 8003a1e:	e00a      	b.n	8003a36 <HAL_RCC_ClockConfig+0x112>
    {
      if ((HAL_GetTick() - tickstart) > CLOCKSWITCH_TIMEOUT_VALUE)
 8003a20:	f7fe fa14 	bl	8001e4c <HAL_GetTick>
 8003a24:	4602      	mov	r2, r0
 8003a26:	68fb      	ldr	r3, [r7, #12]
 8003a28:	1ad3      	subs	r3, r2, r3
 8003a2a:	f241 3288 	movw	r2, #5000	@ 0x1388
 8003a2e:	4293      	cmp	r3, r2
 8003a30:	d901      	bls.n	8003a36 <HAL_RCC_ClockConfig+0x112>
      {
        return HAL_TIMEOUT;
 8003a32:	2303      	movs	r3, #3
 8003a34:	e053      	b.n	8003ade <HAL_RCC_ClockConfig+0x1ba>
    while (__HAL_RCC_GET_SYSCLK_SOURCE() != (RCC_ClkInitStruct->SYSCLKSource << RCC_CFGR_SWS_Pos))
 8003a36:	4b2d      	ldr	r3, [pc, #180]	@ (8003aec <HAL_RCC_ClockConfig+0x1c8>)
 8003a38:	689b      	ldr	r3, [r3, #8]
 8003a3a:	f003 020c 	and.w	r2, r3, #12
 8003a3e:	687b      	ldr	r3, [r7, #4]
 8003a40:	685b      	ldr	r3, [r3, #4]
 8003a42:	009b      	lsls	r3, r3, #2
 8003a44:	429a      	cmp	r2, r3
 8003a46:	d1eb      	bne.n	8003a20 <HAL_RCC_ClockConfig+0xfc>
      }
    }
  }

  /* Decreasing the number of wait states because of lower CPU frequency */
  if (FLatency < __HAL_FLASH_GET_LATENCY())
 8003a48:	4b27      	ldr	r3, [pc, #156]	@ (8003ae8 <HAL_RCC_ClockConfig+0x1c4>)
 8003a4a:	681b      	ldr	r3, [r3, #0]
 8003a4c:	f003 030f 	and.w	r3, r3, #15
 8003a50:	683a      	ldr	r2, [r7, #0]
 8003a52:	429a      	cmp	r2, r3
 8003a54:	d210      	bcs.n	8003a78 <HAL_RCC_ClockConfig+0x154>
  {
    /* Program the new number of wait states to the LATENCY bits in the FLASH_ACR register */
    __HAL_FLASH_SET_LATENCY(FLatency);
 8003a56:	4b24      	ldr	r3, [pc, #144]	@ (8003ae8 <HAL_RCC_ClockConfig+0x1c4>)
 8003a58:	681b      	ldr	r3, [r3, #0]
 8003a5a:	f023 020f 	bic.w	r2, r3, #15
 8003a5e:	4922      	ldr	r1, [pc, #136]	@ (8003ae8 <HAL_RCC_ClockConfig+0x1c4>)
 8003a60:	683b      	ldr	r3, [r7, #0]
 8003a62:	4313      	orrs	r3, r2
 8003a64:	600b      	str	r3, [r1, #0]

    /* Check that the new number of wait states is taken into account to access the Flash
    memory by reading the FLASH_ACR register */
    if (__HAL_FLASH_GET_LATENCY() != FLatency)
 8003a66:	4b20      	ldr	r3, [pc, #128]	@ (8003ae8 <HAL_RCC_ClockConfig+0x1c4>)
 8003a68:	681b      	ldr	r3, [r3, #0]
 8003a6a:	f003 030f 	and.w	r3, r3, #15
 8003a6e:	683a      	ldr	r2, [r7, #0]
 8003a70:	429a      	cmp	r2, r3
 8003a72:	d001      	beq.n	8003a78 <HAL_RCC_ClockConfig+0x154>
    {
      return HAL_ERROR;
 8003a74:	2301      	movs	r3, #1
 8003a76:	e032      	b.n	8003ade <HAL_RCC_ClockConfig+0x1ba>
    }
  }

  /*-------------------------- PCLK1 Configuration ---------------------------*/
  if (((RCC_ClkInitStruct->ClockType) & RCC_CLOCKTYPE_PCLK1) == RCC_CLOCKTYPE_PCLK1)
 8003a78:	687b      	ldr	r3, [r7, #4]
 8003a7a:	681b      	ldr	r3, [r3, #0]
 8003a7c:	f003 0304 	and.w	r3, r3, #4
 8003a80:	2b00      	cmp	r3, #0
 8003a82:	d008      	beq.n	8003a96 <HAL_RCC_ClockConfig+0x172>
  {
    assert_param(IS_RCC_PCLK(RCC_ClkInitStruct->APB1CLKDivider));
    MODIFY_REG(RCC->CFGR, RCC_CFGR_PPRE1, RCC_ClkInitStruct->APB1CLKDivider);
 8003a84:	4b19      	ldr	r3, [pc, #100]	@ (8003aec <HAL_RCC_ClockConfig+0x1c8>)
 8003a86:	689b      	ldr	r3, [r3, #8]
 8003a88:	f423 52e0 	bic.w	r2, r3, #7168	@ 0x1c00
 8003a8c:	687b      	ldr	r3, [r7, #4]
 8003a8e:	68db      	ldr	r3, [r3, #12]
 8003a90:	4916      	ldr	r1, [pc, #88]	@ (8003aec <HAL_RCC_ClockConfig+0x1c8>)
 8003a92:	4313      	orrs	r3, r2
 8003a94:	608b      	str	r3, [r1, #8]
  }

  /*-------------------------- PCLK2 Configuration ---------------------------*/
  if (((RCC_ClkInitStruct->ClockType) & RCC_CLOCKTYPE_PCLK2) == RCC_CLOCKTYPE_PCLK2)
 8003a96:	687b      	ldr	r3, [r7, #4]
 8003a98:	681b      	ldr	r3, [r3, #0]
 8003a9a:	f003 0308 	and.w	r3, r3, #8
 8003a9e:	2b00      	cmp	r3, #0
 8003aa0:	d009      	beq.n	8003ab6 <HAL_RCC_ClockConfig+0x192>
  {
    assert_param(IS_RCC_PCLK(RCC_ClkInitStruct->APB2CLKDivider));
    MODIFY_REG(RCC->CFGR, RCC_CFGR_PPRE2, ((RCC_ClkInitStruct->APB2CLKDivider) << 3));
 8003aa2:	4b12      	ldr	r3, [pc, #72]	@ (8003aec <HAL_RCC_ClockConfig+0x1c8>)
 8003aa4:	689b      	ldr	r3, [r3, #8]
 8003aa6:	f423 4260 	bic.w	r2, r3, #57344	@ 0xe000
 8003aaa:	687b      	ldr	r3, [r7, #4]
 8003aac:	691b      	ldr	r3, [r3, #16]
 8003aae:	00db      	lsls	r3, r3, #3
 8003ab0:	490e      	ldr	r1, [pc, #56]	@ (8003aec <HAL_RCC_ClockConfig+0x1c8>)
 8003ab2:	4313      	orrs	r3, r2
 8003ab4:	608b      	str	r3, [r1, #8]
  }

  /* Update the SystemCoreClock global variable */
  SystemCoreClock = HAL_RCC_GetSysClockFreq() >> AHBPrescTable[(RCC->CFGR & RCC_CFGR_HPRE) >> RCC_CFGR_HPRE_Pos];
 8003ab6:	f000 f821 	bl	8003afc <HAL_RCC_GetSysClockFreq>
 8003aba:	4602      	mov	r2, r0
 8003abc:	4b0b      	ldr	r3, [pc, #44]	@ (8003aec <HAL_RCC_ClockConfig+0x1c8>)
 8003abe:	689b      	ldr	r3, [r3, #8]
 8003ac0:	091b      	lsrs	r3, r3, #4
 8003ac2:	f003 030f 	and.w	r3, r3, #15
 8003ac6:	490a      	ldr	r1, [pc, #40]	@ (8003af0 <HAL_RCC_ClockConfig+0x1cc>)
 8003ac8:	5ccb      	ldrb	r3, [r1, r3]
 8003aca:	fa22 f303 	lsr.w	r3, r2, r3
 8003ace:	4a09      	ldr	r2, [pc, #36]	@ (8003af4 <HAL_RCC_ClockConfig+0x1d0>)
 8003ad0:	6013      	str	r3, [r2, #0]

  /* Configure the source of time base considering new system clocks settings*/
  HAL_InitTick(uwTickPrio);
 8003ad2:	4b09      	ldr	r3, [pc, #36]	@ (8003af8 <HAL_RCC_ClockConfig+0x1d4>)
 8003ad4:	681b      	ldr	r3, [r3, #0]
 8003ad6:	4618      	mov	r0, r3
 8003ad8:	f7fe f974 	bl	8001dc4 <HAL_InitTick>

  return HAL_OK;
 8003adc:	2300      	movs	r3, #0
}
 8003ade:	4618      	mov	r0, r3
 8003ae0:	3710      	adds	r7, #16
 8003ae2:	46bd      	mov	sp, r7
 8003ae4:	bd80      	pop	{r7, pc}
 8003ae6:	bf00      	nop
 8003ae8:	40023c00 	.word	0x40023c00
 8003aec:	40023800 	.word	0x40023800
 8003af0:	08006fe8 	.word	0x08006fe8
 8003af4:	20000000 	.word	0x20000000
 8003af8:	20000004 	.word	0x20000004

08003afc <HAL_RCC_GetSysClockFreq>:
  *
  *
  * @retval SYSCLK frequency
  */
uint32_t HAL_RCC_GetSysClockFreq(void)
{
 8003afc:	e92d 4fb0 	stmdb	sp!, {r4, r5, r7, r8, r9, sl, fp, lr}
 8003b00:	b090      	sub	sp, #64	@ 0x40
 8003b02:	af00      	add	r7, sp, #0
  uint32_t pllm = 0, pllvco = 0, pllp = 0;
 8003b04:	2300      	movs	r3, #0
 8003b06:	637b      	str	r3, [r7, #52]	@ 0x34
 8003b08:	2300      	movs	r3, #0
 8003b0a:	63fb      	str	r3, [r7, #60]	@ 0x3c
 8003b0c:	2300      	movs	r3, #0
 8003b0e:	633b      	str	r3, [r7, #48]	@ 0x30
  uint32_t sysclockfreq = 0;
 8003b10:	2300      	movs	r3, #0
 8003b12:	63bb      	str	r3, [r7, #56]	@ 0x38

  /* Get SYSCLK source -------------------------------------------------------*/
  switch (RCC->CFGR & RCC_CFGR_SWS)
 8003b14:	4b59      	ldr	r3, [pc, #356]	@ (8003c7c <HAL_RCC_GetSysClockFreq+0x180>)
 8003b16:	689b      	ldr	r3, [r3, #8]
 8003b18:	f003 030c 	and.w	r3, r3, #12
 8003b1c:	2b08      	cmp	r3, #8
 8003b1e:	d00d      	beq.n	8003b3c <HAL_RCC_GetSysClockFreq+0x40>
 8003b20:	2b08      	cmp	r3, #8
 8003b22:	f200 80a1 	bhi.w	8003c68 <HAL_RCC_GetSysClockFreq+0x16c>
 8003b26:	2b00      	cmp	r3, #0
 8003b28:	d002      	beq.n	8003b30 <HAL_RCC_GetSysClockFreq+0x34>
 8003b2a:	2b04      	cmp	r3, #4
 8003b2c:	d003      	beq.n	8003b36 <HAL_RCC_GetSysClockFreq+0x3a>
 8003b2e:	e09b      	b.n	8003c68 <HAL_RCC_GetSysClockFreq+0x16c>
  {
    case RCC_SYSCLKSOURCE_STATUS_HSI:  /* HSI used as system clock source */
    {
      sysclockfreq = HSI_VALUE;
 8003b30:	4b53      	ldr	r3, [pc, #332]	@ (8003c80 <HAL_RCC_GetSysClockFreq+0x184>)
 8003b32:	63bb      	str	r3, [r7, #56]	@ 0x38
      break;
 8003b34:	e09b      	b.n	8003c6e <HAL_RCC_GetSysClockFreq+0x172>
    }
    case RCC_SYSCLKSOURCE_STATUS_HSE:  /* HSE used as system clock  source */
    {
      sysclockfreq = HSE_VALUE;
 8003b36:	4b53      	ldr	r3, [pc, #332]	@ (8003c84 <HAL_RCC_GetSysClockFreq+0x188>)
 8003b38:	63bb      	str	r3, [r7, #56]	@ 0x38
      break;
 8003b3a:	e098      	b.n	8003c6e <HAL_RCC_GetSysClockFreq+0x172>
    }
    case RCC_SYSCLKSOURCE_STATUS_PLLCLK:  /* PLL used as system clock  source */
    {
      /* PLL_VCO = (HSE_VALUE or HSI_VALUE / PLLM) * PLLN
      SYSCLK = PLL_VCO / PLLP */
      pllm = RCC->PLLCFGR & RCC_PLLCFGR_PLLM;
 8003b3c:	4b4f      	ldr	r3, [pc, #316]	@ (8003c7c <HAL_RCC_GetSysClockFreq+0x180>)
 8003b3e:	685b      	ldr	r3, [r3, #4]
 8003b40:	f003 033f 	and.w	r3, r3, #63	@ 0x3f
 8003b44:	637b      	str	r3, [r7, #52]	@ 0x34
      if (__HAL_RCC_GET_PLL_OSCSOURCE() != RCC_PLLCFGR_PLLSRC_HSI)
 8003b46:	4b4d      	ldr	r3, [pc, #308]	@ (8003c7c <HAL_RCC_GetSysClockFreq+0x180>)
 8003b48:	685b      	ldr	r3, [r3, #4]
 8003b4a:	f403 0380 	and.w	r3, r3, #4194304	@ 0x400000
 8003b4e:	2b00      	cmp	r3, #0
 8003b50:	d028      	beq.n	8003ba4 <HAL_RCC_GetSysClockFreq+0xa8>
      {
        /* HSE used as PLL clock source */
        pllvco = (uint32_t)((((uint64_t) HSE_VALUE * ((uint64_t)((RCC->PLLCFGR & RCC_PLLCFGR_PLLN) >> RCC_PLLCFGR_PLLN_Pos)))) / (uint64_t)pllm);
 8003b52:	4b4a      	ldr	r3, [pc, #296]	@ (8003c7c <HAL_RCC_GetSysClockFreq+0x180>)
 8003b54:	685b      	ldr	r3, [r3, #4]
 8003b56:	099b      	lsrs	r3, r3, #6
 8003b58:	2200      	movs	r2, #0
 8003b5a:	623b      	str	r3, [r7, #32]
 8003b5c:	627a      	str	r2, [r7, #36]	@ 0x24
 8003b5e:	6a3b      	ldr	r3, [r7, #32]
 8003b60:	f3c3 0008 	ubfx	r0, r3, #0, #9
 8003b64:	2100      	movs	r1, #0
 8003b66:	4b47      	ldr	r3, [pc, #284]	@ (8003c84 <HAL_RCC_GetSysClockFreq+0x188>)
 8003b68:	fb03 f201 	mul.w	r2, r3, r1
 8003b6c:	2300      	movs	r3, #0
 8003b6e:	fb00 f303 	mul.w	r3, r0, r3
 8003b72:	4413      	add	r3, r2
 8003b74:	4a43      	ldr	r2, [pc, #268]	@ (8003c84 <HAL_RCC_GetSysClockFreq+0x188>)
 8003b76:	fba0 1202 	umull	r1, r2, r0, r2
 8003b7a:	62fa      	str	r2, [r7, #44]	@ 0x2c
 8003b7c:	460a      	mov	r2, r1
 8003b7e:	62ba      	str	r2, [r7, #40]	@ 0x28
 8003b80:	6afa      	ldr	r2, [r7, #44]	@ 0x2c
 8003b82:	4413      	add	r3, r2
 8003b84:	62fb      	str	r3, [r7, #44]	@ 0x2c
 8003b86:	6b7b      	ldr	r3, [r7, #52]	@ 0x34
 8003b88:	2200      	movs	r2, #0
 8003b8a:	61bb      	str	r3, [r7, #24]
 8003b8c:	61fa      	str	r2, [r7, #28]
 8003b8e:	e9d7 2306 	ldrd	r2, r3, [r7, #24]
 8003b92:	e9d7 010a 	ldrd	r0, r1, [r7, #40]	@ 0x28
 8003b96:	f7fc fba3 	bl	80002e0 <__aeabi_uldivmod>
 8003b9a:	4602      	mov	r2, r0
 8003b9c:	460b      	mov	r3, r1
 8003b9e:	4613      	mov	r3, r2
 8003ba0:	63fb      	str	r3, [r7, #60]	@ 0x3c
 8003ba2:	e053      	b.n	8003c4c <HAL_RCC_GetSysClockFreq+0x150>
      }
      else
      {
        /* HSI used as PLL clock source */
        pllvco = (uint32_t)((((uint64_t) HSI_VALUE * ((uint64_t)((RCC->PLLCFGR & RCC_PLLCFGR_PLLN) >> RCC_PLLCFGR_PLLN_Pos)))) / (uint64_t)pllm);
 8003ba4:	4b35      	ldr	r3, [pc, #212]	@ (8003c7c <HAL_RCC_GetSysClockFreq+0x180>)
 8003ba6:	685b      	ldr	r3, [r3, #4]
 8003ba8:	099b      	lsrs	r3, r3, #6
 8003baa:	2200      	movs	r2, #0
 8003bac:	613b      	str	r3, [r7, #16]
 8003bae:	617a      	str	r2, [r7, #20]
 8003bb0:	693b      	ldr	r3, [r7, #16]
 8003bb2:	f3c3 0a08 	ubfx	sl, r3, #0, #9
 8003bb6:	f04f 0b00 	mov.w	fp, #0
 8003bba:	4652      	mov	r2, sl
 8003bbc:	465b      	mov	r3, fp
 8003bbe:	f04f 0000 	mov.w	r0, #0
 8003bc2:	f04f 0100 	mov.w	r1, #0
 8003bc6:	0159      	lsls	r1, r3, #5
 8003bc8:	ea41 61d2 	orr.w	r1, r1, r2, lsr #27
 8003bcc:	0150      	lsls	r0, r2, #5
 8003bce:	4602      	mov	r2, r0
 8003bd0:	460b      	mov	r3, r1
 8003bd2:	ebb2 080a 	subs.w	r8, r2, sl
 8003bd6:	eb63 090b 	sbc.w	r9, r3, fp
 8003bda:	f04f 0200 	mov.w	r2, #0
 8003bde:	f04f 0300 	mov.w	r3, #0
 8003be2:	ea4f 1389 	mov.w	r3, r9, lsl #6
 8003be6:	ea43 6398 	orr.w	r3, r3, r8, lsr #26
 8003bea:	ea4f 1288 	mov.w	r2, r8, lsl #6
 8003bee:	ebb2 0408 	subs.w	r4, r2, r8
 8003bf2:	eb63 0509 	sbc.w	r5, r3, r9
 8003bf6:	f04f 0200 	mov.w	r2, #0
 8003bfa:	f04f 0300 	mov.w	r3, #0
 8003bfe:	00eb      	lsls	r3, r5, #3
 8003c00:	ea43 7354 	orr.w	r3, r3, r4, lsr #29
 8003c04:	00e2      	lsls	r2, r4, #3
 8003c06:	4614      	mov	r4, r2
 8003c08:	461d      	mov	r5, r3
 8003c0a:	eb14 030a 	adds.w	r3, r4, sl
 8003c0e:	603b      	str	r3, [r7, #0]
 8003c10:	eb45 030b 	adc.w	r3, r5, fp
 8003c14:	607b      	str	r3, [r7, #4]
 8003c16:	f04f 0200 	mov.w	r2, #0
 8003c1a:	f04f 0300 	mov.w	r3, #0
 8003c1e:	e9d7 4500 	ldrd	r4, r5, [r7]
 8003c22:	4629      	mov	r1, r5
 8003c24:	028b      	lsls	r3, r1, #10
 8003c26:	4621      	mov	r1, r4
 8003c28:	ea43 5391 	orr.w	r3, r3, r1, lsr #22
 8003c2c:	4621      	mov	r1, r4
 8003c2e:	028a      	lsls	r2, r1, #10
 8003c30:	4610      	mov	r0, r2
 8003c32:	4619      	mov	r1, r3
 8003c34:	6b7b      	ldr	r3, [r7, #52]	@ 0x34
 8003c36:	2200      	movs	r2, #0
 8003c38:	60bb      	str	r3, [r7, #8]
 8003c3a:	60fa      	str	r2, [r7, #12]
 8003c3c:	e9d7 2302 	ldrd	r2, r3, [r7, #8]
 8003c40:	f7fc fb4e 	bl	80002e0 <__aeabi_uldivmod>
 8003c44:	4602      	mov	r2, r0
 8003c46:	460b      	mov	r3, r1
 8003c48:	4613      	mov	r3, r2
 8003c4a:	63fb      	str	r3, [r7, #60]	@ 0x3c
      }
      pllp = ((((RCC->PLLCFGR & RCC_PLLCFGR_PLLP) >> RCC_PLLCFGR_PLLP_Pos) + 1) * 2);
 8003c4c:	4b0b      	ldr	r3, [pc, #44]	@ (8003c7c <HAL_RCC_GetSysClockFreq+0x180>)
 8003c4e:	685b      	ldr	r3, [r3, #4]
 8003c50:	0c1b      	lsrs	r3, r3, #16
 8003c52:	f003 0303 	and.w	r3, r3, #3
 8003c56:	3301      	adds	r3, #1
 8003c58:	005b      	lsls	r3, r3, #1
 8003c5a:	633b      	str	r3, [r7, #48]	@ 0x30

      sysclockfreq = pllvco / pllp;
 8003c5c:	6bfa      	ldr	r2, [r7, #60]	@ 0x3c
 8003c5e:	6b3b      	ldr	r3, [r7, #48]	@ 0x30
 8003c60:	fbb2 f3f3 	udiv	r3, r2, r3
 8003c64:	63bb      	str	r3, [r7, #56]	@ 0x38
      break;
 8003c66:	e002      	b.n	8003c6e <HAL_RCC_GetSysClockFreq+0x172>
    }
    default:
    {
      sysclockfreq = HSI_VALUE;
 8003c68:	4b05      	ldr	r3, [pc, #20]	@ (8003c80 <HAL_RCC_GetSysClockFreq+0x184>)
 8003c6a:	63bb      	str	r3, [r7, #56]	@ 0x38
      break;
 8003c6c:	bf00      	nop
    }
  }
  return sysclockfreq;
 8003c6e:	6bbb      	ldr	r3, [r7, #56]	@ 0x38
}
 8003c70:	4618      	mov	r0, r3
 8003c72:	3740      	adds	r7, #64	@ 0x40
 8003c74:	46bd      	mov	sp, r7
 8003c76:	e8bd 8fb0 	ldmia.w	sp!, {r4, r5, r7, r8, r9, sl, fp, pc}
 8003c7a:	bf00      	nop
 8003c7c:	40023800 	.word	0x40023800
 8003c80:	00f42400 	.word	0x00f42400
 8003c84:	017d7840 	.word	0x017d7840

08003c88 <HAL_RCC_GetHCLKFreq>:
  *         right HCLK value. Otherwise, any configuration based on this function will be incorrect.
  * @note   The SystemCoreClock CMSIS variable is used to store System Clock Frequency.
  * @retval HCLK frequency
  */
uint32_t HAL_RCC_GetHCLKFreq(void)
{
 8003c88:	b480      	push	{r7}
 8003c8a:	af00      	add	r7, sp, #0
  return SystemCoreClock;
 8003c8c:	4b03      	ldr	r3, [pc, #12]	@ (8003c9c <HAL_RCC_GetHCLKFreq+0x14>)
 8003c8e:	681b      	ldr	r3, [r3, #0]
}
 8003c90:	4618      	mov	r0, r3
 8003c92:	46bd      	mov	sp, r7
 8003c94:	f85d 7b04 	ldr.w	r7, [sp], #4
 8003c98:	4770      	bx	lr
 8003c9a:	bf00      	nop
 8003c9c:	20000000 	.word	0x20000000

08003ca0 <HAL_RCC_GetPCLK1Freq>:
  * @note   Each time PCLK1 changes, this function must be called to update the
  *         right PCLK1 value. Otherwise, any configuration based on this function will be incorrect.
  * @retval PCLK1 frequency
  */
uint32_t HAL_RCC_GetPCLK1Freq(void)
{
 8003ca0:	b580      	push	{r7, lr}
 8003ca2:	af00      	add	r7, sp, #0
  /* Get HCLK source and Compute PCLK1 frequency ---------------------------*/
  return (HAL_RCC_GetHCLKFreq() >> APBPrescTable[(RCC->CFGR & RCC_CFGR_PPRE1) >> RCC_CFGR_PPRE1_Pos]);
 8003ca4:	f7ff fff0 	bl	8003c88 <HAL_RCC_GetHCLKFreq>
 8003ca8:	4602      	mov	r2, r0
 8003caa:	4b05      	ldr	r3, [pc, #20]	@ (8003cc0 <HAL_RCC_GetPCLK1Freq+0x20>)
 8003cac:	689b      	ldr	r3, [r3, #8]
 8003cae:	0a9b      	lsrs	r3, r3, #10
 8003cb0:	f003 0307 	and.w	r3, r3, #7
 8003cb4:	4903      	ldr	r1, [pc, #12]	@ (8003cc4 <HAL_RCC_GetPCLK1Freq+0x24>)
 8003cb6:	5ccb      	ldrb	r3, [r1, r3]
 8003cb8:	fa22 f303 	lsr.w	r3, r2, r3
}
 8003cbc:	4618      	mov	r0, r3
 8003cbe:	bd80      	pop	{r7, pc}
 8003cc0:	40023800 	.word	0x40023800
 8003cc4:	08006ff8 	.word	0x08006ff8

08003cc8 <HAL_RCC_GetPCLK2Freq>:
  * @note   Each time PCLK2 changes, this function must be called to update the
  *         right PCLK2 value. Otherwise, any configuration based on this function will be incorrect.
  * @retval PCLK2 frequency
  */
uint32_t HAL_RCC_GetPCLK2Freq(void)
{
 8003cc8:	b580      	push	{r7, lr}
 8003cca:	af00      	add	r7, sp, #0
  /* Get HCLK source and Compute PCLK2 frequency ---------------------------*/
  return (HAL_RCC_GetHCLKFreq() >> APBPrescTable[(RCC->CFGR & RCC_CFGR_PPRE2) >> RCC_CFGR_PPRE2_Pos]);
 8003ccc:	f7ff ffdc 	bl	8003c88 <HAL_RCC_GetHCLKFreq>
 8003cd0:	4602      	mov	r2, r0
 8003cd2:	4b05      	ldr	r3, [pc, #20]	@ (8003ce8 <HAL_RCC_GetPCLK2Freq+0x20>)
 8003cd4:	689b      	ldr	r3, [r3, #8]
 8003cd6:	0b5b      	lsrs	r3, r3, #13
 8003cd8:	f003 0307 	and.w	r3, r3, #7
 8003cdc:	4903      	ldr	r1, [pc, #12]	@ (8003cec <HAL_RCC_GetPCLK2Freq+0x24>)
 8003cde:	5ccb      	ldrb	r3, [r1, r3]
 8003ce0:	fa22 f303 	lsr.w	r3, r2, r3
}
 8003ce4:	4618      	mov	r0, r3
 8003ce6:	bd80      	pop	{r7, pc}
 8003ce8:	40023800 	.word	0x40023800
 8003cec:	08006ff8 	.word	0x08006ff8

08003cf0 <HAL_RCCEx_PeriphCLKConfig>:
  *         the backup registers) are set to their reset values.
  *
  * @retval HAL status
  */
HAL_StatusTypeDef HAL_RCCEx_PeriphCLKConfig(RCC_PeriphCLKInitTypeDef  *PeriphClkInit)
{
 8003cf0:	b580      	push	{r7, lr}
 8003cf2:	b088      	sub	sp, #32
 8003cf4:	af00      	add	r7, sp, #0
 8003cf6:	6078      	str	r0, [r7, #4]
  uint32_t tickstart = 0;
 8003cf8:	2300      	movs	r3, #0
 8003cfa:	617b      	str	r3, [r7, #20]
  uint32_t tmpreg0 = 0;
 8003cfc:	2300      	movs	r3, #0
 8003cfe:	613b      	str	r3, [r7, #16]
  uint32_t tmpreg1 = 0;
 8003d00:	2300      	movs	r3, #0
 8003d02:	60fb      	str	r3, [r7, #12]
  uint32_t plli2sused = 0;
 8003d04:	2300      	movs	r3, #0
 8003d06:	61fb      	str	r3, [r7, #28]
  uint32_t pllsaiused = 0;
 8003d08:	2300      	movs	r3, #0
 8003d0a:	61bb      	str	r3, [r7, #24]

  /* Check the parameters */
  assert_param(IS_RCC_PERIPHCLOCK(PeriphClkInit->PeriphClockSelection));

  /*----------------------------------- I2S configuration ----------------------------------*/
  if(((PeriphClkInit->PeriphClockSelection) & RCC_PERIPHCLK_I2S) == (RCC_PERIPHCLK_I2S))
 8003d0c:	687b      	ldr	r3, [r7, #4]
 8003d0e:	681b      	ldr	r3, [r3, #0]
 8003d10:	f003 0301 	and.w	r3, r3, #1
 8003d14:	2b00      	cmp	r3, #0
 8003d16:	d012      	beq.n	8003d3e <HAL_RCCEx_PeriphCLKConfig+0x4e>
  {
    /* Check the parameters */
    assert_param(IS_RCC_I2SCLKSOURCE(PeriphClkInit->I2sClockSelection));

    /* Configure I2S Clock source */
    __HAL_RCC_I2S_CONFIG(PeriphClkInit->I2sClockSelection);
 8003d18:	4b69      	ldr	r3, [pc, #420]	@ (8003ec0 <HAL_RCCEx_PeriphCLKConfig+0x1d0>)
 8003d1a:	689b      	ldr	r3, [r3, #8]
 8003d1c:	4a68      	ldr	r2, [pc, #416]	@ (8003ec0 <HAL_RCCEx_PeriphCLKConfig+0x1d0>)
 8003d1e:	f423 0300 	bic.w	r3, r3, #8388608	@ 0x800000
 8003d22:	6093      	str	r3, [r2, #8]
 8003d24:	4b66      	ldr	r3, [pc, #408]	@ (8003ec0 <HAL_RCCEx_PeriphCLKConfig+0x1d0>)
 8003d26:	689a      	ldr	r2, [r3, #8]
 8003d28:	687b      	ldr	r3, [r7, #4]
 8003d2a:	6b5b      	ldr	r3, [r3, #52]	@ 0x34
 8003d2c:	4964      	ldr	r1, [pc, #400]	@ (8003ec0 <HAL_RCCEx_PeriphCLKConfig+0x1d0>)
 8003d2e:	4313      	orrs	r3, r2
 8003d30:	608b      	str	r3, [r1, #8]

    /* Enable the PLLI2S when it's used as clock source for I2S */
    if(PeriphClkInit->I2sClockSelection == RCC_I2SCLKSOURCE_PLLI2S)
 8003d32:	687b      	ldr	r3, [r7, #4]
 8003d34:	6b5b      	ldr	r3, [r3, #52]	@ 0x34
 8003d36:	2b00      	cmp	r3, #0
 8003d38:	d101      	bne.n	8003d3e <HAL_RCCEx_PeriphCLKConfig+0x4e>
    {
      plli2sused = 1;
 8003d3a:	2301      	movs	r3, #1
 8003d3c:	61fb      	str	r3, [r7, #28]
    }
  }

  /*------------------------------------ SAI1 configuration --------------------------------------*/
  if(((PeriphClkInit->PeriphClockSelection) & RCC_PERIPHCLK_SAI1) == (RCC_PERIPHCLK_SAI1))
 8003d3e:	687b      	ldr	r3, [r7, #4]
 8003d40:	681b      	ldr	r3, [r3, #0]
 8003d42:	f403 2300 	and.w	r3, r3, #524288	@ 0x80000
 8003d46:	2b00      	cmp	r3, #0
 8003d48:	d017      	beq.n	8003d7a <HAL_RCCEx_PeriphCLKConfig+0x8a>
  {
    /* Check the parameters */
    assert_param(IS_RCC_SAI1CLKSOURCE(PeriphClkInit->Sai1ClockSelection));

    /* Configure SAI1 Clock source */
    __HAL_RCC_SAI1_CONFIG(PeriphClkInit->Sai1ClockSelection);
 8003d4a:	4b5d      	ldr	r3, [pc, #372]	@ (8003ec0 <HAL_RCCEx_PeriphCLKConfig+0x1d0>)
 8003d4c:	f8d3 308c 	ldr.w	r3, [r3, #140]	@ 0x8c
 8003d50:	f423 1240 	bic.w	r2, r3, #3145728	@ 0x300000
 8003d54:	687b      	ldr	r3, [r7, #4]
 8003d56:	6bdb      	ldr	r3, [r3, #60]	@ 0x3c
 8003d58:	4959      	ldr	r1, [pc, #356]	@ (8003ec0 <HAL_RCCEx_PeriphCLKConfig+0x1d0>)
 8003d5a:	4313      	orrs	r3, r2
 8003d5c:	f8c1 308c 	str.w	r3, [r1, #140]	@ 0x8c
    /* Enable the PLLI2S when it's used as clock source for SAI */
    if(PeriphClkInit->Sai1ClockSelection == RCC_SAI1CLKSOURCE_PLLI2S)
 8003d60:	687b      	ldr	r3, [r7, #4]
 8003d62:	6bdb      	ldr	r3, [r3, #60]	@ 0x3c
 8003d64:	f5b3 1f80 	cmp.w	r3, #1048576	@ 0x100000
 8003d68:	d101      	bne.n	8003d6e <HAL_RCCEx_PeriphCLKConfig+0x7e>
    {
      plli2sused = 1;
 8003d6a:	2301      	movs	r3, #1
 8003d6c:	61fb      	str	r3, [r7, #28]
    }
    /* Enable the PLLSAI when it's used as clock source for SAI */
    if(PeriphClkInit->Sai1ClockSelection == RCC_SAI1CLKSOURCE_PLLSAI)
 8003d6e:	687b      	ldr	r3, [r7, #4]
 8003d70:	6bdb      	ldr	r3, [r3, #60]	@ 0x3c
 8003d72:	2b00      	cmp	r3, #0
 8003d74:	d101      	bne.n	8003d7a <HAL_RCCEx_PeriphCLKConfig+0x8a>
    {
      pllsaiused = 1;
 8003d76:	2301      	movs	r3, #1
 8003d78:	61bb      	str	r3, [r7, #24]
    }
  }

  /*------------------------------------ SAI2 configuration --------------------------------------*/
  if(((PeriphClkInit->PeriphClockSelection) & RCC_PERIPHCLK_SAI2) == (RCC_PERIPHCLK_SAI2))
 8003d7a:	687b      	ldr	r3, [r7, #4]
 8003d7c:	681b      	ldr	r3, [r3, #0]
 8003d7e:	f403 1380 	and.w	r3, r3, #1048576	@ 0x100000
 8003d82:	2b00      	cmp	r3, #0
 8003d84:	d017      	beq.n	8003db6 <HAL_RCCEx_PeriphCLKConfig+0xc6>
  {
    /* Check the parameters */
    assert_param(IS_RCC_SAI2CLKSOURCE(PeriphClkInit->Sai2ClockSelection));

    /* Configure SAI2 Clock source */
    __HAL_RCC_SAI2_CONFIG(PeriphClkInit->Sai2ClockSelection);
 8003d86:	4b4e      	ldr	r3, [pc, #312]	@ (8003ec0 <HAL_RCCEx_PeriphCLKConfig+0x1d0>)
 8003d88:	f8d3 308c 	ldr.w	r3, [r3, #140]	@ 0x8c
 8003d8c:	f423 0240 	bic.w	r2, r3, #12582912	@ 0xc00000
 8003d90:	687b      	ldr	r3, [r7, #4]
 8003d92:	6c1b      	ldr	r3, [r3, #64]	@ 0x40
 8003d94:	494a      	ldr	r1, [pc, #296]	@ (8003ec0 <HAL_RCCEx_PeriphCLKConfig+0x1d0>)
 8003d96:	4313      	orrs	r3, r2
 8003d98:	f8c1 308c 	str.w	r3, [r1, #140]	@ 0x8c

    /* Enable the PLLI2S when it's used as clock source for SAI */
    if(PeriphClkInit->Sai2ClockSelection == RCC_SAI2CLKSOURCE_PLLI2S)
 8003d9c:	687b      	ldr	r3, [r7, #4]
 8003d9e:	6c1b      	ldr	r3, [r3, #64]	@ 0x40
 8003da0:	f5b3 0f80 	cmp.w	r3, #4194304	@ 0x400000
 8003da4:	d101      	bne.n	8003daa <HAL_RCCEx_PeriphCLKConfig+0xba>
    {
      plli2sused = 1;
 8003da6:	2301      	movs	r3, #1
 8003da8:	61fb      	str	r3, [r7, #28]
    }
    /* Enable the PLLSAI when it's used as clock source for SAI */
    if(PeriphClkInit->Sai2ClockSelection == RCC_SAI2CLKSOURCE_PLLSAI)
 8003daa:	687b      	ldr	r3, [r7, #4]
 8003dac:	6c1b      	ldr	r3, [r3, #64]	@ 0x40
 8003dae:	2b00      	cmp	r3, #0
 8003db0:	d101      	bne.n	8003db6 <HAL_RCCEx_PeriphCLKConfig+0xc6>
    {
      pllsaiused = 1;
 8003db2:	2301      	movs	r3, #1
 8003db4:	61bb      	str	r3, [r7, #24]
    }
  }

  /*-------------------------------------- SPDIF-RX Configuration -----------------------------------*/
  if(((PeriphClkInit->PeriphClockSelection) & RCC_PERIPHCLK_SPDIFRX) == RCC_PERIPHCLK_SPDIFRX)
 8003db6:	687b      	ldr	r3, [r7, #4]
 8003db8:	681b      	ldr	r3, [r3, #0]
 8003dba:	f003 7380 	and.w	r3, r3, #16777216	@ 0x1000000
 8003dbe:	2b00      	cmp	r3, #0
 8003dc0:	d001      	beq.n	8003dc6 <HAL_RCCEx_PeriphCLKConfig+0xd6>
  {
      plli2sused = 1;
 8003dc2:	2301      	movs	r3, #1
 8003dc4:	61fb      	str	r3, [r7, #28]
  }

  /*------------------------------------ RTC configuration --------------------------------------*/
  if(((PeriphClkInit->PeriphClockSelection) & RCC_PERIPHCLK_RTC) == (RCC_PERIPHCLK_RTC))
 8003dc6:	687b      	ldr	r3, [r7, #4]
 8003dc8:	681b      	ldr	r3, [r3, #0]
 8003dca:	f003 0320 	and.w	r3, r3, #32
 8003dce:	2b00      	cmp	r3, #0
 8003dd0:	f000 808b 	beq.w	8003eea <HAL_RCCEx_PeriphCLKConfig+0x1fa>
  {
    /* Check for RTC Parameters used to output RTCCLK */
    assert_param(IS_RCC_RTCCLKSOURCE(PeriphClkInit->RTCClockSelection));

    /* Enable Power Clock*/
    __HAL_RCC_PWR_CLK_ENABLE();
 8003dd4:	4b3a      	ldr	r3, [pc, #232]	@ (8003ec0 <HAL_RCCEx_PeriphCLKConfig+0x1d0>)
 8003dd6:	6c1b      	ldr	r3, [r3, #64]	@ 0x40
 8003dd8:	4a39      	ldr	r2, [pc, #228]	@ (8003ec0 <HAL_RCCEx_PeriphCLKConfig+0x1d0>)
 8003dda:	f043 5380 	orr.w	r3, r3, #268435456	@ 0x10000000
 8003dde:	6413      	str	r3, [r2, #64]	@ 0x40
 8003de0:	4b37      	ldr	r3, [pc, #220]	@ (8003ec0 <HAL_RCCEx_PeriphCLKConfig+0x1d0>)
 8003de2:	6c1b      	ldr	r3, [r3, #64]	@ 0x40
 8003de4:	f003 5380 	and.w	r3, r3, #268435456	@ 0x10000000
 8003de8:	60bb      	str	r3, [r7, #8]
 8003dea:	68bb      	ldr	r3, [r7, #8]

    /* Enable write access to Backup domain */
    PWR->CR1 |= PWR_CR1_DBP;
 8003dec:	4b35      	ldr	r3, [pc, #212]	@ (8003ec4 <HAL_RCCEx_PeriphCLKConfig+0x1d4>)
 8003dee:	681b      	ldr	r3, [r3, #0]
 8003df0:	4a34      	ldr	r2, [pc, #208]	@ (8003ec4 <HAL_RCCEx_PeriphCLKConfig+0x1d4>)
 8003df2:	f443 7380 	orr.w	r3, r3, #256	@ 0x100
 8003df6:	6013      	str	r3, [r2, #0]

    /* Get Start Tick*/
    tickstart = HAL_GetTick();
 8003df8:	f7fe f828 	bl	8001e4c <HAL_GetTick>
 8003dfc:	6178      	str	r0, [r7, #20]

    /* Wait for Backup domain Write protection disable */
    while((PWR->CR1 & PWR_CR1_DBP) == RESET)
 8003dfe:	e008      	b.n	8003e12 <HAL_RCCEx_PeriphCLKConfig+0x122>
    {
      if((HAL_GetTick() - tickstart) > RCC_DBP_TIMEOUT_VALUE)
 8003e00:	f7fe f824 	bl	8001e4c <HAL_GetTick>
 8003e04:	4602      	mov	r2, r0
 8003e06:	697b      	ldr	r3, [r7, #20]
 8003e08:	1ad3      	subs	r3, r2, r3
 8003e0a:	2b64      	cmp	r3, #100	@ 0x64
 8003e0c:	d901      	bls.n	8003e12 <HAL_RCCEx_PeriphCLKConfig+0x122>
      {
        return HAL_TIMEOUT;
 8003e0e:	2303      	movs	r3, #3
 8003e10:	e357      	b.n	80044c2 <HAL_RCCEx_PeriphCLKConfig+0x7d2>
    while((PWR->CR1 & PWR_CR1_DBP) == RESET)
 8003e12:	4b2c      	ldr	r3, [pc, #176]	@ (8003ec4 <HAL_RCCEx_PeriphCLKConfig+0x1d4>)
 8003e14:	681b      	ldr	r3, [r3, #0]
 8003e16:	f403 7380 	and.w	r3, r3, #256	@ 0x100
 8003e1a:	2b00      	cmp	r3, #0
 8003e1c:	d0f0      	beq.n	8003e00 <HAL_RCCEx_PeriphCLKConfig+0x110>
      }
    }

    /* Reset the Backup domain only if the RTC Clock source selection is modified */
    tmpreg0 = (RCC->BDCR & RCC_BDCR_RTCSEL);
 8003e1e:	4b28      	ldr	r3, [pc, #160]	@ (8003ec0 <HAL_RCCEx_PeriphCLKConfig+0x1d0>)
 8003e20:	6f1b      	ldr	r3, [r3, #112]	@ 0x70
 8003e22:	f403 7340 	and.w	r3, r3, #768	@ 0x300
 8003e26:	613b      	str	r3, [r7, #16]

    if((tmpreg0 != 0x00000000U) && (tmpreg0 != (PeriphClkInit->RTCClockSelection & RCC_BDCR_RTCSEL)))
 8003e28:	693b      	ldr	r3, [r7, #16]
 8003e2a:	2b00      	cmp	r3, #0
 8003e2c:	d035      	beq.n	8003e9a <HAL_RCCEx_PeriphCLKConfig+0x1aa>
 8003e2e:	687b      	ldr	r3, [r7, #4]
 8003e30:	6b1b      	ldr	r3, [r3, #48]	@ 0x30
 8003e32:	f403 7340 	and.w	r3, r3, #768	@ 0x300
 8003e36:	693a      	ldr	r2, [r7, #16]
 8003e38:	429a      	cmp	r2, r3
 8003e3a:	d02e      	beq.n	8003e9a <HAL_RCCEx_PeriphCLKConfig+0x1aa>
    {
      /* Store the content of BDCR register before the reset of Backup Domain */
      tmpreg0 = (RCC->BDCR & ~(RCC_BDCR_RTCSEL));
 8003e3c:	4b20      	ldr	r3, [pc, #128]	@ (8003ec0 <HAL_RCCEx_PeriphCLKConfig+0x1d0>)
 8003e3e:	6f1b      	ldr	r3, [r3, #112]	@ 0x70
 8003e40:	f423 7340 	bic.w	r3, r3, #768	@ 0x300
 8003e44:	613b      	str	r3, [r7, #16]

      /* RTC Clock selection can be changed only if the Backup Domain is reset */
      __HAL_RCC_BACKUPRESET_FORCE();
 8003e46:	4b1e      	ldr	r3, [pc, #120]	@ (8003ec0 <HAL_RCCEx_PeriphCLKConfig+0x1d0>)
 8003e48:	6f1b      	ldr	r3, [r3, #112]	@ 0x70
 8003e4a:	4a1d      	ldr	r2, [pc, #116]	@ (8003ec0 <HAL_RCCEx_PeriphCLKConfig+0x1d0>)
 8003e4c:	f443 3380 	orr.w	r3, r3, #65536	@ 0x10000
 8003e50:	6713      	str	r3, [r2, #112]	@ 0x70
      __HAL_RCC_BACKUPRESET_RELEASE();
 8003e52:	4b1b      	ldr	r3, [pc, #108]	@ (8003ec0 <HAL_RCCEx_PeriphCLKConfig+0x1d0>)
 8003e54:	6f1b      	ldr	r3, [r3, #112]	@ 0x70
 8003e56:	4a1a      	ldr	r2, [pc, #104]	@ (8003ec0 <HAL_RCCEx_PeriphCLKConfig+0x1d0>)
 8003e58:	f423 3380 	bic.w	r3, r3, #65536	@ 0x10000
 8003e5c:	6713      	str	r3, [r2, #112]	@ 0x70

      /* Restore the Content of BDCR register */
      RCC->BDCR = tmpreg0;
 8003e5e:	4a18      	ldr	r2, [pc, #96]	@ (8003ec0 <HAL_RCCEx_PeriphCLKConfig+0x1d0>)
 8003e60:	693b      	ldr	r3, [r7, #16]
 8003e62:	6713      	str	r3, [r2, #112]	@ 0x70

      /* Wait for LSE reactivation if LSE was enable prior to Backup Domain reset */
      if (HAL_IS_BIT_SET(RCC->BDCR, RCC_BDCR_LSEON))
 8003e64:	4b16      	ldr	r3, [pc, #88]	@ (8003ec0 <HAL_RCCEx_PeriphCLKConfig+0x1d0>)
 8003e66:	6f1b      	ldr	r3, [r3, #112]	@ 0x70
 8003e68:	f003 0301 	and.w	r3, r3, #1
 8003e6c:	2b01      	cmp	r3, #1
 8003e6e:	d114      	bne.n	8003e9a <HAL_RCCEx_PeriphCLKConfig+0x1aa>
      {
        /* Get Start Tick*/
        tickstart = HAL_GetTick();
 8003e70:	f7fd ffec 	bl	8001e4c <HAL_GetTick>
 8003e74:	6178      	str	r0, [r7, #20]

        /* Wait till LSE is ready */
        while(__HAL_RCC_GET_FLAG(RCC_FLAG_LSERDY) == RESET)
 8003e76:	e00a      	b.n	8003e8e <HAL_RCCEx_PeriphCLKConfig+0x19e>
        {
          if((HAL_GetTick() - tickstart ) > RCC_LSE_TIMEOUT_VALUE)
 8003e78:	f7fd ffe8 	bl	8001e4c <HAL_GetTick>
 8003e7c:	4602      	mov	r2, r0
 8003e7e:	697b      	ldr	r3, [r7, #20]
 8003e80:	1ad3      	subs	r3, r2, r3
 8003e82:	f241 3288 	movw	r2, #5000	@ 0x1388
 8003e86:	4293      	cmp	r3, r2
 8003e88:	d901      	bls.n	8003e8e <HAL_RCCEx_PeriphCLKConfig+0x19e>
          {
            return HAL_TIMEOUT;
 8003e8a:	2303      	movs	r3, #3
 8003e8c:	e319      	b.n	80044c2 <HAL_RCCEx_PeriphCLKConfig+0x7d2>
        while(__HAL_RCC_GET_FLAG(RCC_FLAG_LSERDY) == RESET)
 8003e8e:	4b0c      	ldr	r3, [pc, #48]	@ (8003ec0 <HAL_RCCEx_PeriphCLKConfig+0x1d0>)
 8003e90:	6f1b      	ldr	r3, [r3, #112]	@ 0x70
 8003e92:	f003 0302 	and.w	r3, r3, #2
 8003e96:	2b00      	cmp	r3, #0
 8003e98:	d0ee      	beq.n	8003e78 <HAL_RCCEx_PeriphCLKConfig+0x188>
          }
        }
      }
    }
    __HAL_RCC_RTC_CONFIG(PeriphClkInit->RTCClockSelection);
 8003e9a:	687b      	ldr	r3, [r7, #4]
 8003e9c:	6b1b      	ldr	r3, [r3, #48]	@ 0x30
 8003e9e:	f403 7340 	and.w	r3, r3, #768	@ 0x300
 8003ea2:	f5b3 7f40 	cmp.w	r3, #768	@ 0x300
 8003ea6:	d111      	bne.n	8003ecc <HAL_RCCEx_PeriphCLKConfig+0x1dc>
 8003ea8:	4b05      	ldr	r3, [pc, #20]	@ (8003ec0 <HAL_RCCEx_PeriphCLKConfig+0x1d0>)
 8003eaa:	689b      	ldr	r3, [r3, #8]
 8003eac:	f423 12f8 	bic.w	r2, r3, #2031616	@ 0x1f0000
 8003eb0:	687b      	ldr	r3, [r7, #4]
 8003eb2:	6b19      	ldr	r1, [r3, #48]	@ 0x30
 8003eb4:	4b04      	ldr	r3, [pc, #16]	@ (8003ec8 <HAL_RCCEx_PeriphCLKConfig+0x1d8>)
 8003eb6:	400b      	ands	r3, r1
 8003eb8:	4901      	ldr	r1, [pc, #4]	@ (8003ec0 <HAL_RCCEx_PeriphCLKConfig+0x1d0>)
 8003eba:	4313      	orrs	r3, r2
 8003ebc:	608b      	str	r3, [r1, #8]
 8003ebe:	e00b      	b.n	8003ed8 <HAL_RCCEx_PeriphCLKConfig+0x1e8>
 8003ec0:	40023800 	.word	0x40023800
 8003ec4:	40007000 	.word	0x40007000
 8003ec8:	0ffffcff 	.word	0x0ffffcff
 8003ecc:	4baa      	ldr	r3, [pc, #680]	@ (8004178 <HAL_RCCEx_PeriphCLKConfig+0x488>)
 8003ece:	689b      	ldr	r3, [r3, #8]
 8003ed0:	4aa9      	ldr	r2, [pc, #676]	@ (8004178 <HAL_RCCEx_PeriphCLKConfig+0x488>)
 8003ed2:	f423 13f8 	bic.w	r3, r3, #2031616	@ 0x1f0000
 8003ed6:	6093      	str	r3, [r2, #8]
 8003ed8:	4ba7      	ldr	r3, [pc, #668]	@ (8004178 <HAL_RCCEx_PeriphCLKConfig+0x488>)
 8003eda:	6f1a      	ldr	r2, [r3, #112]	@ 0x70
 8003edc:	687b      	ldr	r3, [r7, #4]
 8003ede:	6b1b      	ldr	r3, [r3, #48]	@ 0x30
 8003ee0:	f3c3 030b 	ubfx	r3, r3, #0, #12
 8003ee4:	49a4      	ldr	r1, [pc, #656]	@ (8004178 <HAL_RCCEx_PeriphCLKConfig+0x488>)
 8003ee6:	4313      	orrs	r3, r2
 8003ee8:	670b      	str	r3, [r1, #112]	@ 0x70
  }

  /*------------------------------------ TIM configuration --------------------------------------*/
  if(((PeriphClkInit->PeriphClockSelection) & RCC_PERIPHCLK_TIM) == (RCC_PERIPHCLK_TIM))
 8003eea:	687b      	ldr	r3, [r7, #4]
 8003eec:	681b      	ldr	r3, [r3, #0]
 8003eee:	f003 0310 	and.w	r3, r3, #16
 8003ef2:	2b00      	cmp	r3, #0
 8003ef4:	d010      	beq.n	8003f18 <HAL_RCCEx_PeriphCLKConfig+0x228>
  {
    /* Check the parameters */
    assert_param(IS_RCC_TIMPRES(PeriphClkInit->TIMPresSelection));

    /* Configure Timer Prescaler */
    __HAL_RCC_TIMCLKPRESCALER(PeriphClkInit->TIMPresSelection);
 8003ef6:	4ba0      	ldr	r3, [pc, #640]	@ (8004178 <HAL_RCCEx_PeriphCLKConfig+0x488>)
 8003ef8:	f8d3 308c 	ldr.w	r3, [r3, #140]	@ 0x8c
 8003efc:	4a9e      	ldr	r2, [pc, #632]	@ (8004178 <HAL_RCCEx_PeriphCLKConfig+0x488>)
 8003efe:	f023 7380 	bic.w	r3, r3, #16777216	@ 0x1000000
 8003f02:	f8c2 308c 	str.w	r3, [r2, #140]	@ 0x8c
 8003f06:	4b9c      	ldr	r3, [pc, #624]	@ (8004178 <HAL_RCCEx_PeriphCLKConfig+0x488>)
 8003f08:	f8d3 208c 	ldr.w	r2, [r3, #140]	@ 0x8c
 8003f0c:	687b      	ldr	r3, [r7, #4]
 8003f0e:	6b9b      	ldr	r3, [r3, #56]	@ 0x38
 8003f10:	4999      	ldr	r1, [pc, #612]	@ (8004178 <HAL_RCCEx_PeriphCLKConfig+0x488>)
 8003f12:	4313      	orrs	r3, r2
 8003f14:	f8c1 308c 	str.w	r3, [r1, #140]	@ 0x8c
  }

  /*-------------------------------------- I2C1 Configuration -----------------------------------*/
  if(((PeriphClkInit->PeriphClockSelection) & RCC_PERIPHCLK_I2C1) == RCC_PERIPHCLK_I2C1)
 8003f18:	687b      	ldr	r3, [r7, #4]
 8003f1a:	681b      	ldr	r3, [r3, #0]
 8003f1c:	f403 4380 	and.w	r3, r3, #16384	@ 0x4000
 8003f20:	2b00      	cmp	r3, #0
 8003f22:	d00a      	beq.n	8003f3a <HAL_RCCEx_PeriphCLKConfig+0x24a>
  {
    /* Check the parameters */
    assert_param(IS_RCC_I2C1CLKSOURCE(PeriphClkInit->I2c1ClockSelection));

    /* Configure the I2C1 clock source */
    __HAL_RCC_I2C1_CONFIG(PeriphClkInit->I2c1ClockSelection);
 8003f24:	4b94      	ldr	r3, [pc, #592]	@ (8004178 <HAL_RCCEx_PeriphCLKConfig+0x488>)
 8003f26:	f8d3 3090 	ldr.w	r3, [r3, #144]	@ 0x90
 8003f2a:	f423 3240 	bic.w	r2, r3, #196608	@ 0x30000
 8003f2e:	687b      	ldr	r3, [r7, #4]
 8003f30:	6e5b      	ldr	r3, [r3, #100]	@ 0x64
 8003f32:	4991      	ldr	r1, [pc, #580]	@ (8004178 <HAL_RCCEx_PeriphCLKConfig+0x488>)
 8003f34:	4313      	orrs	r3, r2
 8003f36:	f8c1 3090 	str.w	r3, [r1, #144]	@ 0x90
  }

  /*-------------------------------------- I2C2 Configuration -----------------------------------*/
  if(((PeriphClkInit->PeriphClockSelection) & RCC_PERIPHCLK_I2C2) == RCC_PERIPHCLK_I2C2)
 8003f3a:	687b      	ldr	r3, [r7, #4]
 8003f3c:	681b      	ldr	r3, [r3, #0]
 8003f3e:	f403 4300 	and.w	r3, r3, #32768	@ 0x8000
 8003f42:	2b00      	cmp	r3, #0
 8003f44:	d00a      	beq.n	8003f5c <HAL_RCCEx_PeriphCLKConfig+0x26c>
  {
    /* Check the parameters */
    assert_param(IS_RCC_I2C2CLKSOURCE(PeriphClkInit->I2c2ClockSelection));

    /* Configure the I2C2 clock source */
    __HAL_RCC_I2C2_CONFIG(PeriphClkInit->I2c2ClockSelection);
 8003f46:	4b8c      	ldr	r3, [pc, #560]	@ (8004178 <HAL_RCCEx_PeriphCLKConfig+0x488>)
 8003f48:	f8d3 3090 	ldr.w	r3, [r3, #144]	@ 0x90
 8003f4c:	f423 2240 	bic.w	r2, r3, #786432	@ 0xc0000
 8003f50:	687b      	ldr	r3, [r7, #4]
 8003f52:	6e9b      	ldr	r3, [r3, #104]	@ 0x68
 8003f54:	4988      	ldr	r1, [pc, #544]	@ (8004178 <HAL_RCCEx_PeriphCLKConfig+0x488>)
 8003f56:	4313      	orrs	r3, r2
 8003f58:	f8c1 3090 	str.w	r3, [r1, #144]	@ 0x90
  }

  /*-------------------------------------- I2C3 Configuration -----------------------------------*/
  if(((PeriphClkInit->PeriphClockSelection) & RCC_PERIPHCLK_I2C3) == RCC_PERIPHCLK_I2C3)
 8003f5c:	687b      	ldr	r3, [r7, #4]
 8003f5e:	681b      	ldr	r3, [r3, #0]
 8003f60:	f403 3380 	and.w	r3, r3, #65536	@ 0x10000
 8003f64:	2b00      	cmp	r3, #0
 8003f66:	d00a      	beq.n	8003f7e <HAL_RCCEx_PeriphCLKConfig+0x28e>
  {
    /* Check the parameters */
    assert_param(IS_RCC_I2C3CLKSOURCE(PeriphClkInit->I2c3ClockSelection));

    /* Configure the I2C3 clock source */
    __HAL_RCC_I2C3_CONFIG(PeriphClkInit->I2c3ClockSelection);
 8003f68:	4b83      	ldr	r3, [pc, #524]	@ (8004178 <HAL_RCCEx_PeriphCLKConfig+0x488>)
 8003f6a:	f8d3 3090 	ldr.w	r3, [r3, #144]	@ 0x90
 8003f6e:	f423 1240 	bic.w	r2, r3, #3145728	@ 0x300000
 8003f72:	687b      	ldr	r3, [r7, #4]
 8003f74:	6edb      	ldr	r3, [r3, #108]	@ 0x6c
 8003f76:	4980      	ldr	r1, [pc, #512]	@ (8004178 <HAL_RCCEx_PeriphCLKConfig+0x488>)
 8003f78:	4313      	orrs	r3, r2
 8003f7a:	f8c1 3090 	str.w	r3, [r1, #144]	@ 0x90
  }

  /*-------------------------------------- I2C4 Configuration -----------------------------------*/
  if(((PeriphClkInit->PeriphClockSelection) & RCC_PERIPHCLK_I2C4) == RCC_PERIPHCLK_I2C4)
 8003f7e:	687b      	ldr	r3, [r7, #4]
 8003f80:	681b      	ldr	r3, [r3, #0]
 8003f82:	f403 3300 	and.w	r3, r3, #131072	@ 0x20000
 8003f86:	2b00      	cmp	r3, #0
 8003f88:	d00a      	beq.n	8003fa0 <HAL_RCCEx_PeriphCLKConfig+0x2b0>
  {
    /* Check the parameters */
    assert_param(IS_RCC_I2C4CLKSOURCE(PeriphClkInit->I2c4ClockSelection));

    /* Configure the I2C4 clock source */
    __HAL_RCC_I2C4_CONFIG(PeriphClkInit->I2c4ClockSelection);
 8003f8a:	4b7b      	ldr	r3, [pc, #492]	@ (8004178 <HAL_RCCEx_PeriphCLKConfig+0x488>)
 8003f8c:	f8d3 3090 	ldr.w	r3, [r3, #144]	@ 0x90
 8003f90:	f423 0240 	bic.w	r2, r3, #12582912	@ 0xc00000
 8003f94:	687b      	ldr	r3, [r7, #4]
 8003f96:	6f1b      	ldr	r3, [r3, #112]	@ 0x70
 8003f98:	4977      	ldr	r1, [pc, #476]	@ (8004178 <HAL_RCCEx_PeriphCLKConfig+0x488>)
 8003f9a:	4313      	orrs	r3, r2
 8003f9c:	f8c1 3090 	str.w	r3, [r1, #144]	@ 0x90
  }

  /*-------------------------------------- USART1 Configuration -----------------------------------*/
  if(((PeriphClkInit->PeriphClockSelection) & RCC_PERIPHCLK_USART1) == RCC_PERIPHCLK_USART1)
 8003fa0:	687b      	ldr	r3, [r7, #4]
 8003fa2:	681b      	ldr	r3, [r3, #0]
 8003fa4:	f003 0340 	and.w	r3, r3, #64	@ 0x40
 8003fa8:	2b00      	cmp	r3, #0
 8003faa:	d00a      	beq.n	8003fc2 <HAL_RCCEx_PeriphCLKConfig+0x2d2>
  {
    /* Check the parameters */
    assert_param(IS_RCC_USART1CLKSOURCE(PeriphClkInit->Usart1ClockSelection));

    /* Configure the USART1 clock source */
    __HAL_RCC_USART1_CONFIG(PeriphClkInit->Usart1ClockSelection);
 8003fac:	4b72      	ldr	r3, [pc, #456]	@ (8004178 <HAL_RCCEx_PeriphCLKConfig+0x488>)
 8003fae:	f8d3 3090 	ldr.w	r3, [r3, #144]	@ 0x90
 8003fb2:	f023 0203 	bic.w	r2, r3, #3
 8003fb6:	687b      	ldr	r3, [r7, #4]
 8003fb8:	6c5b      	ldr	r3, [r3, #68]	@ 0x44
 8003fba:	496f      	ldr	r1, [pc, #444]	@ (8004178 <HAL_RCCEx_PeriphCLKConfig+0x488>)
 8003fbc:	4313      	orrs	r3, r2
 8003fbe:	f8c1 3090 	str.w	r3, [r1, #144]	@ 0x90
  }

  /*-------------------------------------- USART2 Configuration -----------------------------------*/
  if(((PeriphClkInit->PeriphClockSelection) & RCC_PERIPHCLK_USART2) == RCC_PERIPHCLK_USART2)
 8003fc2:	687b      	ldr	r3, [r7, #4]
 8003fc4:	681b      	ldr	r3, [r3, #0]
 8003fc6:	f003 0380 	and.w	r3, r3, #128	@ 0x80
 8003fca:	2b00      	cmp	r3, #0
 8003fcc:	d00a      	beq.n	8003fe4 <HAL_RCCEx_PeriphCLKConfig+0x2f4>
  {
    /* Check the parameters */
    assert_param(IS_RCC_USART2CLKSOURCE(PeriphClkInit->Usart2ClockSelection));

    /* Configure the USART2 clock source */
    __HAL_RCC_USART2_CONFIG(PeriphClkInit->Usart2ClockSelection);
 8003fce:	4b6a      	ldr	r3, [pc, #424]	@ (8004178 <HAL_RCCEx_PeriphCLKConfig+0x488>)
 8003fd0:	f8d3 3090 	ldr.w	r3, [r3, #144]	@ 0x90
 8003fd4:	f023 020c 	bic.w	r2, r3, #12
 8003fd8:	687b      	ldr	r3, [r7, #4]
 8003fda:	6c9b      	ldr	r3, [r3, #72]	@ 0x48
 8003fdc:	4966      	ldr	r1, [pc, #408]	@ (8004178 <HAL_RCCEx_PeriphCLKConfig+0x488>)
 8003fde:	4313      	orrs	r3, r2
 8003fe0:	f8c1 3090 	str.w	r3, [r1, #144]	@ 0x90
  }

  /*-------------------------------------- USART3 Configuration -----------------------------------*/
  if(((PeriphClkInit->PeriphClockSelection) & RCC_PERIPHCLK_USART3) == RCC_PERIPHCLK_USART3)
 8003fe4:	687b      	ldr	r3, [r7, #4]
 8003fe6:	681b      	ldr	r3, [r3, #0]
 8003fe8:	f403 7380 	and.w	r3, r3, #256	@ 0x100
 8003fec:	2b00      	cmp	r3, #0
 8003fee:	d00a      	beq.n	8004006 <HAL_RCCEx_PeriphCLKConfig+0x316>
  {
    /* Check the parameters */
    assert_param(IS_RCC_USART3CLKSOURCE(PeriphClkInit->Usart3ClockSelection));

    /* Configure the USART3 clock source */
    __HAL_RCC_USART3_CONFIG(PeriphClkInit->Usart3ClockSelection);
 8003ff0:	4b61      	ldr	r3, [pc, #388]	@ (8004178 <HAL_RCCEx_PeriphCLKConfig+0x488>)
 8003ff2:	f8d3 3090 	ldr.w	r3, [r3, #144]	@ 0x90
 8003ff6:	f023 0230 	bic.w	r2, r3, #48	@ 0x30
 8003ffa:	687b      	ldr	r3, [r7, #4]
 8003ffc:	6cdb      	ldr	r3, [r3, #76]	@ 0x4c
 8003ffe:	495e      	ldr	r1, [pc, #376]	@ (8004178 <HAL_RCCEx_PeriphCLKConfig+0x488>)
 8004000:	4313      	orrs	r3, r2
 8004002:	f8c1 3090 	str.w	r3, [r1, #144]	@ 0x90
  }

  /*-------------------------------------- UART4 Configuration -----------------------------------*/
  if(((PeriphClkInit->PeriphClockSelection) & RCC_PERIPHCLK_UART4) == RCC_PERIPHCLK_UART4)
 8004006:	687b      	ldr	r3, [r7, #4]
 8004008:	681b      	ldr	r3, [r3, #0]
 800400a:	f403 7300 	and.w	r3, r3, #512	@ 0x200
 800400e:	2b00      	cmp	r3, #0
 8004010:	d00a      	beq.n	8004028 <HAL_RCCEx_PeriphCLKConfig+0x338>
  {
    /* Check the parameters */
    assert_param(IS_RCC_UART4CLKSOURCE(PeriphClkInit->Uart4ClockSelection));

    /* Configure the UART4 clock source */
    __HAL_RCC_UART4_CONFIG(PeriphClkInit->Uart4ClockSelection);
 8004012:	4b59      	ldr	r3, [pc, #356]	@ (8004178 <HAL_RCCEx_PeriphCLKConfig+0x488>)
 8004014:	f8d3 3090 	ldr.w	r3, [r3, #144]	@ 0x90
 8004018:	f023 02c0 	bic.w	r2, r3, #192	@ 0xc0
 800401c:	687b      	ldr	r3, [r7, #4]
 800401e:	6d1b      	ldr	r3, [r3, #80]	@ 0x50
 8004020:	4955      	ldr	r1, [pc, #340]	@ (8004178 <HAL_RCCEx_PeriphCLKConfig+0x488>)
 8004022:	4313      	orrs	r3, r2
 8004024:	f8c1 3090 	str.w	r3, [r1, #144]	@ 0x90
  }

  /*-------------------------------------- UART5 Configuration -----------------------------------*/
  if(((PeriphClkInit->PeriphClockSelection) & RCC_PERIPHCLK_UART5) == RCC_PERIPHCLK_UART5)
 8004028:	687b      	ldr	r3, [r7, #4]
 800402a:	681b      	ldr	r3, [r3, #0]
 800402c:	f403 6380 	and.w	r3, r3, #1024	@ 0x400
 8004030:	2b00      	cmp	r3, #0
 8004032:	d00a      	beq.n	800404a <HAL_RCCEx_PeriphCLKConfig+0x35a>
  {
    /* Check the parameters */
    assert_param(IS_RCC_UART5CLKSOURCE(PeriphClkInit->Uart5ClockSelection));

    /* Configure the UART5 clock source */
    __HAL_RCC_UART5_CONFIG(PeriphClkInit->Uart5ClockSelection);
 8004034:	4b50      	ldr	r3, [pc, #320]	@ (8004178 <HAL_RCCEx_PeriphCLKConfig+0x488>)
 8004036:	f8d3 3090 	ldr.w	r3, [r3, #144]	@ 0x90
 800403a:	f423 7240 	bic.w	r2, r3, #768	@ 0x300
 800403e:	687b      	ldr	r3, [r7, #4]
 8004040:	6d5b      	ldr	r3, [r3, #84]	@ 0x54
 8004042:	494d      	ldr	r1, [pc, #308]	@ (8004178 <HAL_RCCEx_PeriphCLKConfig+0x488>)
 8004044:	4313      	orrs	r3, r2
 8004046:	f8c1 3090 	str.w	r3, [r1, #144]	@ 0x90
  }

  /*-------------------------------------- USART6 Configuration -----------------------------------*/
  if(((PeriphClkInit->PeriphClockSelection) & RCC_PERIPHCLK_USART6) == RCC_PERIPHCLK_USART6)
 800404a:	687b      	ldr	r3, [r7, #4]
 800404c:	681b      	ldr	r3, [r3, #0]
 800404e:	f403 6300 	and.w	r3, r3, #2048	@ 0x800
 8004052:	2b00      	cmp	r3, #0
 8004054:	d00a      	beq.n	800406c <HAL_RCCEx_PeriphCLKConfig+0x37c>
  {
    /* Check the parameters */
    assert_param(IS_RCC_USART6CLKSOURCE(PeriphClkInit->Usart6ClockSelection));

    /* Configure the USART6 clock source */
    __HAL_RCC_USART6_CONFIG(PeriphClkInit->Usart6ClockSelection);
 8004056:	4b48      	ldr	r3, [pc, #288]	@ (8004178 <HAL_RCCEx_PeriphCLKConfig+0x488>)
 8004058:	f8d3 3090 	ldr.w	r3, [r3, #144]	@ 0x90
 800405c:	f423 6240 	bic.w	r2, r3, #3072	@ 0xc00
 8004060:	687b      	ldr	r3, [r7, #4]
 8004062:	6d9b      	ldr	r3, [r3, #88]	@ 0x58
 8004064:	4944      	ldr	r1, [pc, #272]	@ (8004178 <HAL_RCCEx_PeriphCLKConfig+0x488>)
 8004066:	4313      	orrs	r3, r2
 8004068:	f8c1 3090 	str.w	r3, [r1, #144]	@ 0x90
  }

  /*-------------------------------------- UART7 Configuration -----------------------------------*/
  if(((PeriphClkInit->PeriphClockSelection) & RCC_PERIPHCLK_UART7) == RCC_PERIPHCLK_UART7)
 800406c:	687b      	ldr	r3, [r7, #4]
 800406e:	681b      	ldr	r3, [r3, #0]
 8004070:	f403 5380 	and.w	r3, r3, #4096	@ 0x1000
 8004074:	2b00      	cmp	r3, #0
 8004076:	d00a      	beq.n	800408e <HAL_RCCEx_PeriphCLKConfig+0x39e>
  {
    /* Check the parameters */
    assert_param(IS_RCC_UART7CLKSOURCE(PeriphClkInit->Uart7ClockSelection));

    /* Configure the UART7 clock source */
    __HAL_RCC_UART7_CONFIG(PeriphClkInit->Uart7ClockSelection);
 8004078:	4b3f      	ldr	r3, [pc, #252]	@ (8004178 <HAL_RCCEx_PeriphCLKConfig+0x488>)
 800407a:	f8d3 3090 	ldr.w	r3, [r3, #144]	@ 0x90
 800407e:	f423 5240 	bic.w	r2, r3, #12288	@ 0x3000
 8004082:	687b      	ldr	r3, [r7, #4]
 8004084:	6ddb      	ldr	r3, [r3, #92]	@ 0x5c
 8004086:	493c      	ldr	r1, [pc, #240]	@ (8004178 <HAL_RCCEx_PeriphCLKConfig+0x488>)
 8004088:	4313      	orrs	r3, r2
 800408a:	f8c1 3090 	str.w	r3, [r1, #144]	@ 0x90
  }

  /*-------------------------------------- UART8 Configuration -----------------------------------*/
  if(((PeriphClkInit->PeriphClockSelection) & RCC_PERIPHCLK_UART8) == RCC_PERIPHCLK_UART8)
 800408e:	687b      	ldr	r3, [r7, #4]
 8004090:	681b      	ldr	r3, [r3, #0]
 8004092:	f403 5300 	and.w	r3, r3, #8192	@ 0x2000
 8004096:	2b00      	cmp	r3, #0
 8004098:	d00a      	beq.n	80040b0 <HAL_RCCEx_PeriphCLKConfig+0x3c0>
  {
    /* Check the parameters */
    assert_param(IS_RCC_UART8CLKSOURCE(PeriphClkInit->Uart8ClockSelection));

    /* Configure the UART8 clock source */
    __HAL_RCC_UART8_CONFIG(PeriphClkInit->Uart8ClockSelection);
 800409a:	4b37      	ldr	r3, [pc, #220]	@ (8004178 <HAL_RCCEx_PeriphCLKConfig+0x488>)
 800409c:	f8d3 3090 	ldr.w	r3, [r3, #144]	@ 0x90
 80040a0:	f423 4240 	bic.w	r2, r3, #49152	@ 0xc000
 80040a4:	687b      	ldr	r3, [r7, #4]
 80040a6:	6e1b      	ldr	r3, [r3, #96]	@ 0x60
 80040a8:	4933      	ldr	r1, [pc, #204]	@ (8004178 <HAL_RCCEx_PeriphCLKConfig+0x488>)
 80040aa:	4313      	orrs	r3, r2
 80040ac:	f8c1 3090 	str.w	r3, [r1, #144]	@ 0x90
  }

  /*--------------------------------------- CEC Configuration -----------------------------------*/
  if(((PeriphClkInit->PeriphClockSelection) & RCC_PERIPHCLK_CEC) == RCC_PERIPHCLK_CEC)
 80040b0:	687b      	ldr	r3, [r7, #4]
 80040b2:	681b      	ldr	r3, [r3, #0]
 80040b4:	f403 0380 	and.w	r3, r3, #4194304	@ 0x400000
 80040b8:	2b00      	cmp	r3, #0
 80040ba:	d00a      	beq.n	80040d2 <HAL_RCCEx_PeriphCLKConfig+0x3e2>
  {
    /* Check the parameters */
    assert_param(IS_RCC_CECCLKSOURCE(PeriphClkInit->CecClockSelection));

    /* Configure the CEC clock source */
    __HAL_RCC_CEC_CONFIG(PeriphClkInit->CecClockSelection);
 80040bc:	4b2e      	ldr	r3, [pc, #184]	@ (8004178 <HAL_RCCEx_PeriphCLKConfig+0x488>)
 80040be:	f8d3 3090 	ldr.w	r3, [r3, #144]	@ 0x90
 80040c2:	f023 6280 	bic.w	r2, r3, #67108864	@ 0x4000000
 80040c6:	687b      	ldr	r3, [r7, #4]
 80040c8:	6f9b      	ldr	r3, [r3, #120]	@ 0x78
 80040ca:	492b      	ldr	r1, [pc, #172]	@ (8004178 <HAL_RCCEx_PeriphCLKConfig+0x488>)
 80040cc:	4313      	orrs	r3, r2
 80040ce:	f8c1 3090 	str.w	r3, [r1, #144]	@ 0x90
  }

  /*-------------------------------------- CK48 Configuration -----------------------------------*/
  if(((PeriphClkInit->PeriphClockSelection) & RCC_PERIPHCLK_CLK48) == RCC_PERIPHCLK_CLK48)
 80040d2:	687b      	ldr	r3, [r7, #4]
 80040d4:	681b      	ldr	r3, [r3, #0]
 80040d6:	f403 1300 	and.w	r3, r3, #2097152	@ 0x200000
 80040da:	2b00      	cmp	r3, #0
 80040dc:	d011      	beq.n	8004102 <HAL_RCCEx_PeriphCLKConfig+0x412>
  {
    /* Check the parameters */
    assert_param(IS_RCC_CLK48SOURCE(PeriphClkInit->Clk48ClockSelection));

    /* Configure the CLK48 source */
    __HAL_RCC_CLK48_CONFIG(PeriphClkInit->Clk48ClockSelection);
 80040de:	4b26      	ldr	r3, [pc, #152]	@ (8004178 <HAL_RCCEx_PeriphCLKConfig+0x488>)
 80040e0:	f8d3 3090 	ldr.w	r3, [r3, #144]	@ 0x90
 80040e4:	f023 6200 	bic.w	r2, r3, #134217728	@ 0x8000000
 80040e8:	687b      	ldr	r3, [r7, #4]
 80040ea:	6fdb      	ldr	r3, [r3, #124]	@ 0x7c
 80040ec:	4922      	ldr	r1, [pc, #136]	@ (8004178 <HAL_RCCEx_PeriphCLKConfig+0x488>)
 80040ee:	4313      	orrs	r3, r2
 80040f0:	f8c1 3090 	str.w	r3, [r1, #144]	@ 0x90

    /* Enable the PLLSAI when it's used as clock source for CK48 */
    if(PeriphClkInit->Clk48ClockSelection == RCC_CLK48SOURCE_PLLSAIP)
 80040f4:	687b      	ldr	r3, [r7, #4]
 80040f6:	6fdb      	ldr	r3, [r3, #124]	@ 0x7c
 80040f8:	f1b3 6f00 	cmp.w	r3, #134217728	@ 0x8000000
 80040fc:	d101      	bne.n	8004102 <HAL_RCCEx_PeriphCLKConfig+0x412>
    {
      pllsaiused = 1;
 80040fe:	2301      	movs	r3, #1
 8004100:	61bb      	str	r3, [r7, #24]
    }
  }

  /*-------------------------------------- LTDC Configuration -----------------------------------*/
#if defined(STM32F746xx) || defined(STM32F756xx) || defined (STM32F767xx) || defined (STM32F769xx) || defined (STM32F777xx) || defined (STM32F779xx) || defined (STM32F750xx)
  if(((PeriphClkInit->PeriphClockSelection) & RCC_PERIPHCLK_LTDC) == RCC_PERIPHCLK_LTDC)
 8004102:	687b      	ldr	r3, [r7, #4]
 8004104:	681b      	ldr	r3, [r3, #0]
 8004106:	f003 0308 	and.w	r3, r3, #8
 800410a:	2b00      	cmp	r3, #0
 800410c:	d001      	beq.n	8004112 <HAL_RCCEx_PeriphCLKConfig+0x422>
  {
    pllsaiused = 1;
 800410e:	2301      	movs	r3, #1
 8004110:	61bb      	str	r3, [r7, #24]
  }
#endif /* STM32F746xx || STM32F756xx || STM32F767xx || STM32F769xx || STM32F777xx || STM32F779xx || STM32F750xx */

  /*-------------------------------------- LPTIM1 Configuration -----------------------------------*/
  if(((PeriphClkInit->PeriphClockSelection) & RCC_PERIPHCLK_LPTIM1) == RCC_PERIPHCLK_LPTIM1)
 8004112:	687b      	ldr	r3, [r7, #4]
 8004114:	681b      	ldr	r3, [r3, #0]
 8004116:	f403 2380 	and.w	r3, r3, #262144	@ 0x40000
 800411a:	2b00      	cmp	r3, #0
 800411c:	d00a      	beq.n	8004134 <HAL_RCCEx_PeriphCLKConfig+0x444>
  {
    /* Check the parameters */
    assert_param(IS_RCC_LPTIM1CLK(PeriphClkInit->Lptim1ClockSelection));

    /* Configure the LTPIM1 clock source */
    __HAL_RCC_LPTIM1_CONFIG(PeriphClkInit->Lptim1ClockSelection);
 800411e:	4b16      	ldr	r3, [pc, #88]	@ (8004178 <HAL_RCCEx_PeriphCLKConfig+0x488>)
 8004120:	f8d3 3090 	ldr.w	r3, [r3, #144]	@ 0x90
 8004124:	f023 7240 	bic.w	r2, r3, #50331648	@ 0x3000000
 8004128:	687b      	ldr	r3, [r7, #4]
 800412a:	6f5b      	ldr	r3, [r3, #116]	@ 0x74
 800412c:	4912      	ldr	r1, [pc, #72]	@ (8004178 <HAL_RCCEx_PeriphCLKConfig+0x488>)
 800412e:	4313      	orrs	r3, r2
 8004130:	f8c1 3090 	str.w	r3, [r1, #144]	@ 0x90
   }

  /*------------------------------------- SDMMC1 Configuration ------------------------------------*/
  if(((PeriphClkInit->PeriphClockSelection) & RCC_PERIPHCLK_SDMMC1) == RCC_PERIPHCLK_SDMMC1)
 8004134:	687b      	ldr	r3, [r7, #4]
 8004136:	681b      	ldr	r3, [r3, #0]
 8004138:	f403 0300 	and.w	r3, r3, #8388608	@ 0x800000
 800413c:	2b00      	cmp	r3, #0
 800413e:	d00b      	beq.n	8004158 <HAL_RCCEx_PeriphCLKConfig+0x468>
  {
    /* Check the parameters */
    assert_param(IS_RCC_SDMMC1CLKSOURCE(PeriphClkInit->Sdmmc1ClockSelection));

    /* Configure the SDMMC1 clock source */
    __HAL_RCC_SDMMC1_CONFIG(PeriphClkInit->Sdmmc1ClockSelection);
 8004140:	4b0d      	ldr	r3, [pc, #52]	@ (8004178 <HAL_RCCEx_PeriphCLKConfig+0x488>)
 8004142:	f8d3 3090 	ldr.w	r3, [r3, #144]	@ 0x90
 8004146:	f023 5280 	bic.w	r2, r3, #268435456	@ 0x10000000
 800414a:	687b      	ldr	r3, [r7, #4]
 800414c:	f8d3 3080 	ldr.w	r3, [r3, #128]	@ 0x80
 8004150:	4909      	ldr	r1, [pc, #36]	@ (8004178 <HAL_RCCEx_PeriphCLKConfig+0x488>)
 8004152:	4313      	orrs	r3, r2
 8004154:	f8c1 3090 	str.w	r3, [r1, #144]	@ 0x90
  }
#endif /* STM32F767xx || STM32F769xx || STM32F777xx || STM32F779xx */

  /*-------------------------------------- PLLI2S Configuration ---------------------------------*/
  /* PLLI2S is configured when a peripheral will use it as source clock : SAI1, SAI2, I2S or SPDIF-RX */
  if((plli2sused == 1) || ((PeriphClkInit->PeriphClockSelection & RCC_PERIPHCLK_PLLI2S) == RCC_PERIPHCLK_PLLI2S))
 8004158:	69fb      	ldr	r3, [r7, #28]
 800415a:	2b01      	cmp	r3, #1
 800415c:	d006      	beq.n	800416c <HAL_RCCEx_PeriphCLKConfig+0x47c>
 800415e:	687b      	ldr	r3, [r7, #4]
 8004160:	681b      	ldr	r3, [r3, #0]
 8004162:	f003 7300 	and.w	r3, r3, #33554432	@ 0x2000000
 8004166:	2b00      	cmp	r3, #0
 8004168:	f000 80d9 	beq.w	800431e <HAL_RCCEx_PeriphCLKConfig+0x62e>
  {
    /* Disable the PLLI2S */
    __HAL_RCC_PLLI2S_DISABLE();
 800416c:	4b02      	ldr	r3, [pc, #8]	@ (8004178 <HAL_RCCEx_PeriphCLKConfig+0x488>)
 800416e:	681b      	ldr	r3, [r3, #0]
 8004170:	4a01      	ldr	r2, [pc, #4]	@ (8004178 <HAL_RCCEx_PeriphCLKConfig+0x488>)
 8004172:	f023 6380 	bic.w	r3, r3, #67108864	@ 0x4000000
 8004176:	e001      	b.n	800417c <HAL_RCCEx_PeriphCLKConfig+0x48c>
 8004178:	40023800 	.word	0x40023800
 800417c:	6013      	str	r3, [r2, #0]

    /* Get Start Tick*/
    tickstart = HAL_GetTick();
 800417e:	f7fd fe65 	bl	8001e4c <HAL_GetTick>
 8004182:	6178      	str	r0, [r7, #20]

    /* Wait till PLLI2S is disabled */
    while(__HAL_RCC_GET_FLAG(RCC_FLAG_PLLI2SRDY)  != RESET)
 8004184:	e008      	b.n	8004198 <HAL_RCCEx_PeriphCLKConfig+0x4a8>
    {
      if((HAL_GetTick() - tickstart) > PLLI2S_TIMEOUT_VALUE)
 8004186:	f7fd fe61 	bl	8001e4c <HAL_GetTick>
 800418a:	4602      	mov	r2, r0
 800418c:	697b      	ldr	r3, [r7, #20]
 800418e:	1ad3      	subs	r3, r2, r3
 8004190:	2b64      	cmp	r3, #100	@ 0x64
 8004192:	d901      	bls.n	8004198 <HAL_RCCEx_PeriphCLKConfig+0x4a8>
      {
        /* return in case of Timeout detected */
        return HAL_TIMEOUT;
 8004194:	2303      	movs	r3, #3
 8004196:	e194      	b.n	80044c2 <HAL_RCCEx_PeriphCLKConfig+0x7d2>
    while(__HAL_RCC_GET_FLAG(RCC_FLAG_PLLI2SRDY)  != RESET)
 8004198:	4b6c      	ldr	r3, [pc, #432]	@ (800434c <HAL_RCCEx_PeriphCLKConfig+0x65c>)
 800419a:	681b      	ldr	r3, [r3, #0]
 800419c:	f003 6300 	and.w	r3, r3, #134217728	@ 0x8000000
 80041a0:	2b00      	cmp	r3, #0
 80041a2:	d1f0      	bne.n	8004186 <HAL_RCCEx_PeriphCLKConfig+0x496>

    /* check for common PLLI2S Parameters */
    assert_param(IS_RCC_PLLI2SN_VALUE(PeriphClkInit->PLLI2S.PLLI2SN));

    /*----------------- In Case of PLLI2S is selected as source clock for I2S -------------------*/
    if(((((PeriphClkInit->PeriphClockSelection) & RCC_PERIPHCLK_I2S) == RCC_PERIPHCLK_I2S) && (PeriphClkInit->I2sClockSelection == RCC_I2SCLKSOURCE_PLLI2S)))
 80041a4:	687b      	ldr	r3, [r7, #4]
 80041a6:	681b      	ldr	r3, [r3, #0]
 80041a8:	f003 0301 	and.w	r3, r3, #1
 80041ac:	2b00      	cmp	r3, #0
 80041ae:	d021      	beq.n	80041f4 <HAL_RCCEx_PeriphCLKConfig+0x504>
 80041b0:	687b      	ldr	r3, [r7, #4]
 80041b2:	6b5b      	ldr	r3, [r3, #52]	@ 0x34
 80041b4:	2b00      	cmp	r3, #0
 80041b6:	d11d      	bne.n	80041f4 <HAL_RCCEx_PeriphCLKConfig+0x504>
    {
      /* check for Parameters */
      assert_param(IS_RCC_PLLI2SR_VALUE(PeriphClkInit->PLLI2S.PLLI2SR));

      /* Read PLLI2SP and PLLI2SQ value from PLLI2SCFGR register (this value is not needed for I2S configuration) */
      tmpreg0 = ((RCC->PLLI2SCFGR & RCC_PLLI2SCFGR_PLLI2SP) >> RCC_PLLI2SCFGR_PLLI2SP_Pos);
 80041b8:	4b64      	ldr	r3, [pc, #400]	@ (800434c <HAL_RCCEx_PeriphCLKConfig+0x65c>)
 80041ba:	f8d3 3084 	ldr.w	r3, [r3, #132]	@ 0x84
 80041be:	0c1b      	lsrs	r3, r3, #16
 80041c0:	f003 0303 	and.w	r3, r3, #3
 80041c4:	613b      	str	r3, [r7, #16]
      tmpreg1 = ((RCC->PLLI2SCFGR & RCC_PLLI2SCFGR_PLLI2SQ) >> RCC_PLLI2SCFGR_PLLI2SQ_Pos);
 80041c6:	4b61      	ldr	r3, [pc, #388]	@ (800434c <HAL_RCCEx_PeriphCLKConfig+0x65c>)
 80041c8:	f8d3 3084 	ldr.w	r3, [r3, #132]	@ 0x84
 80041cc:	0e1b      	lsrs	r3, r3, #24
 80041ce:	f003 030f 	and.w	r3, r3, #15
 80041d2:	60fb      	str	r3, [r7, #12]
      /* Configure the PLLI2S division factors */
      /* PLLI2S_VCO = f(VCO clock) = f(PLLI2S clock input) x (PLLI2SN/PLLM) */
      /* I2SCLK = f(PLLI2S clock output) = f(VCO clock) / PLLI2SR */
      __HAL_RCC_PLLI2S_CONFIG(PeriphClkInit->PLLI2S.PLLI2SN , tmpreg0, tmpreg1, PeriphClkInit->PLLI2S.PLLI2SR);
 80041d4:	687b      	ldr	r3, [r7, #4]
 80041d6:	685b      	ldr	r3, [r3, #4]
 80041d8:	019a      	lsls	r2, r3, #6
 80041da:	693b      	ldr	r3, [r7, #16]
 80041dc:	041b      	lsls	r3, r3, #16
 80041de:	431a      	orrs	r2, r3
 80041e0:	68fb      	ldr	r3, [r7, #12]
 80041e2:	061b      	lsls	r3, r3, #24
 80041e4:	431a      	orrs	r2, r3
 80041e6:	687b      	ldr	r3, [r7, #4]
 80041e8:	689b      	ldr	r3, [r3, #8]
 80041ea:	071b      	lsls	r3, r3, #28
 80041ec:	4957      	ldr	r1, [pc, #348]	@ (800434c <HAL_RCCEx_PeriphCLKConfig+0x65c>)
 80041ee:	4313      	orrs	r3, r2
 80041f0:	f8c1 3084 	str.w	r3, [r1, #132]	@ 0x84
    }

    /*----------------- In Case of PLLI2S is selected as source clock for SAI -------------------*/
    if(((((PeriphClkInit->PeriphClockSelection) & RCC_PERIPHCLK_SAI1) == RCC_PERIPHCLK_SAI1) && (PeriphClkInit->Sai1ClockSelection == RCC_SAI1CLKSOURCE_PLLI2S)) ||
 80041f4:	687b      	ldr	r3, [r7, #4]
 80041f6:	681b      	ldr	r3, [r3, #0]
 80041f8:	f403 2300 	and.w	r3, r3, #524288	@ 0x80000
 80041fc:	2b00      	cmp	r3, #0
 80041fe:	d004      	beq.n	800420a <HAL_RCCEx_PeriphCLKConfig+0x51a>
 8004200:	687b      	ldr	r3, [r7, #4]
 8004202:	6bdb      	ldr	r3, [r3, #60]	@ 0x3c
 8004204:	f5b3 1f80 	cmp.w	r3, #1048576	@ 0x100000
 8004208:	d00a      	beq.n	8004220 <HAL_RCCEx_PeriphCLKConfig+0x530>
       ((((PeriphClkInit->PeriphClockSelection) & RCC_PERIPHCLK_SAI2) == RCC_PERIPHCLK_SAI2) && (PeriphClkInit->Sai2ClockSelection == RCC_SAI2CLKSOURCE_PLLI2S)))
 800420a:	687b      	ldr	r3, [r7, #4]
 800420c:	681b      	ldr	r3, [r3, #0]
 800420e:	f403 1380 	and.w	r3, r3, #1048576	@ 0x100000
    if(((((PeriphClkInit->PeriphClockSelection) & RCC_PERIPHCLK_SAI1) == RCC_PERIPHCLK_SAI1) && (PeriphClkInit->Sai1ClockSelection == RCC_SAI1CLKSOURCE_PLLI2S)) ||
 8004212:	2b00      	cmp	r3, #0
 8004214:	d02e      	beq.n	8004274 <HAL_RCCEx_PeriphCLKConfig+0x584>
       ((((PeriphClkInit->PeriphClockSelection) & RCC_PERIPHCLK_SAI2) == RCC_PERIPHCLK_SAI2) && (PeriphClkInit->Sai2ClockSelection == RCC_SAI2CLKSOURCE_PLLI2S)))
 8004216:	687b      	ldr	r3, [r7, #4]
 8004218:	6c1b      	ldr	r3, [r3, #64]	@ 0x40
 800421a:	f5b3 0f80 	cmp.w	r3, #4194304	@ 0x400000
 800421e:	d129      	bne.n	8004274 <HAL_RCCEx_PeriphCLKConfig+0x584>
      assert_param(IS_RCC_PLLI2SQ_VALUE(PeriphClkInit->PLLI2S.PLLI2SQ));
      /* Check for PLLI2S/DIVQ parameters */
      assert_param(IS_RCC_PLLI2S_DIVQ_VALUE(PeriphClkInit->PLLI2SDivQ));

      /* Read PLLI2SP and PLLI2SR values from PLLI2SCFGR register (this value is not needed for SAI configuration) */
      tmpreg0 = ((RCC->PLLI2SCFGR & RCC_PLLI2SCFGR_PLLI2SP) >> RCC_PLLI2SCFGR_PLLI2SP_Pos);
 8004220:	4b4a      	ldr	r3, [pc, #296]	@ (800434c <HAL_RCCEx_PeriphCLKConfig+0x65c>)
 8004222:	f8d3 3084 	ldr.w	r3, [r3, #132]	@ 0x84
 8004226:	0c1b      	lsrs	r3, r3, #16
 8004228:	f003 0303 	and.w	r3, r3, #3
 800422c:	613b      	str	r3, [r7, #16]
      tmpreg1 = ((RCC->PLLI2SCFGR & RCC_PLLI2SCFGR_PLLI2SR) >> RCC_PLLI2SCFGR_PLLI2SR_Pos);
 800422e:	4b47      	ldr	r3, [pc, #284]	@ (800434c <HAL_RCCEx_PeriphCLKConfig+0x65c>)
 8004230:	f8d3 3084 	ldr.w	r3, [r3, #132]	@ 0x84
 8004234:	0f1b      	lsrs	r3, r3, #28
 8004236:	f003 0307 	and.w	r3, r3, #7
 800423a:	60fb      	str	r3, [r7, #12]
      /* Configure the PLLI2S division factors */
      /* PLLI2S_VCO Input  = PLL_SOURCE/PLLM */
      /* PLLI2S_VCO Output = PLLI2S_VCO Input * PLLI2SN */
      /* SAI_CLK(first level) = PLLI2S_VCO Output/PLLI2SQ */
      __HAL_RCC_PLLI2S_CONFIG(PeriphClkInit->PLLI2S.PLLI2SN, tmpreg0, PeriphClkInit->PLLI2S.PLLI2SQ, tmpreg1);
 800423c:	687b      	ldr	r3, [r7, #4]
 800423e:	685b      	ldr	r3, [r3, #4]
 8004240:	019a      	lsls	r2, r3, #6
 8004242:	693b      	ldr	r3, [r7, #16]
 8004244:	041b      	lsls	r3, r3, #16
 8004246:	431a      	orrs	r2, r3
 8004248:	687b      	ldr	r3, [r7, #4]
 800424a:	68db      	ldr	r3, [r3, #12]
 800424c:	061b      	lsls	r3, r3, #24
 800424e:	431a      	orrs	r2, r3
 8004250:	68fb      	ldr	r3, [r7, #12]
 8004252:	071b      	lsls	r3, r3, #28
 8004254:	493d      	ldr	r1, [pc, #244]	@ (800434c <HAL_RCCEx_PeriphCLKConfig+0x65c>)
 8004256:	4313      	orrs	r3, r2
 8004258:	f8c1 3084 	str.w	r3, [r1, #132]	@ 0x84

      /* SAI_CLK_x = SAI_CLK(first level)/PLLI2SDIVQ */
      __HAL_RCC_PLLI2S_PLLSAICLKDIVQ_CONFIG(PeriphClkInit->PLLI2SDivQ);
 800425c:	4b3b      	ldr	r3, [pc, #236]	@ (800434c <HAL_RCCEx_PeriphCLKConfig+0x65c>)
 800425e:	f8d3 308c 	ldr.w	r3, [r3, #140]	@ 0x8c
 8004262:	f023 021f 	bic.w	r2, r3, #31
 8004266:	687b      	ldr	r3, [r7, #4]
 8004268:	6a5b      	ldr	r3, [r3, #36]	@ 0x24
 800426a:	3b01      	subs	r3, #1
 800426c:	4937      	ldr	r1, [pc, #220]	@ (800434c <HAL_RCCEx_PeriphCLKConfig+0x65c>)
 800426e:	4313      	orrs	r3, r2
 8004270:	f8c1 308c 	str.w	r3, [r1, #140]	@ 0x8c
    }

    /*----------------- In Case of PLLI2S is selected as source clock for SPDIF-RX -------------------*/
    if(((PeriphClkInit->PeriphClockSelection) & RCC_PERIPHCLK_SPDIFRX) == RCC_PERIPHCLK_SPDIFRX)
 8004274:	687b      	ldr	r3, [r7, #4]
 8004276:	681b      	ldr	r3, [r3, #0]
 8004278:	f003 7380 	and.w	r3, r3, #16777216	@ 0x1000000
 800427c:	2b00      	cmp	r3, #0
 800427e:	d01d      	beq.n	80042bc <HAL_RCCEx_PeriphCLKConfig+0x5cc>
    {
      /* check for Parameters */
      assert_param(IS_RCC_PLLI2SP_VALUE(PeriphClkInit->PLLI2S.PLLI2SP));

     /* Read PLLI2SR value from PLLI2SCFGR register (this value is not needed for SPDIF-RX configuration) */
      tmpreg0 = ((RCC->PLLI2SCFGR & RCC_PLLI2SCFGR_PLLI2SQ) >> RCC_PLLI2SCFGR_PLLI2SQ_Pos);
 8004280:	4b32      	ldr	r3, [pc, #200]	@ (800434c <HAL_RCCEx_PeriphCLKConfig+0x65c>)
 8004282:	f8d3 3084 	ldr.w	r3, [r3, #132]	@ 0x84
 8004286:	0e1b      	lsrs	r3, r3, #24
 8004288:	f003 030f 	and.w	r3, r3, #15
 800428c:	613b      	str	r3, [r7, #16]
      tmpreg1 = ((RCC->PLLI2SCFGR & RCC_PLLI2SCFGR_PLLI2SR) >> RCC_PLLI2SCFGR_PLLI2SR_Pos);
 800428e:	4b2f      	ldr	r3, [pc, #188]	@ (800434c <HAL_RCCEx_PeriphCLKConfig+0x65c>)
 8004290:	f8d3 3084 	ldr.w	r3, [r3, #132]	@ 0x84
 8004294:	0f1b      	lsrs	r3, r3, #28
 8004296:	f003 0307 	and.w	r3, r3, #7
 800429a:	60fb      	str	r3, [r7, #12]
      /* Configure the PLLI2S division factors */
      /* PLLI2S_VCO = f(VCO clock) = f(PLLI2S clock input) x (PLLI2SN/PLLM) */
      /* SPDIFCLK = f(PLLI2S clock output) = f(VCO clock) / PLLI2SP */
      __HAL_RCC_PLLI2S_CONFIG(PeriphClkInit->PLLI2S.PLLI2SN , PeriphClkInit->PLLI2S.PLLI2SP, tmpreg0, tmpreg1);
 800429c:	687b      	ldr	r3, [r7, #4]
 800429e:	685b      	ldr	r3, [r3, #4]
 80042a0:	019a      	lsls	r2, r3, #6
 80042a2:	687b      	ldr	r3, [r7, #4]
 80042a4:	691b      	ldr	r3, [r3, #16]
 80042a6:	041b      	lsls	r3, r3, #16
 80042a8:	431a      	orrs	r2, r3
 80042aa:	693b      	ldr	r3, [r7, #16]
 80042ac:	061b      	lsls	r3, r3, #24
 80042ae:	431a      	orrs	r2, r3
 80042b0:	68fb      	ldr	r3, [r7, #12]
 80042b2:	071b      	lsls	r3, r3, #28
 80042b4:	4925      	ldr	r1, [pc, #148]	@ (800434c <HAL_RCCEx_PeriphCLKConfig+0x65c>)
 80042b6:	4313      	orrs	r3, r2
 80042b8:	f8c1 3084 	str.w	r3, [r1, #132]	@ 0x84
    }

    /*----------------- In Case of PLLI2S is just selected  -----------------*/
    if((PeriphClkInit->PeriphClockSelection & RCC_PERIPHCLK_PLLI2S) == RCC_PERIPHCLK_PLLI2S)
 80042bc:	687b      	ldr	r3, [r7, #4]
 80042be:	681b      	ldr	r3, [r3, #0]
 80042c0:	f003 7300 	and.w	r3, r3, #33554432	@ 0x2000000
 80042c4:	2b00      	cmp	r3, #0
 80042c6:	d011      	beq.n	80042ec <HAL_RCCEx_PeriphCLKConfig+0x5fc>
      assert_param(IS_RCC_PLLI2SQ_VALUE(PeriphClkInit->PLLI2S.PLLI2SQ));

      /* Configure the PLLI2S division factors */
      /* PLLI2S_VCO = f(VCO clock) = f(PLLI2S clock input) x (PLLI2SN/PLLI2SM) */
      /* SPDIFRXCLK = f(PLLI2S clock output) = f(VCO clock) / PLLI2SP */
      __HAL_RCC_PLLI2S_CONFIG(PeriphClkInit->PLLI2S.PLLI2SN , PeriphClkInit->PLLI2S.PLLI2SP, PeriphClkInit->PLLI2S.PLLI2SQ, PeriphClkInit->PLLI2S.PLLI2SR);
 80042c8:	687b      	ldr	r3, [r7, #4]
 80042ca:	685b      	ldr	r3, [r3, #4]
 80042cc:	019a      	lsls	r2, r3, #6
 80042ce:	687b      	ldr	r3, [r7, #4]
 80042d0:	691b      	ldr	r3, [r3, #16]
 80042d2:	041b      	lsls	r3, r3, #16
 80042d4:	431a      	orrs	r2, r3
 80042d6:	687b      	ldr	r3, [r7, #4]
 80042d8:	68db      	ldr	r3, [r3, #12]
 80042da:	061b      	lsls	r3, r3, #24
 80042dc:	431a      	orrs	r2, r3
 80042de:	687b      	ldr	r3, [r7, #4]
 80042e0:	689b      	ldr	r3, [r3, #8]
 80042e2:	071b      	lsls	r3, r3, #28
 80042e4:	4919      	ldr	r1, [pc, #100]	@ (800434c <HAL_RCCEx_PeriphCLKConfig+0x65c>)
 80042e6:	4313      	orrs	r3, r2
 80042e8:	f8c1 3084 	str.w	r3, [r1, #132]	@ 0x84
    }

    /* Enable the PLLI2S */
    __HAL_RCC_PLLI2S_ENABLE();
 80042ec:	4b17      	ldr	r3, [pc, #92]	@ (800434c <HAL_RCCEx_PeriphCLKConfig+0x65c>)
 80042ee:	681b      	ldr	r3, [r3, #0]
 80042f0:	4a16      	ldr	r2, [pc, #88]	@ (800434c <HAL_RCCEx_PeriphCLKConfig+0x65c>)
 80042f2:	f043 6380 	orr.w	r3, r3, #67108864	@ 0x4000000
 80042f6:	6013      	str	r3, [r2, #0]

    /* Get Start Tick*/
    tickstart = HAL_GetTick();
 80042f8:	f7fd fda8 	bl	8001e4c <HAL_GetTick>
 80042fc:	6178      	str	r0, [r7, #20]

    /* Wait till PLLI2S is ready */
    while(__HAL_RCC_GET_FLAG(RCC_FLAG_PLLI2SRDY)  == RESET)
 80042fe:	e008      	b.n	8004312 <HAL_RCCEx_PeriphCLKConfig+0x622>
    {
      if((HAL_GetTick() - tickstart) > PLLI2S_TIMEOUT_VALUE)
 8004300:	f7fd fda4 	bl	8001e4c <HAL_GetTick>
 8004304:	4602      	mov	r2, r0
 8004306:	697b      	ldr	r3, [r7, #20]
 8004308:	1ad3      	subs	r3, r2, r3
 800430a:	2b64      	cmp	r3, #100	@ 0x64
 800430c:	d901      	bls.n	8004312 <HAL_RCCEx_PeriphCLKConfig+0x622>
      {
        /* return in case of Timeout detected */
        return HAL_TIMEOUT;
 800430e:	2303      	movs	r3, #3
 8004310:	e0d7      	b.n	80044c2 <HAL_RCCEx_PeriphCLKConfig+0x7d2>
    while(__HAL_RCC_GET_FLAG(RCC_FLAG_PLLI2SRDY)  == RESET)
 8004312:	4b0e      	ldr	r3, [pc, #56]	@ (800434c <HAL_RCCEx_PeriphCLKConfig+0x65c>)
 8004314:	681b      	ldr	r3, [r3, #0]
 8004316:	f003 6300 	and.w	r3, r3, #134217728	@ 0x8000000
 800431a:	2b00      	cmp	r3, #0
 800431c:	d0f0      	beq.n	8004300 <HAL_RCCEx_PeriphCLKConfig+0x610>
    }
  }

  /*-------------------------------------- PLLSAI Configuration ---------------------------------*/
  /* PLLSAI is configured when a peripheral will use it as source clock : SAI1, SAI2, LTDC or CK48 */
  if(pllsaiused == 1)
 800431e:	69bb      	ldr	r3, [r7, #24]
 8004320:	2b01      	cmp	r3, #1
 8004322:	f040 80cd 	bne.w	80044c0 <HAL_RCCEx_PeriphCLKConfig+0x7d0>
  {
    /* Disable PLLSAI Clock */
    __HAL_RCC_PLLSAI_DISABLE();
 8004326:	4b09      	ldr	r3, [pc, #36]	@ (800434c <HAL_RCCEx_PeriphCLKConfig+0x65c>)
 8004328:	681b      	ldr	r3, [r3, #0]
 800432a:	4a08      	ldr	r2, [pc, #32]	@ (800434c <HAL_RCCEx_PeriphCLKConfig+0x65c>)
 800432c:	f023 5380 	bic.w	r3, r3, #268435456	@ 0x10000000
 8004330:	6013      	str	r3, [r2, #0]

    /* Get Start Tick*/
    tickstart = HAL_GetTick();
 8004332:	f7fd fd8b 	bl	8001e4c <HAL_GetTick>
 8004336:	6178      	str	r0, [r7, #20]

    /* Wait till PLLSAI is disabled */
    while(__HAL_RCC_PLLSAI_GET_FLAG() != RESET)
 8004338:	e00a      	b.n	8004350 <HAL_RCCEx_PeriphCLKConfig+0x660>
    {
      if((HAL_GetTick() - tickstart) > PLLSAI_TIMEOUT_VALUE)
 800433a:	f7fd fd87 	bl	8001e4c <HAL_GetTick>
 800433e:	4602      	mov	r2, r0
 8004340:	697b      	ldr	r3, [r7, #20]
 8004342:	1ad3      	subs	r3, r2, r3
 8004344:	2b64      	cmp	r3, #100	@ 0x64
 8004346:	d903      	bls.n	8004350 <HAL_RCCEx_PeriphCLKConfig+0x660>
      {
        /* return in case of Timeout detected */
        return HAL_TIMEOUT;
 8004348:	2303      	movs	r3, #3
 800434a:	e0ba      	b.n	80044c2 <HAL_RCCEx_PeriphCLKConfig+0x7d2>
 800434c:	40023800 	.word	0x40023800
    while(__HAL_RCC_PLLSAI_GET_FLAG() != RESET)
 8004350:	4b5e      	ldr	r3, [pc, #376]	@ (80044cc <HAL_RCCEx_PeriphCLKConfig+0x7dc>)
 8004352:	681b      	ldr	r3, [r3, #0]
 8004354:	f003 5300 	and.w	r3, r3, #536870912	@ 0x20000000
 8004358:	f1b3 5f00 	cmp.w	r3, #536870912	@ 0x20000000
 800435c:	d0ed      	beq.n	800433a <HAL_RCCEx_PeriphCLKConfig+0x64a>

    /* Check the PLLSAI division factors */
    assert_param(IS_RCC_PLLSAIN_VALUE(PeriphClkInit->PLLSAI.PLLSAIN));

    /*----------------- In Case of PLLSAI is selected as source clock for SAI -------------------*/
    if(((((PeriphClkInit->PeriphClockSelection) & RCC_PERIPHCLK_SAI1) == RCC_PERIPHCLK_SAI1) && (PeriphClkInit->Sai1ClockSelection == RCC_SAI1CLKSOURCE_PLLSAI)) ||\
 800435e:	687b      	ldr	r3, [r7, #4]
 8004360:	681b      	ldr	r3, [r3, #0]
 8004362:	f403 2300 	and.w	r3, r3, #524288	@ 0x80000
 8004366:	2b00      	cmp	r3, #0
 8004368:	d003      	beq.n	8004372 <HAL_RCCEx_PeriphCLKConfig+0x682>
 800436a:	687b      	ldr	r3, [r7, #4]
 800436c:	6bdb      	ldr	r3, [r3, #60]	@ 0x3c
 800436e:	2b00      	cmp	r3, #0
 8004370:	d009      	beq.n	8004386 <HAL_RCCEx_PeriphCLKConfig+0x696>
       ((((PeriphClkInit->PeriphClockSelection) & RCC_PERIPHCLK_SAI2) == RCC_PERIPHCLK_SAI2) && (PeriphClkInit->Sai2ClockSelection == RCC_SAI2CLKSOURCE_PLLSAI)))
 8004372:	687b      	ldr	r3, [r7, #4]
 8004374:	681b      	ldr	r3, [r3, #0]
 8004376:	f403 1380 	and.w	r3, r3, #1048576	@ 0x100000
    if(((((PeriphClkInit->PeriphClockSelection) & RCC_PERIPHCLK_SAI1) == RCC_PERIPHCLK_SAI1) && (PeriphClkInit->Sai1ClockSelection == RCC_SAI1CLKSOURCE_PLLSAI)) ||\
 800437a:	2b00      	cmp	r3, #0
 800437c:	d02e      	beq.n	80043dc <HAL_RCCEx_PeriphCLKConfig+0x6ec>
       ((((PeriphClkInit->PeriphClockSelection) & RCC_PERIPHCLK_SAI2) == RCC_PERIPHCLK_SAI2) && (PeriphClkInit->Sai2ClockSelection == RCC_SAI2CLKSOURCE_PLLSAI)))
 800437e:	687b      	ldr	r3, [r7, #4]
 8004380:	6c1b      	ldr	r3, [r3, #64]	@ 0x40
 8004382:	2b00      	cmp	r3, #0
 8004384:	d12a      	bne.n	80043dc <HAL_RCCEx_PeriphCLKConfig+0x6ec>
      assert_param(IS_RCC_PLLSAIQ_VALUE(PeriphClkInit->PLLSAI.PLLSAIQ));
      /* check for PLLSAI/DIVQ Parameter */
      assert_param(IS_RCC_PLLSAI_DIVQ_VALUE(PeriphClkInit->PLLSAIDivQ));

      /* Read PLLSAIP value from PLLSAICFGR register (this value is not needed for SAI configuration) */
      tmpreg0 = ((RCC->PLLSAICFGR & RCC_PLLSAICFGR_PLLSAIP) >> RCC_PLLSAICFGR_PLLSAIP_Pos);
 8004386:	4b51      	ldr	r3, [pc, #324]	@ (80044cc <HAL_RCCEx_PeriphCLKConfig+0x7dc>)
 8004388:	f8d3 3088 	ldr.w	r3, [r3, #136]	@ 0x88
 800438c:	0c1b      	lsrs	r3, r3, #16
 800438e:	f003 0303 	and.w	r3, r3, #3
 8004392:	613b      	str	r3, [r7, #16]
      tmpreg1 = ((RCC->PLLSAICFGR & RCC_PLLI2SCFGR_PLLI2SR) >> RCC_PLLSAICFGR_PLLSAIR_Pos);
 8004394:	4b4d      	ldr	r3, [pc, #308]	@ (80044cc <HAL_RCCEx_PeriphCLKConfig+0x7dc>)
 8004396:	f8d3 3088 	ldr.w	r3, [r3, #136]	@ 0x88
 800439a:	0f1b      	lsrs	r3, r3, #28
 800439c:	f003 0307 	and.w	r3, r3, #7
 80043a0:	60fb      	str	r3, [r7, #12]
      /* PLLSAI_VCO Input  = PLL_SOURCE/PLLM */
      /* PLLSAI_VCO Output = PLLSAI_VCO Input * PLLSAIN */
      /* SAI_CLK(first level) = PLLSAI_VCO Output/PLLSAIQ */
      __HAL_RCC_PLLSAI_CONFIG(PeriphClkInit->PLLSAI.PLLSAIN , tmpreg0, PeriphClkInit->PLLSAI.PLLSAIQ, tmpreg1);
 80043a2:	687b      	ldr	r3, [r7, #4]
 80043a4:	695b      	ldr	r3, [r3, #20]
 80043a6:	019a      	lsls	r2, r3, #6
 80043a8:	693b      	ldr	r3, [r7, #16]
 80043aa:	041b      	lsls	r3, r3, #16
 80043ac:	431a      	orrs	r2, r3
 80043ae:	687b      	ldr	r3, [r7, #4]
 80043b0:	699b      	ldr	r3, [r3, #24]
 80043b2:	061b      	lsls	r3, r3, #24
 80043b4:	431a      	orrs	r2, r3
 80043b6:	68fb      	ldr	r3, [r7, #12]
 80043b8:	071b      	lsls	r3, r3, #28
 80043ba:	4944      	ldr	r1, [pc, #272]	@ (80044cc <HAL_RCCEx_PeriphCLKConfig+0x7dc>)
 80043bc:	4313      	orrs	r3, r2
 80043be:	f8c1 3088 	str.w	r3, [r1, #136]	@ 0x88

      /* SAI_CLK_x = SAI_CLK(first level)/PLLSAIDIVQ */
      __HAL_RCC_PLLSAI_PLLSAICLKDIVQ_CONFIG(PeriphClkInit->PLLSAIDivQ);
 80043c2:	4b42      	ldr	r3, [pc, #264]	@ (80044cc <HAL_RCCEx_PeriphCLKConfig+0x7dc>)
 80043c4:	f8d3 308c 	ldr.w	r3, [r3, #140]	@ 0x8c
 80043c8:	f423 52f8 	bic.w	r2, r3, #7936	@ 0x1f00
 80043cc:	687b      	ldr	r3, [r7, #4]
 80043ce:	6a9b      	ldr	r3, [r3, #40]	@ 0x28
 80043d0:	3b01      	subs	r3, #1
 80043d2:	021b      	lsls	r3, r3, #8
 80043d4:	493d      	ldr	r1, [pc, #244]	@ (80044cc <HAL_RCCEx_PeriphCLKConfig+0x7dc>)
 80043d6:	4313      	orrs	r3, r2
 80043d8:	f8c1 308c 	str.w	r3, [r1, #140]	@ 0x8c
    }

    /*----------------- In Case of PLLSAI is selected as source clock for CLK48 -------------------*/
    /* In Case of PLLI2S is selected as source clock for CK48 */
    if((((PeriphClkInit->PeriphClockSelection) & RCC_PERIPHCLK_CLK48) == RCC_PERIPHCLK_CLK48) && (PeriphClkInit->Clk48ClockSelection == RCC_CLK48SOURCE_PLLSAIP))
 80043dc:	687b      	ldr	r3, [r7, #4]
 80043de:	681b      	ldr	r3, [r3, #0]
 80043e0:	f403 1300 	and.w	r3, r3, #2097152	@ 0x200000
 80043e4:	2b00      	cmp	r3, #0
 80043e6:	d022      	beq.n	800442e <HAL_RCCEx_PeriphCLKConfig+0x73e>
 80043e8:	687b      	ldr	r3, [r7, #4]
 80043ea:	6fdb      	ldr	r3, [r3, #124]	@ 0x7c
 80043ec:	f1b3 6f00 	cmp.w	r3, #134217728	@ 0x8000000
 80043f0:	d11d      	bne.n	800442e <HAL_RCCEx_PeriphCLKConfig+0x73e>
    {
      /* check for Parameters */
      assert_param(IS_RCC_PLLSAIP_VALUE(PeriphClkInit->PLLSAI.PLLSAIP));
      /* Read PLLSAIQ and PLLSAIR value from PLLSAICFGR register (this value is not needed for CK48 configuration) */
      tmpreg0 = ((RCC->PLLSAICFGR & RCC_PLLSAICFGR_PLLSAIQ) >> RCC_PLLSAICFGR_PLLSAIQ_Pos);
 80043f2:	4b36      	ldr	r3, [pc, #216]	@ (80044cc <HAL_RCCEx_PeriphCLKConfig+0x7dc>)
 80043f4:	f8d3 3088 	ldr.w	r3, [r3, #136]	@ 0x88
 80043f8:	0e1b      	lsrs	r3, r3, #24
 80043fa:	f003 030f 	and.w	r3, r3, #15
 80043fe:	613b      	str	r3, [r7, #16]
      tmpreg1 = ((RCC->PLLSAICFGR & RCC_PLLSAICFGR_PLLSAIR) >> RCC_PLLSAICFGR_PLLSAIR_Pos);
 8004400:	4b32      	ldr	r3, [pc, #200]	@ (80044cc <HAL_RCCEx_PeriphCLKConfig+0x7dc>)
 8004402:	f8d3 3088 	ldr.w	r3, [r3, #136]	@ 0x88
 8004406:	0f1b      	lsrs	r3, r3, #28
 8004408:	f003 0307 	and.w	r3, r3, #7
 800440c:	60fb      	str	r3, [r7, #12]

      /* Configure the PLLSAI division factors */
      /* PLLSAI_VCO = f(VCO clock) = f(PLLSAI clock input) x (PLLI2SN/PLLM) */
      /* 48CLK = f(PLLSAI clock output) = f(VCO clock) / PLLSAIP */
      __HAL_RCC_PLLSAI_CONFIG(PeriphClkInit->PLLSAI.PLLSAIN , PeriphClkInit->PLLSAI.PLLSAIP, tmpreg0, tmpreg1);
 800440e:	687b      	ldr	r3, [r7, #4]
 8004410:	695b      	ldr	r3, [r3, #20]
 8004412:	019a      	lsls	r2, r3, #6
 8004414:	687b      	ldr	r3, [r7, #4]
 8004416:	6a1b      	ldr	r3, [r3, #32]
 8004418:	041b      	lsls	r3, r3, #16
 800441a:	431a      	orrs	r2, r3
 800441c:	693b      	ldr	r3, [r7, #16]
 800441e:	061b      	lsls	r3, r3, #24
 8004420:	431a      	orrs	r2, r3
 8004422:	68fb      	ldr	r3, [r7, #12]
 8004424:	071b      	lsls	r3, r3, #28
 8004426:	4929      	ldr	r1, [pc, #164]	@ (80044cc <HAL_RCCEx_PeriphCLKConfig+0x7dc>)
 8004428:	4313      	orrs	r3, r2
 800442a:	f8c1 3088 	str.w	r3, [r1, #136]	@ 0x88
    }

#if defined(STM32F746xx) || defined(STM32F756xx) || defined (STM32F767xx) || defined (STM32F769xx) || defined (STM32F777xx) || defined (STM32F779xx) || defined (STM32F750xx)
    /*---------------------------- LTDC configuration -------------------------------*/
    if(((PeriphClkInit->PeriphClockSelection) & RCC_PERIPHCLK_LTDC) == (RCC_PERIPHCLK_LTDC))
 800442e:	687b      	ldr	r3, [r7, #4]
 8004430:	681b      	ldr	r3, [r3, #0]
 8004432:	f003 0308 	and.w	r3, r3, #8
 8004436:	2b00      	cmp	r3, #0
 8004438:	d028      	beq.n	800448c <HAL_RCCEx_PeriphCLKConfig+0x79c>
    {
      assert_param(IS_RCC_PLLSAIR_VALUE(PeriphClkInit->PLLSAI.PLLSAIR));
      assert_param(IS_RCC_PLLSAI_DIVR_VALUE(PeriphClkInit->PLLSAIDivR));

      /* Read PLLSAIP and PLLSAIQ value from PLLSAICFGR register (these value are not needed for LTDC configuration) */
      tmpreg0 = ((RCC->PLLSAICFGR & RCC_PLLSAICFGR_PLLSAIQ) >> RCC_PLLSAICFGR_PLLSAIQ_Pos);
 800443a:	4b24      	ldr	r3, [pc, #144]	@ (80044cc <HAL_RCCEx_PeriphCLKConfig+0x7dc>)
 800443c:	f8d3 3088 	ldr.w	r3, [r3, #136]	@ 0x88
 8004440:	0e1b      	lsrs	r3, r3, #24
 8004442:	f003 030f 	and.w	r3, r3, #15
 8004446:	613b      	str	r3, [r7, #16]
      tmpreg1 = ((RCC->PLLSAICFGR & RCC_PLLSAICFGR_PLLSAIP) >> RCC_PLLSAICFGR_PLLSAIP_Pos);
 8004448:	4b20      	ldr	r3, [pc, #128]	@ (80044cc <HAL_RCCEx_PeriphCLKConfig+0x7dc>)
 800444a:	f8d3 3088 	ldr.w	r3, [r3, #136]	@ 0x88
 800444e:	0c1b      	lsrs	r3, r3, #16
 8004450:	f003 0303 	and.w	r3, r3, #3
 8004454:	60fb      	str	r3, [r7, #12]

      /* PLLSAI_VCO Input  = PLL_SOURCE/PLLM */
      /* PLLSAI_VCO Output = PLLSAI_VCO Input * PLLSAIN */
      /* LTDC_CLK(first level) = PLLSAI_VCO Output/PLLSAIR */
      __HAL_RCC_PLLSAI_CONFIG(PeriphClkInit->PLLSAI.PLLSAIN , tmpreg1, tmpreg0, PeriphClkInit->PLLSAI.PLLSAIR);
 8004456:	687b      	ldr	r3, [r7, #4]
 8004458:	695b      	ldr	r3, [r3, #20]
 800445a:	019a      	lsls	r2, r3, #6
 800445c:	68fb      	ldr	r3, [r7, #12]
 800445e:	041b      	lsls	r3, r3, #16
 8004460:	431a      	orrs	r2, r3
 8004462:	693b      	ldr	r3, [r7, #16]
 8004464:	061b      	lsls	r3, r3, #24
 8004466:	431a      	orrs	r2, r3
 8004468:	687b      	ldr	r3, [r7, #4]
 800446a:	69db      	ldr	r3, [r3, #28]
 800446c:	071b      	lsls	r3, r3, #28
 800446e:	4917      	ldr	r1, [pc, #92]	@ (80044cc <HAL_RCCEx_PeriphCLKConfig+0x7dc>)
 8004470:	4313      	orrs	r3, r2
 8004472:	f8c1 3088 	str.w	r3, [r1, #136]	@ 0x88

      /* LTDC_CLK = LTDC_CLK(first level)/PLLSAIDIVR */
      __HAL_RCC_PLLSAI_PLLSAICLKDIVR_CONFIG(PeriphClkInit->PLLSAIDivR);
 8004476:	4b15      	ldr	r3, [pc, #84]	@ (80044cc <HAL_RCCEx_PeriphCLKConfig+0x7dc>)
 8004478:	f8d3 308c 	ldr.w	r3, [r3, #140]	@ 0x8c
 800447c:	f423 3240 	bic.w	r2, r3, #196608	@ 0x30000
 8004480:	687b      	ldr	r3, [r7, #4]
 8004482:	6adb      	ldr	r3, [r3, #44]	@ 0x2c
 8004484:	4911      	ldr	r1, [pc, #68]	@ (80044cc <HAL_RCCEx_PeriphCLKConfig+0x7dc>)
 8004486:	4313      	orrs	r3, r2
 8004488:	f8c1 308c 	str.w	r3, [r1, #140]	@ 0x8c
    }
#endif /* STM32F746xx || STM32F756xx || STM32F767xx || STM32F769xx || STM32F777xx || STM32F779xx || STM32F750xx  */

    /* Enable PLLSAI Clock */
    __HAL_RCC_PLLSAI_ENABLE();
 800448c:	4b0f      	ldr	r3, [pc, #60]	@ (80044cc <HAL_RCCEx_PeriphCLKConfig+0x7dc>)
 800448e:	681b      	ldr	r3, [r3, #0]
 8004490:	4a0e      	ldr	r2, [pc, #56]	@ (80044cc <HAL_RCCEx_PeriphCLKConfig+0x7dc>)
 8004492:	f043 5380 	orr.w	r3, r3, #268435456	@ 0x10000000
 8004496:	6013      	str	r3, [r2, #0]

    /* Get Start Tick*/
    tickstart = HAL_GetTick();
 8004498:	f7fd fcd8 	bl	8001e4c <HAL_GetTick>
 800449c:	6178      	str	r0, [r7, #20]

    /* Wait till PLLSAI is ready */
    while(__HAL_RCC_PLLSAI_GET_FLAG() == RESET)
 800449e:	e008      	b.n	80044b2 <HAL_RCCEx_PeriphCLKConfig+0x7c2>
    {
      if((HAL_GetTick() - tickstart) > PLLSAI_TIMEOUT_VALUE)
 80044a0:	f7fd fcd4 	bl	8001e4c <HAL_GetTick>
 80044a4:	4602      	mov	r2, r0
 80044a6:	697b      	ldr	r3, [r7, #20]
 80044a8:	1ad3      	subs	r3, r2, r3
 80044aa:	2b64      	cmp	r3, #100	@ 0x64
 80044ac:	d901      	bls.n	80044b2 <HAL_RCCEx_PeriphCLKConfig+0x7c2>
      {
        /* return in case of Timeout detected */
        return HAL_TIMEOUT;
 80044ae:	2303      	movs	r3, #3
 80044b0:	e007      	b.n	80044c2 <HAL_RCCEx_PeriphCLKConfig+0x7d2>
    while(__HAL_RCC_PLLSAI_GET_FLAG() == RESET)
 80044b2:	4b06      	ldr	r3, [pc, #24]	@ (80044cc <HAL_RCCEx_PeriphCLKConfig+0x7dc>)
 80044b4:	681b      	ldr	r3, [r3, #0]
 80044b6:	f003 5300 	and.w	r3, r3, #536870912	@ 0x20000000
 80044ba:	f1b3 5f00 	cmp.w	r3, #536870912	@ 0x20000000
 80044be:	d1ef      	bne.n	80044a0 <HAL_RCCEx_PeriphCLKConfig+0x7b0>
      }
    }
  }
  return HAL_OK;
 80044c0:	2300      	movs	r3, #0
}
 80044c2:	4618      	mov	r0, r3
 80044c4:	3720      	adds	r7, #32
 80044c6:	46bd      	mov	sp, r7
 80044c8:	bd80      	pop	{r7, pc}
 80044ca:	bf00      	nop
 80044cc:	40023800 	.word	0x40023800

080044d0 <HAL_UART_Init>:
  *        parameters in the UART_InitTypeDef and initialize the associated handle.
  * @param huart UART handle.
  * @retval HAL status
  */
HAL_StatusTypeDef HAL_UART_Init(UART_HandleTypeDef *huart)
{
 80044d0:	b580      	push	{r7, lr}
 80044d2:	b082      	sub	sp, #8
 80044d4:	af00      	add	r7, sp, #0
 80044d6:	6078      	str	r0, [r7, #4]
  /* Check the UART handle allocation */
  if (huart == NULL)
 80044d8:	687b      	ldr	r3, [r7, #4]
 80044da:	2b00      	cmp	r3, #0
 80044dc:	d101      	bne.n	80044e2 <HAL_UART_Init+0x12>
  {
    return HAL_ERROR;
 80044de:	2301      	movs	r3, #1
 80044e0:	e040      	b.n	8004564 <HAL_UART_Init+0x94>
  {
    /* Check the parameters */
    assert_param(IS_UART_INSTANCE(huart->Instance));
  }

  if (huart->gState == HAL_UART_STATE_RESET)
 80044e2:	687b      	ldr	r3, [r7, #4]
 80044e4:	6fdb      	ldr	r3, [r3, #124]	@ 0x7c
 80044e6:	2b00      	cmp	r3, #0
 80044e8:	d106      	bne.n	80044f8 <HAL_UART_Init+0x28>
  {
    /* Allocate lock resource and initialize it */
    huart->Lock = HAL_UNLOCKED;
 80044ea:	687b      	ldr	r3, [r7, #4]
 80044ec:	2200      	movs	r2, #0
 80044ee:	f883 2078 	strb.w	r2, [r3, #120]	@ 0x78

    /* Init the low level hardware */
    huart->MspInitCallback(huart);
#else
    /* Init the low level hardware : GPIO, CLOCK */
    HAL_UART_MspInit(huart);
 80044f2:	6878      	ldr	r0, [r7, #4]
 80044f4:	f7fd fb3e 	bl	8001b74 <HAL_UART_MspInit>
#endif /* (USE_HAL_UART_REGISTER_CALLBACKS) */
  }

  huart->gState = HAL_UART_STATE_BUSY;
 80044f8:	687b      	ldr	r3, [r7, #4]
 80044fa:	2224      	movs	r2, #36	@ 0x24
 80044fc:	67da      	str	r2, [r3, #124]	@ 0x7c

  __HAL_UART_DISABLE(huart);
 80044fe:	687b      	ldr	r3, [r7, #4]
 8004500:	681b      	ldr	r3, [r3, #0]
 8004502:	681a      	ldr	r2, [r3, #0]
 8004504:	687b      	ldr	r3, [r7, #4]
 8004506:	681b      	ldr	r3, [r3, #0]
 8004508:	f022 0201 	bic.w	r2, r2, #1
 800450c:	601a      	str	r2, [r3, #0]

  /* Perform advanced settings configuration */
  /* For some items, configuration requires to be done prior TE and RE bits are set */
  if (huart->AdvancedInit.AdvFeatureInit != UART_ADVFEATURE_NO_INIT)
 800450e:	687b      	ldr	r3, [r7, #4]
 8004510:	6a5b      	ldr	r3, [r3, #36]	@ 0x24
 8004512:	2b00      	cmp	r3, #0
 8004514:	d002      	beq.n	800451c <HAL_UART_Init+0x4c>
  {
    UART_AdvFeatureConfig(huart);
 8004516:	6878      	ldr	r0, [r7, #4]
 8004518:	f000 fe66 	bl	80051e8 <UART_AdvFeatureConfig>
  }

  /* Set the UART Communication parameters */
  if (UART_SetConfig(huart) == HAL_ERROR)
 800451c:	6878      	ldr	r0, [r7, #4]
 800451e:	f000 fbff 	bl	8004d20 <UART_SetConfig>
 8004522:	4603      	mov	r3, r0
 8004524:	2b01      	cmp	r3, #1
 8004526:	d101      	bne.n	800452c <HAL_UART_Init+0x5c>
  {
    return HAL_ERROR;
 8004528:	2301      	movs	r3, #1
 800452a:	e01b      	b.n	8004564 <HAL_UART_Init+0x94>
  }

  /* In asynchronous mode, the following bits must be kept cleared:
  - LINEN and CLKEN bits in the USART_CR2 register,
  - SCEN, HDSEL and IREN  bits in the USART_CR3 register.*/
  CLEAR_BIT(huart->Instance->CR2, (USART_CR2_LINEN | USART_CR2_CLKEN));
 800452c:	687b      	ldr	r3, [r7, #4]
 800452e:	681b      	ldr	r3, [r3, #0]
 8004530:	685a      	ldr	r2, [r3, #4]
 8004532:	687b      	ldr	r3, [r7, #4]
 8004534:	681b      	ldr	r3, [r3, #0]
 8004536:	f422 4290 	bic.w	r2, r2, #18432	@ 0x4800
 800453a:	605a      	str	r2, [r3, #4]
  CLEAR_BIT(huart->Instance->CR3, (USART_CR3_SCEN | USART_CR3_HDSEL | USART_CR3_IREN));
 800453c:	687b      	ldr	r3, [r7, #4]
 800453e:	681b      	ldr	r3, [r3, #0]
 8004540:	689a      	ldr	r2, [r3, #8]
 8004542:	687b      	ldr	r3, [r7, #4]
 8004544:	681b      	ldr	r3, [r3, #0]
 8004546:	f022 022a 	bic.w	r2, r2, #42	@ 0x2a
 800454a:	609a      	str	r2, [r3, #8]

  __HAL_UART_ENABLE(huart);
 800454c:	687b      	ldr	r3, [r7, #4]
 800454e:	681b      	ldr	r3, [r3, #0]
 8004550:	681a      	ldr	r2, [r3, #0]
 8004552:	687b      	ldr	r3, [r7, #4]
 8004554:	681b      	ldr	r3, [r3, #0]
 8004556:	f042 0201 	orr.w	r2, r2, #1
 800455a:	601a      	str	r2, [r3, #0]

  /* TEACK and/or REACK to check before moving huart->gState and huart->RxState to Ready */
  return (UART_CheckIdleState(huart));
 800455c:	6878      	ldr	r0, [r7, #4]
 800455e:	f000 fee5 	bl	800532c <UART_CheckIdleState>
 8004562:	4603      	mov	r3, r0
}
 8004564:	4618      	mov	r0, r3
 8004566:	3708      	adds	r7, #8
 8004568:	46bd      	mov	sp, r7
 800456a:	bd80      	pop	{r7, pc}

0800456c <HAL_UART_Transmit>:
  * @param Size    Amount of data elements (u8 or u16) to be sent.
  * @param Timeout Timeout duration.
  * @retval HAL status
  */
HAL_StatusTypeDef HAL_UART_Transmit(UART_HandleTypeDef *huart, const uint8_t *pData, uint16_t Size, uint32_t Timeout)
{
 800456c:	b580      	push	{r7, lr}
 800456e:	b08a      	sub	sp, #40	@ 0x28
 8004570:	af02      	add	r7, sp, #8
 8004572:	60f8      	str	r0, [r7, #12]
 8004574:	60b9      	str	r1, [r7, #8]
 8004576:	603b      	str	r3, [r7, #0]
 8004578:	4613      	mov	r3, r2
 800457a:	80fb      	strh	r3, [r7, #6]
  const uint8_t  *pdata8bits;
  const uint16_t *pdata16bits;
  uint32_t tickstart;

  /* Check that a Tx process is not already ongoing */
  if (huart->gState == HAL_UART_STATE_READY)
 800457c:	68fb      	ldr	r3, [r7, #12]
 800457e:	6fdb      	ldr	r3, [r3, #124]	@ 0x7c
 8004580:	2b20      	cmp	r3, #32
 8004582:	d177      	bne.n	8004674 <HAL_UART_Transmit+0x108>
  {
    if ((pData == NULL) || (Size == 0U))
 8004584:	68bb      	ldr	r3, [r7, #8]
 8004586:	2b00      	cmp	r3, #0
 8004588:	d002      	beq.n	8004590 <HAL_UART_Transmit+0x24>
 800458a:	88fb      	ldrh	r3, [r7, #6]
 800458c:	2b00      	cmp	r3, #0
 800458e:	d101      	bne.n	8004594 <HAL_UART_Transmit+0x28>
    {
      return  HAL_ERROR;
 8004590:	2301      	movs	r3, #1
 8004592:	e070      	b.n	8004676 <HAL_UART_Transmit+0x10a>
    }

    huart->ErrorCode = HAL_UART_ERROR_NONE;
 8004594:	68fb      	ldr	r3, [r7, #12]
 8004596:	2200      	movs	r2, #0
 8004598:	f8c3 2084 	str.w	r2, [r3, #132]	@ 0x84
    huart->gState = HAL_UART_STATE_BUSY_TX;
 800459c:	68fb      	ldr	r3, [r7, #12]
 800459e:	2221      	movs	r2, #33	@ 0x21
 80045a0:	67da      	str	r2, [r3, #124]	@ 0x7c

    /* Init tickstart for timeout management */
    tickstart = HAL_GetTick();
 80045a2:	f7fd fc53 	bl	8001e4c <HAL_GetTick>
 80045a6:	6178      	str	r0, [r7, #20]

    huart->TxXferSize  = Size;
 80045a8:	68fb      	ldr	r3, [r7, #12]
 80045aa:	88fa      	ldrh	r2, [r7, #6]
 80045ac:	f8a3 2050 	strh.w	r2, [r3, #80]	@ 0x50
    huart->TxXferCount = Size;
 80045b0:	68fb      	ldr	r3, [r7, #12]
 80045b2:	88fa      	ldrh	r2, [r7, #6]
 80045b4:	f8a3 2052 	strh.w	r2, [r3, #82]	@ 0x52

    /* In case of 9bits/No Parity transfer, pData needs to be handled as a uint16_t pointer */
    if ((huart->Init.WordLength == UART_WORDLENGTH_9B) && (huart->Init.Parity == UART_PARITY_NONE))
 80045b8:	68fb      	ldr	r3, [r7, #12]
 80045ba:	689b      	ldr	r3, [r3, #8]
 80045bc:	f5b3 5f80 	cmp.w	r3, #4096	@ 0x1000
 80045c0:	d108      	bne.n	80045d4 <HAL_UART_Transmit+0x68>
 80045c2:	68fb      	ldr	r3, [r7, #12]
 80045c4:	691b      	ldr	r3, [r3, #16]
 80045c6:	2b00      	cmp	r3, #0
 80045c8:	d104      	bne.n	80045d4 <HAL_UART_Transmit+0x68>
    {
      pdata8bits  = NULL;
 80045ca:	2300      	movs	r3, #0
 80045cc:	61fb      	str	r3, [r7, #28]
      pdata16bits = (const uint16_t *) pData;
 80045ce:	68bb      	ldr	r3, [r7, #8]
 80045d0:	61bb      	str	r3, [r7, #24]
 80045d2:	e003      	b.n	80045dc <HAL_UART_Transmit+0x70>
    }
    else
    {
      pdata8bits  = pData;
 80045d4:	68bb      	ldr	r3, [r7, #8]
 80045d6:	61fb      	str	r3, [r7, #28]
      pdata16bits = NULL;
 80045d8:	2300      	movs	r3, #0
 80045da:	61bb      	str	r3, [r7, #24]
    }

    while (huart->TxXferCount > 0U)
 80045dc:	e02f      	b.n	800463e <HAL_UART_Transmit+0xd2>
    {
      if (UART_WaitOnFlagUntilTimeout(huart, UART_FLAG_TXE, RESET, tickstart, Timeout) != HAL_OK)
 80045de:	683b      	ldr	r3, [r7, #0]
 80045e0:	9300      	str	r3, [sp, #0]
 80045e2:	697b      	ldr	r3, [r7, #20]
 80045e4:	2200      	movs	r2, #0
 80045e6:	2180      	movs	r1, #128	@ 0x80
 80045e8:	68f8      	ldr	r0, [r7, #12]
 80045ea:	f000 fef6 	bl	80053da <UART_WaitOnFlagUntilTimeout>
 80045ee:	4603      	mov	r3, r0
 80045f0:	2b00      	cmp	r3, #0
 80045f2:	d004      	beq.n	80045fe <HAL_UART_Transmit+0x92>
      {

        huart->gState = HAL_UART_STATE_READY;
 80045f4:	68fb      	ldr	r3, [r7, #12]
 80045f6:	2220      	movs	r2, #32
 80045f8:	67da      	str	r2, [r3, #124]	@ 0x7c

        return HAL_TIMEOUT;
 80045fa:	2303      	movs	r3, #3
 80045fc:	e03b      	b.n	8004676 <HAL_UART_Transmit+0x10a>
      }
      if (pdata8bits == NULL)
 80045fe:	69fb      	ldr	r3, [r7, #28]
 8004600:	2b00      	cmp	r3, #0
 8004602:	d10b      	bne.n	800461c <HAL_UART_Transmit+0xb0>
      {
        huart->Instance->TDR = (uint16_t)(*pdata16bits & 0x01FFU);
 8004604:	69bb      	ldr	r3, [r7, #24]
 8004606:	881b      	ldrh	r3, [r3, #0]
 8004608:	461a      	mov	r2, r3
 800460a:	68fb      	ldr	r3, [r7, #12]
 800460c:	681b      	ldr	r3, [r3, #0]
 800460e:	f3c2 0208 	ubfx	r2, r2, #0, #9
 8004612:	629a      	str	r2, [r3, #40]	@ 0x28
        pdata16bits++;
 8004614:	69bb      	ldr	r3, [r7, #24]
 8004616:	3302      	adds	r3, #2
 8004618:	61bb      	str	r3, [r7, #24]
 800461a:	e007      	b.n	800462c <HAL_UART_Transmit+0xc0>
      }
      else
      {
        huart->Instance->TDR = (uint8_t)(*pdata8bits & 0xFFU);
 800461c:	69fb      	ldr	r3, [r7, #28]
 800461e:	781a      	ldrb	r2, [r3, #0]
 8004620:	68fb      	ldr	r3, [r7, #12]
 8004622:	681b      	ldr	r3, [r3, #0]
 8004624:	629a      	str	r2, [r3, #40]	@ 0x28
        pdata8bits++;
 8004626:	69fb      	ldr	r3, [r7, #28]
 8004628:	3301      	adds	r3, #1
 800462a:	61fb      	str	r3, [r7, #28]
      }
      huart->TxXferCount--;
 800462c:	68fb      	ldr	r3, [r7, #12]
 800462e:	f8b3 3052 	ldrh.w	r3, [r3, #82]	@ 0x52
 8004632:	b29b      	uxth	r3, r3
 8004634:	3b01      	subs	r3, #1
 8004636:	b29a      	uxth	r2, r3
 8004638:	68fb      	ldr	r3, [r7, #12]
 800463a:	f8a3 2052 	strh.w	r2, [r3, #82]	@ 0x52
    while (huart->TxXferCount > 0U)
 800463e:	68fb      	ldr	r3, [r7, #12]
 8004640:	f8b3 3052 	ldrh.w	r3, [r3, #82]	@ 0x52
 8004644:	b29b      	uxth	r3, r3
 8004646:	2b00      	cmp	r3, #0
 8004648:	d1c9      	bne.n	80045de <HAL_UART_Transmit+0x72>
    }

    if (UART_WaitOnFlagUntilTimeout(huart, UART_FLAG_TC, RESET, tickstart, Timeout) != HAL_OK)
 800464a:	683b      	ldr	r3, [r7, #0]
 800464c:	9300      	str	r3, [sp, #0]
 800464e:	697b      	ldr	r3, [r7, #20]
 8004650:	2200      	movs	r2, #0
 8004652:	2140      	movs	r1, #64	@ 0x40
 8004654:	68f8      	ldr	r0, [r7, #12]
 8004656:	f000 fec0 	bl	80053da <UART_WaitOnFlagUntilTimeout>
 800465a:	4603      	mov	r3, r0
 800465c:	2b00      	cmp	r3, #0
 800465e:	d004      	beq.n	800466a <HAL_UART_Transmit+0xfe>
    {
      huart->gState = HAL_UART_STATE_READY;
 8004660:	68fb      	ldr	r3, [r7, #12]
 8004662:	2220      	movs	r2, #32
 8004664:	67da      	str	r2, [r3, #124]	@ 0x7c

      return HAL_TIMEOUT;
 8004666:	2303      	movs	r3, #3
 8004668:	e005      	b.n	8004676 <HAL_UART_Transmit+0x10a>
    }

    /* At end of Tx process, restore huart->gState to Ready */
    huart->gState = HAL_UART_STATE_READY;
 800466a:	68fb      	ldr	r3, [r7, #12]
 800466c:	2220      	movs	r2, #32
 800466e:	67da      	str	r2, [r3, #124]	@ 0x7c

    return HAL_OK;
 8004670:	2300      	movs	r3, #0
 8004672:	e000      	b.n	8004676 <HAL_UART_Transmit+0x10a>
  }
  else
  {
    return HAL_BUSY;
 8004674:	2302      	movs	r3, #2
  }
}
 8004676:	4618      	mov	r0, r3
 8004678:	3720      	adds	r7, #32
 800467a:	46bd      	mov	sp, r7
 800467c:	bd80      	pop	{r7, pc}

0800467e <HAL_UART_Receive_IT>:
  * @param pData Pointer to data buffer (u8 or u16 data elements).
  * @param Size  Amount of data elements (u8 or u16) to be received.
  * @retval HAL status
  */
HAL_StatusTypeDef HAL_UART_Receive_IT(UART_HandleTypeDef *huart, uint8_t *pData, uint16_t Size)
{
 800467e:	b580      	push	{r7, lr}
 8004680:	b08a      	sub	sp, #40	@ 0x28
 8004682:	af00      	add	r7, sp, #0
 8004684:	60f8      	str	r0, [r7, #12]
 8004686:	60b9      	str	r1, [r7, #8]
 8004688:	4613      	mov	r3, r2
 800468a:	80fb      	strh	r3, [r7, #6]
  /* Check that a Rx process is not already ongoing */
  if (huart->RxState == HAL_UART_STATE_READY)
 800468c:	68fb      	ldr	r3, [r7, #12]
 800468e:	f8d3 3080 	ldr.w	r3, [r3, #128]	@ 0x80
 8004692:	2b20      	cmp	r3, #32
 8004694:	d132      	bne.n	80046fc <HAL_UART_Receive_IT+0x7e>
  {
    if ((pData == NULL) || (Size == 0U))
 8004696:	68bb      	ldr	r3, [r7, #8]
 8004698:	2b00      	cmp	r3, #0
 800469a:	d002      	beq.n	80046a2 <HAL_UART_Receive_IT+0x24>
 800469c:	88fb      	ldrh	r3, [r7, #6]
 800469e:	2b00      	cmp	r3, #0
 80046a0:	d101      	bne.n	80046a6 <HAL_UART_Receive_IT+0x28>
    {
      return HAL_ERROR;
 80046a2:	2301      	movs	r3, #1
 80046a4:	e02b      	b.n	80046fe <HAL_UART_Receive_IT+0x80>
    }

    /* Set Reception type to Standard reception */
    huart->ReceptionType = HAL_UART_RECEPTION_STANDARD;
 80046a6:	68fb      	ldr	r3, [r7, #12]
 80046a8:	2200      	movs	r2, #0
 80046aa:	661a      	str	r2, [r3, #96]	@ 0x60

    /* Check that USART RTOEN bit is set */
    if (READ_BIT(huart->Instance->CR2, USART_CR2_RTOEN) != 0U)
 80046ac:	68fb      	ldr	r3, [r7, #12]
 80046ae:	681b      	ldr	r3, [r3, #0]
 80046b0:	685b      	ldr	r3, [r3, #4]
 80046b2:	f403 0300 	and.w	r3, r3, #8388608	@ 0x800000
 80046b6:	2b00      	cmp	r3, #0
 80046b8:	d018      	beq.n	80046ec <HAL_UART_Receive_IT+0x6e>
    {
      /* Enable the UART Receiver Timeout Interrupt */
      ATOMIC_SET_BIT(huart->Instance->CR1, USART_CR1_RTOIE);
 80046ba:	68fb      	ldr	r3, [r7, #12]
 80046bc:	681b      	ldr	r3, [r3, #0]
 80046be:	617b      	str	r3, [r7, #20]
 */
__STATIC_FORCEINLINE uint32_t __LDREXW(volatile uint32_t *addr)
{
    uint32_t result;

   __ASM volatile ("ldrex %0, %1" : "=r" (result) : "Q" (*addr) );
 80046c0:	697b      	ldr	r3, [r7, #20]
 80046c2:	e853 3f00 	ldrex	r3, [r3]
 80046c6:	613b      	str	r3, [r7, #16]
   return(result);
 80046c8:	693b      	ldr	r3, [r7, #16]
 80046ca:	f043 6380 	orr.w	r3, r3, #67108864	@ 0x4000000
 80046ce:	627b      	str	r3, [r7, #36]	@ 0x24
 80046d0:	68fb      	ldr	r3, [r7, #12]
 80046d2:	681b      	ldr	r3, [r3, #0]
 80046d4:	461a      	mov	r2, r3
 80046d6:	6a7b      	ldr	r3, [r7, #36]	@ 0x24
 80046d8:	623b      	str	r3, [r7, #32]
 80046da:	61fa      	str	r2, [r7, #28]
 */
__STATIC_FORCEINLINE uint32_t __STREXW(uint32_t value, volatile uint32_t *addr)
{
   uint32_t result;

   __ASM volatile ("strex %0, %2, %1" : "=&r" (result), "=Q" (*addr) : "r" (value) );
 80046dc:	69f9      	ldr	r1, [r7, #28]
 80046de:	6a3a      	ldr	r2, [r7, #32]
 80046e0:	e841 2300 	strex	r3, r2, [r1]
 80046e4:	61bb      	str	r3, [r7, #24]
   return(result);
 80046e6:	69bb      	ldr	r3, [r7, #24]
 80046e8:	2b00      	cmp	r3, #0
 80046ea:	d1e6      	bne.n	80046ba <HAL_UART_Receive_IT+0x3c>
    }

    return (UART_Start_Receive_IT(huart, pData, Size));
 80046ec:	88fb      	ldrh	r3, [r7, #6]
 80046ee:	461a      	mov	r2, r3
 80046f0:	68b9      	ldr	r1, [r7, #8]
 80046f2:	68f8      	ldr	r0, [r7, #12]
 80046f4:	f000 fede 	bl	80054b4 <UART_Start_Receive_IT>
 80046f8:	4603      	mov	r3, r0
 80046fa:	e000      	b.n	80046fe <HAL_UART_Receive_IT+0x80>
  }
  else
  {
    return HAL_BUSY;
 80046fc:	2302      	movs	r3, #2
  }
}
 80046fe:	4618      	mov	r0, r3
 8004700:	3728      	adds	r7, #40	@ 0x28
 8004702:	46bd      	mov	sp, r7
 8004704:	bd80      	pop	{r7, pc}
	...

08004708 <HAL_UART_IRQHandler>:
  * @brief Handle UART interrupt request.
  * @param huart UART handle.
  * @retval None
  */
void HAL_UART_IRQHandler(UART_HandleTypeDef *huart)
{
 8004708:	b580      	push	{r7, lr}
 800470a:	b0ba      	sub	sp, #232	@ 0xe8
 800470c:	af00      	add	r7, sp, #0
 800470e:	6078      	str	r0, [r7, #4]
  uint32_t isrflags   = READ_REG(huart->Instance->ISR);
 8004710:	687b      	ldr	r3, [r7, #4]
 8004712:	681b      	ldr	r3, [r3, #0]
 8004714:	69db      	ldr	r3, [r3, #28]
 8004716:	f8c7 30e4 	str.w	r3, [r7, #228]	@ 0xe4
  uint32_t cr1its     = READ_REG(huart->Instance->CR1);
 800471a:	687b      	ldr	r3, [r7, #4]
 800471c:	681b      	ldr	r3, [r3, #0]
 800471e:	681b      	ldr	r3, [r3, #0]
 8004720:	f8c7 30e0 	str.w	r3, [r7, #224]	@ 0xe0
  uint32_t cr3its     = READ_REG(huart->Instance->CR3);
 8004724:	687b      	ldr	r3, [r7, #4]
 8004726:	681b      	ldr	r3, [r3, #0]
 8004728:	689b      	ldr	r3, [r3, #8]
 800472a:	f8c7 30dc 	str.w	r3, [r7, #220]	@ 0xdc

  uint32_t errorflags;
  uint32_t errorcode;

  /* If no error occurs */
  errorflags = (isrflags & (uint32_t)(USART_ISR_PE | USART_ISR_FE | USART_ISR_ORE | USART_ISR_NE | USART_ISR_RTOF));
 800472e:	f8d7 20e4 	ldr.w	r2, [r7, #228]	@ 0xe4
 8004732:	f640 030f 	movw	r3, #2063	@ 0x80f
 8004736:	4013      	ands	r3, r2
 8004738:	f8c7 30d8 	str.w	r3, [r7, #216]	@ 0xd8
  if (errorflags == 0U)
 800473c:	f8d7 30d8 	ldr.w	r3, [r7, #216]	@ 0xd8
 8004740:	2b00      	cmp	r3, #0
 8004742:	d115      	bne.n	8004770 <HAL_UART_IRQHandler+0x68>
  {
    /* UART in mode Receiver ---------------------------------------------------*/
    if (((isrflags & USART_ISR_RXNE) != 0U)
 8004744:	f8d7 30e4 	ldr.w	r3, [r7, #228]	@ 0xe4
 8004748:	f003 0320 	and.w	r3, r3, #32
 800474c:	2b00      	cmp	r3, #0
 800474e:	d00f      	beq.n	8004770 <HAL_UART_IRQHandler+0x68>
        && ((cr1its & USART_CR1_RXNEIE) != 0U))
 8004750:	f8d7 30e0 	ldr.w	r3, [r7, #224]	@ 0xe0
 8004754:	f003 0320 	and.w	r3, r3, #32
 8004758:	2b00      	cmp	r3, #0
 800475a:	d009      	beq.n	8004770 <HAL_UART_IRQHandler+0x68>
    {
      if (huart->RxISR != NULL)
 800475c:	687b      	ldr	r3, [r7, #4]
 800475e:	6e9b      	ldr	r3, [r3, #104]	@ 0x68
 8004760:	2b00      	cmp	r3, #0
 8004762:	f000 82b1 	beq.w	8004cc8 <HAL_UART_IRQHandler+0x5c0>
      {
        huart->RxISR(huart);
 8004766:	687b      	ldr	r3, [r7, #4]
 8004768:	6e9b      	ldr	r3, [r3, #104]	@ 0x68
 800476a:	6878      	ldr	r0, [r7, #4]
 800476c:	4798      	blx	r3
      }
      return;
 800476e:	e2ab      	b.n	8004cc8 <HAL_UART_IRQHandler+0x5c0>
    }
  }

  /* If some errors occur */
  if ((errorflags != 0U)
 8004770:	f8d7 30d8 	ldr.w	r3, [r7, #216]	@ 0xd8
 8004774:	2b00      	cmp	r3, #0
 8004776:	f000 8117 	beq.w	80049a8 <HAL_UART_IRQHandler+0x2a0>
      && (((cr3its & USART_CR3_EIE) != 0U)
 800477a:	f8d7 30dc 	ldr.w	r3, [r7, #220]	@ 0xdc
 800477e:	f003 0301 	and.w	r3, r3, #1
 8004782:	2b00      	cmp	r3, #0
 8004784:	d106      	bne.n	8004794 <HAL_UART_IRQHandler+0x8c>
          || ((cr1its & (USART_CR1_RXNEIE | USART_CR1_PEIE | USART_CR1_RTOIE)) != 0U)))
 8004786:	f8d7 20e0 	ldr.w	r2, [r7, #224]	@ 0xe0
 800478a:	4b85      	ldr	r3, [pc, #532]	@ (80049a0 <HAL_UART_IRQHandler+0x298>)
 800478c:	4013      	ands	r3, r2
 800478e:	2b00      	cmp	r3, #0
 8004790:	f000 810a 	beq.w	80049a8 <HAL_UART_IRQHandler+0x2a0>
  {
    /* UART parity error interrupt occurred -------------------------------------*/
    if (((isrflags & USART_ISR_PE) != 0U) && ((cr1its & USART_CR1_PEIE) != 0U))
 8004794:	f8d7 30e4 	ldr.w	r3, [r7, #228]	@ 0xe4
 8004798:	f003 0301 	and.w	r3, r3, #1
 800479c:	2b00      	cmp	r3, #0
 800479e:	d011      	beq.n	80047c4 <HAL_UART_IRQHandler+0xbc>
 80047a0:	f8d7 30e0 	ldr.w	r3, [r7, #224]	@ 0xe0
 80047a4:	f403 7380 	and.w	r3, r3, #256	@ 0x100
 80047a8:	2b00      	cmp	r3, #0
 80047aa:	d00b      	beq.n	80047c4 <HAL_UART_IRQHandler+0xbc>
    {
      __HAL_UART_CLEAR_FLAG(huart, UART_CLEAR_PEF);
 80047ac:	687b      	ldr	r3, [r7, #4]
 80047ae:	681b      	ldr	r3, [r3, #0]
 80047b0:	2201      	movs	r2, #1
 80047b2:	621a      	str	r2, [r3, #32]

      huart->ErrorCode |= HAL_UART_ERROR_PE;
 80047b4:	687b      	ldr	r3, [r7, #4]
 80047b6:	f8d3 3084 	ldr.w	r3, [r3, #132]	@ 0x84
 80047ba:	f043 0201 	orr.w	r2, r3, #1
 80047be:	687b      	ldr	r3, [r7, #4]
 80047c0:	f8c3 2084 	str.w	r2, [r3, #132]	@ 0x84
    }

    /* UART frame error interrupt occurred --------------------------------------*/
    if (((isrflags & USART_ISR_FE) != 0U) && ((cr3its & USART_CR3_EIE) != 0U))
 80047c4:	f8d7 30e4 	ldr.w	r3, [r7, #228]	@ 0xe4
 80047c8:	f003 0302 	and.w	r3, r3, #2
 80047cc:	2b00      	cmp	r3, #0
 80047ce:	d011      	beq.n	80047f4 <HAL_UART_IRQHandler+0xec>
 80047d0:	f8d7 30dc 	ldr.w	r3, [r7, #220]	@ 0xdc
 80047d4:	f003 0301 	and.w	r3, r3, #1
 80047d8:	2b00      	cmp	r3, #0
 80047da:	d00b      	beq.n	80047f4 <HAL_UART_IRQHandler+0xec>
    {
      __HAL_UART_CLEAR_FLAG(huart, UART_CLEAR_FEF);
 80047dc:	687b      	ldr	r3, [r7, #4]
 80047de:	681b      	ldr	r3, [r3, #0]
 80047e0:	2202      	movs	r2, #2
 80047e2:	621a      	str	r2, [r3, #32]

      huart->ErrorCode |= HAL_UART_ERROR_FE;
 80047e4:	687b      	ldr	r3, [r7, #4]
 80047e6:	f8d3 3084 	ldr.w	r3, [r3, #132]	@ 0x84
 80047ea:	f043 0204 	orr.w	r2, r3, #4
 80047ee:	687b      	ldr	r3, [r7, #4]
 80047f0:	f8c3 2084 	str.w	r2, [r3, #132]	@ 0x84
    }

    /* UART noise error interrupt occurred --------------------------------------*/
    if (((isrflags & USART_ISR_NE) != 0U) && ((cr3its & USART_CR3_EIE) != 0U))
 80047f4:	f8d7 30e4 	ldr.w	r3, [r7, #228]	@ 0xe4
 80047f8:	f003 0304 	and.w	r3, r3, #4
 80047fc:	2b00      	cmp	r3, #0
 80047fe:	d011      	beq.n	8004824 <HAL_UART_IRQHandler+0x11c>
 8004800:	f8d7 30dc 	ldr.w	r3, [r7, #220]	@ 0xdc
 8004804:	f003 0301 	and.w	r3, r3, #1
 8004808:	2b00      	cmp	r3, #0
 800480a:	d00b      	beq.n	8004824 <HAL_UART_IRQHandler+0x11c>
    {
      __HAL_UART_CLEAR_FLAG(huart, UART_CLEAR_NEF);
 800480c:	687b      	ldr	r3, [r7, #4]
 800480e:	681b      	ldr	r3, [r3, #0]
 8004810:	2204      	movs	r2, #4
 8004812:	621a      	str	r2, [r3, #32]

      huart->ErrorCode |= HAL_UART_ERROR_NE;
 8004814:	687b      	ldr	r3, [r7, #4]
 8004816:	f8d3 3084 	ldr.w	r3, [r3, #132]	@ 0x84
 800481a:	f043 0202 	orr.w	r2, r3, #2
 800481e:	687b      	ldr	r3, [r7, #4]
 8004820:	f8c3 2084 	str.w	r2, [r3, #132]	@ 0x84
    }

    /* UART Over-Run interrupt occurred -----------------------------------------*/
    if (((isrflags & USART_ISR_ORE) != 0U)
 8004824:	f8d7 30e4 	ldr.w	r3, [r7, #228]	@ 0xe4
 8004828:	f003 0308 	and.w	r3, r3, #8
 800482c:	2b00      	cmp	r3, #0
 800482e:	d017      	beq.n	8004860 <HAL_UART_IRQHandler+0x158>
        && (((cr1its & USART_CR1_RXNEIE) != 0U) ||
 8004830:	f8d7 30e0 	ldr.w	r3, [r7, #224]	@ 0xe0
 8004834:	f003 0320 	and.w	r3, r3, #32
 8004838:	2b00      	cmp	r3, #0
 800483a:	d105      	bne.n	8004848 <HAL_UART_IRQHandler+0x140>
            ((cr3its & USART_CR3_EIE) != 0U)))
 800483c:	f8d7 30dc 	ldr.w	r3, [r7, #220]	@ 0xdc
 8004840:	f003 0301 	and.w	r3, r3, #1
        && (((cr1its & USART_CR1_RXNEIE) != 0U) ||
 8004844:	2b00      	cmp	r3, #0
 8004846:	d00b      	beq.n	8004860 <HAL_UART_IRQHandler+0x158>
    {
      __HAL_UART_CLEAR_FLAG(huart, UART_CLEAR_OREF);
 8004848:	687b      	ldr	r3, [r7, #4]
 800484a:	681b      	ldr	r3, [r3, #0]
 800484c:	2208      	movs	r2, #8
 800484e:	621a      	str	r2, [r3, #32]

      huart->ErrorCode |= HAL_UART_ERROR_ORE;
 8004850:	687b      	ldr	r3, [r7, #4]
 8004852:	f8d3 3084 	ldr.w	r3, [r3, #132]	@ 0x84
 8004856:	f043 0208 	orr.w	r2, r3, #8
 800485a:	687b      	ldr	r3, [r7, #4]
 800485c:	f8c3 2084 	str.w	r2, [r3, #132]	@ 0x84
    }

    /* UART Receiver Timeout interrupt occurred ---------------------------------*/
    if (((isrflags & USART_ISR_RTOF) != 0U) && ((cr1its & USART_CR1_RTOIE) != 0U))
 8004860:	f8d7 30e4 	ldr.w	r3, [r7, #228]	@ 0xe4
 8004864:	f403 6300 	and.w	r3, r3, #2048	@ 0x800
 8004868:	2b00      	cmp	r3, #0
 800486a:	d012      	beq.n	8004892 <HAL_UART_IRQHandler+0x18a>
 800486c:	f8d7 30e0 	ldr.w	r3, [r7, #224]	@ 0xe0
 8004870:	f003 6380 	and.w	r3, r3, #67108864	@ 0x4000000
 8004874:	2b00      	cmp	r3, #0
 8004876:	d00c      	beq.n	8004892 <HAL_UART_IRQHandler+0x18a>
    {
      __HAL_UART_CLEAR_FLAG(huart, UART_CLEAR_RTOF);
 8004878:	687b      	ldr	r3, [r7, #4]
 800487a:	681b      	ldr	r3, [r3, #0]
 800487c:	f44f 6200 	mov.w	r2, #2048	@ 0x800
 8004880:	621a      	str	r2, [r3, #32]

      huart->ErrorCode |= HAL_UART_ERROR_RTO;
 8004882:	687b      	ldr	r3, [r7, #4]
 8004884:	f8d3 3084 	ldr.w	r3, [r3, #132]	@ 0x84
 8004888:	f043 0220 	orr.w	r2, r3, #32
 800488c:	687b      	ldr	r3, [r7, #4]
 800488e:	f8c3 2084 	str.w	r2, [r3, #132]	@ 0x84
    }

    /* Call UART Error Call back function if need be ----------------------------*/
    if (huart->ErrorCode != HAL_UART_ERROR_NONE)
 8004892:	687b      	ldr	r3, [r7, #4]
 8004894:	f8d3 3084 	ldr.w	r3, [r3, #132]	@ 0x84
 8004898:	2b00      	cmp	r3, #0
 800489a:	f000 8217 	beq.w	8004ccc <HAL_UART_IRQHandler+0x5c4>
    {
      /* UART in mode Receiver --------------------------------------------------*/
      if (((isrflags & USART_ISR_RXNE) != 0U)
 800489e:	f8d7 30e4 	ldr.w	r3, [r7, #228]	@ 0xe4
 80048a2:	f003 0320 	and.w	r3, r3, #32
 80048a6:	2b00      	cmp	r3, #0
 80048a8:	d00d      	beq.n	80048c6 <HAL_UART_IRQHandler+0x1be>
          && ((cr1its & USART_CR1_RXNEIE) != 0U))
 80048aa:	f8d7 30e0 	ldr.w	r3, [r7, #224]	@ 0xe0
 80048ae:	f003 0320 	and.w	r3, r3, #32
 80048b2:	2b00      	cmp	r3, #0
 80048b4:	d007      	beq.n	80048c6 <HAL_UART_IRQHandler+0x1be>
      {
        if (huart->RxISR != NULL)
 80048b6:	687b      	ldr	r3, [r7, #4]
 80048b8:	6e9b      	ldr	r3, [r3, #104]	@ 0x68
 80048ba:	2b00      	cmp	r3, #0
 80048bc:	d003      	beq.n	80048c6 <HAL_UART_IRQHandler+0x1be>
        {
          huart->RxISR(huart);
 80048be:	687b      	ldr	r3, [r7, #4]
 80048c0:	6e9b      	ldr	r3, [r3, #104]	@ 0x68
 80048c2:	6878      	ldr	r0, [r7, #4]
 80048c4:	4798      	blx	r3
      /* If Error is to be considered as blocking :
          - Receiver Timeout error in Reception
          - Overrun error in Reception
          - any error occurs in DMA mode reception
      */
      errorcode = huart->ErrorCode;
 80048c6:	687b      	ldr	r3, [r7, #4]
 80048c8:	f8d3 3084 	ldr.w	r3, [r3, #132]	@ 0x84
 80048cc:	f8c7 30d4 	str.w	r3, [r7, #212]	@ 0xd4
      if ((HAL_IS_BIT_SET(huart->Instance->CR3, USART_CR3_DMAR)) ||
 80048d0:	687b      	ldr	r3, [r7, #4]
 80048d2:	681b      	ldr	r3, [r3, #0]
 80048d4:	689b      	ldr	r3, [r3, #8]
 80048d6:	f003 0340 	and.w	r3, r3, #64	@ 0x40
 80048da:	2b40      	cmp	r3, #64	@ 0x40
 80048dc:	d005      	beq.n	80048ea <HAL_UART_IRQHandler+0x1e2>
          ((errorcode & (HAL_UART_ERROR_RTO | HAL_UART_ERROR_ORE)) != 0U))
 80048de:	f8d7 30d4 	ldr.w	r3, [r7, #212]	@ 0xd4
 80048e2:	f003 0328 	and.w	r3, r3, #40	@ 0x28
      if ((HAL_IS_BIT_SET(huart->Instance->CR3, USART_CR3_DMAR)) ||
 80048e6:	2b00      	cmp	r3, #0
 80048e8:	d04f      	beq.n	800498a <HAL_UART_IRQHandler+0x282>
      {
        /* Blocking error : transfer is aborted
           Set the UART state ready to be able to start again the process,
           Disable Rx Interrupts, and disable Rx DMA request, if ongoing */
        UART_EndRxTransfer(huart);
 80048ea:	6878      	ldr	r0, [r7, #4]
 80048ec:	f000 fea8 	bl	8005640 <UART_EndRxTransfer>

        /* Abort the UART DMA Rx channel if enabled */
        if (HAL_IS_BIT_SET(huart->Instance->CR3, USART_CR3_DMAR))
 80048f0:	687b      	ldr	r3, [r7, #4]
 80048f2:	681b      	ldr	r3, [r3, #0]
 80048f4:	689b      	ldr	r3, [r3, #8]
 80048f6:	f003 0340 	and.w	r3, r3, #64	@ 0x40
 80048fa:	2b40      	cmp	r3, #64	@ 0x40
 80048fc:	d141      	bne.n	8004982 <HAL_UART_IRQHandler+0x27a>
        {
          /* Disable the UART DMA Rx request if enabled */
          ATOMIC_CLEAR_BIT(huart->Instance->CR3, USART_CR3_DMAR);
 80048fe:	687b      	ldr	r3, [r7, #4]
 8004900:	681b      	ldr	r3, [r3, #0]
 8004902:	3308      	adds	r3, #8
 8004904:	f8c7 309c 	str.w	r3, [r7, #156]	@ 0x9c
   __ASM volatile ("ldrex %0, %1" : "=r" (result) : "Q" (*addr) );
 8004908:	f8d7 309c 	ldr.w	r3, [r7, #156]	@ 0x9c
 800490c:	e853 3f00 	ldrex	r3, [r3]
 8004910:	f8c7 3098 	str.w	r3, [r7, #152]	@ 0x98
   return(result);
 8004914:	f8d7 3098 	ldr.w	r3, [r7, #152]	@ 0x98
 8004918:	f023 0340 	bic.w	r3, r3, #64	@ 0x40
 800491c:	f8c7 30d0 	str.w	r3, [r7, #208]	@ 0xd0
 8004920:	687b      	ldr	r3, [r7, #4]
 8004922:	681b      	ldr	r3, [r3, #0]
 8004924:	3308      	adds	r3, #8
 8004926:	f8d7 20d0 	ldr.w	r2, [r7, #208]	@ 0xd0
 800492a:	f8c7 20a8 	str.w	r2, [r7, #168]	@ 0xa8
 800492e:	f8c7 30a4 	str.w	r3, [r7, #164]	@ 0xa4
   __ASM volatile ("strex %0, %2, %1" : "=&r" (result), "=Q" (*addr) : "r" (value) );
 8004932:	f8d7 10a4 	ldr.w	r1, [r7, #164]	@ 0xa4
 8004936:	f8d7 20a8 	ldr.w	r2, [r7, #168]	@ 0xa8
 800493a:	e841 2300 	strex	r3, r2, [r1]
 800493e:	f8c7 30a0 	str.w	r3, [r7, #160]	@ 0xa0
   return(result);
 8004942:	f8d7 30a0 	ldr.w	r3, [r7, #160]	@ 0xa0
 8004946:	2b00      	cmp	r3, #0
 8004948:	d1d9      	bne.n	80048fe <HAL_UART_IRQHandler+0x1f6>

          /* Abort the UART DMA Rx channel */
          if (huart->hdmarx != NULL)
 800494a:	687b      	ldr	r3, [r7, #4]
 800494c:	6f5b      	ldr	r3, [r3, #116]	@ 0x74
 800494e:	2b00      	cmp	r3, #0
 8004950:	d013      	beq.n	800497a <HAL_UART_IRQHandler+0x272>
          {
            /* Set the UART DMA Abort callback :
               will lead to call HAL_UART_ErrorCallback() at end of DMA abort procedure */
            huart->hdmarx->XferAbortCallback = UART_DMAAbortOnError;
 8004952:	687b      	ldr	r3, [r7, #4]
 8004954:	6f5b      	ldr	r3, [r3, #116]	@ 0x74
 8004956:	4a13      	ldr	r2, [pc, #76]	@ (80049a4 <HAL_UART_IRQHandler+0x29c>)
 8004958:	651a      	str	r2, [r3, #80]	@ 0x50

            /* Abort DMA RX */
            if (HAL_DMA_Abort_IT(huart->hdmarx) != HAL_OK)
 800495a:	687b      	ldr	r3, [r7, #4]
 800495c:	6f5b      	ldr	r3, [r3, #116]	@ 0x74
 800495e:	4618      	mov	r0, r3
 8004960:	f7fe fb6e 	bl	8003040 <HAL_DMA_Abort_IT>
 8004964:	4603      	mov	r3, r0
 8004966:	2b00      	cmp	r3, #0
 8004968:	d017      	beq.n	800499a <HAL_UART_IRQHandler+0x292>
            {
              /* Call Directly huart->hdmarx->XferAbortCallback function in case of error */
              huart->hdmarx->XferAbortCallback(huart->hdmarx);
 800496a:	687b      	ldr	r3, [r7, #4]
 800496c:	6f5b      	ldr	r3, [r3, #116]	@ 0x74
 800496e:	6d1b      	ldr	r3, [r3, #80]	@ 0x50
 8004970:	687a      	ldr	r2, [r7, #4]
 8004972:	6f52      	ldr	r2, [r2, #116]	@ 0x74
 8004974:	4610      	mov	r0, r2
 8004976:	4798      	blx	r3
        if (HAL_IS_BIT_SET(huart->Instance->CR3, USART_CR3_DMAR))
 8004978:	e00f      	b.n	800499a <HAL_UART_IRQHandler+0x292>
#if (USE_HAL_UART_REGISTER_CALLBACKS == 1)
            /*Call registered error callback*/
            huart->ErrorCallback(huart);
#else
            /*Call legacy weak error callback*/
            HAL_UART_ErrorCallback(huart);
 800497a:	6878      	ldr	r0, [r7, #4]
 800497c:	f000 f9ba 	bl	8004cf4 <HAL_UART_ErrorCallback>
        if (HAL_IS_BIT_SET(huart->Instance->CR3, USART_CR3_DMAR))
 8004980:	e00b      	b.n	800499a <HAL_UART_IRQHandler+0x292>
#if (USE_HAL_UART_REGISTER_CALLBACKS == 1)
          /*Call registered error callback*/
          huart->ErrorCallback(huart);
#else
          /*Call legacy weak error callback*/
          HAL_UART_ErrorCallback(huart);
 8004982:	6878      	ldr	r0, [r7, #4]
 8004984:	f000 f9b6 	bl	8004cf4 <HAL_UART_ErrorCallback>
        if (HAL_IS_BIT_SET(huart->Instance->CR3, USART_CR3_DMAR))
 8004988:	e007      	b.n	800499a <HAL_UART_IRQHandler+0x292>
#if (USE_HAL_UART_REGISTER_CALLBACKS == 1)
        /*Call registered error callback*/
        huart->ErrorCallback(huart);
#else
        /*Call legacy weak error callback*/
        HAL_UART_ErrorCallback(huart);
 800498a:	6878      	ldr	r0, [r7, #4]
 800498c:	f000 f9b2 	bl	8004cf4 <HAL_UART_ErrorCallback>
#endif /* USE_HAL_UART_REGISTER_CALLBACKS */
        huart->ErrorCode = HAL_UART_ERROR_NONE;
 8004990:	687b      	ldr	r3, [r7, #4]
 8004992:	2200      	movs	r2, #0
 8004994:	f8c3 2084 	str.w	r2, [r3, #132]	@ 0x84
      }
    }
    return;
 8004998:	e198      	b.n	8004ccc <HAL_UART_IRQHandler+0x5c4>
        if (HAL_IS_BIT_SET(huart->Instance->CR3, USART_CR3_DMAR))
 800499a:	bf00      	nop
    return;
 800499c:	e196      	b.n	8004ccc <HAL_UART_IRQHandler+0x5c4>
 800499e:	bf00      	nop
 80049a0:	04000120 	.word	0x04000120
 80049a4:	08005709 	.word	0x08005709

  } /* End if some error occurs */

  /* Check current reception Mode :
     If Reception till IDLE event has been selected : */
  if ((huart->ReceptionType == HAL_UART_RECEPTION_TOIDLE)
 80049a8:	687b      	ldr	r3, [r7, #4]
 80049aa:	6e1b      	ldr	r3, [r3, #96]	@ 0x60
 80049ac:	2b01      	cmp	r3, #1
 80049ae:	f040 8166 	bne.w	8004c7e <HAL_UART_IRQHandler+0x576>
      && ((isrflags & USART_ISR_IDLE) != 0U)
 80049b2:	f8d7 30e4 	ldr.w	r3, [r7, #228]	@ 0xe4
 80049b6:	f003 0310 	and.w	r3, r3, #16
 80049ba:	2b00      	cmp	r3, #0
 80049bc:	f000 815f 	beq.w	8004c7e <HAL_UART_IRQHandler+0x576>
      && ((cr1its & USART_ISR_IDLE) != 0U))
 80049c0:	f8d7 30e0 	ldr.w	r3, [r7, #224]	@ 0xe0
 80049c4:	f003 0310 	and.w	r3, r3, #16
 80049c8:	2b00      	cmp	r3, #0
 80049ca:	f000 8158 	beq.w	8004c7e <HAL_UART_IRQHandler+0x576>
  {
    __HAL_UART_CLEAR_FLAG(huart, UART_CLEAR_IDLEF);
 80049ce:	687b      	ldr	r3, [r7, #4]
 80049d0:	681b      	ldr	r3, [r3, #0]
 80049d2:	2210      	movs	r2, #16
 80049d4:	621a      	str	r2, [r3, #32]

    /* Check if DMA mode is enabled in UART */
    if (HAL_IS_BIT_SET(huart->Instance->CR3, USART_CR3_DMAR))
 80049d6:	687b      	ldr	r3, [r7, #4]
 80049d8:	681b      	ldr	r3, [r3, #0]
 80049da:	689b      	ldr	r3, [r3, #8]
 80049dc:	f003 0340 	and.w	r3, r3, #64	@ 0x40
 80049e0:	2b40      	cmp	r3, #64	@ 0x40
 80049e2:	f040 80d0 	bne.w	8004b86 <HAL_UART_IRQHandler+0x47e>
    {
      /* DMA mode enabled */
      /* Check received length : If all expected data are received, do nothing,
         (DMA cplt callback will be called).
         Otherwise, if at least one data has already been received, IDLE event is to be notified to user */
      uint16_t nb_remaining_rx_data = (uint16_t) __HAL_DMA_GET_COUNTER(huart->hdmarx);
 80049e6:	687b      	ldr	r3, [r7, #4]
 80049e8:	6f5b      	ldr	r3, [r3, #116]	@ 0x74
 80049ea:	681b      	ldr	r3, [r3, #0]
 80049ec:	685b      	ldr	r3, [r3, #4]
 80049ee:	f8a7 30be 	strh.w	r3, [r7, #190]	@ 0xbe
      if ((nb_remaining_rx_data > 0U)
 80049f2:	f8b7 30be 	ldrh.w	r3, [r7, #190]	@ 0xbe
 80049f6:	2b00      	cmp	r3, #0
 80049f8:	f000 80ab 	beq.w	8004b52 <HAL_UART_IRQHandler+0x44a>
          && (nb_remaining_rx_data < huart->RxXferSize))
 80049fc:	687b      	ldr	r3, [r7, #4]
 80049fe:	f8b3 3058 	ldrh.w	r3, [r3, #88]	@ 0x58
 8004a02:	f8b7 20be 	ldrh.w	r2, [r7, #190]	@ 0xbe
 8004a06:	429a      	cmp	r2, r3
 8004a08:	f080 80a3 	bcs.w	8004b52 <HAL_UART_IRQHandler+0x44a>
      {
        /* Reception is not complete */
        huart->RxXferCount = nb_remaining_rx_data;
 8004a0c:	687b      	ldr	r3, [r7, #4]
 8004a0e:	f8b7 20be 	ldrh.w	r2, [r7, #190]	@ 0xbe
 8004a12:	f8a3 205a 	strh.w	r2, [r3, #90]	@ 0x5a

        /* In Normal mode, end DMA xfer and HAL UART Rx process*/
        if (huart->hdmarx->Init.Mode != DMA_CIRCULAR)
 8004a16:	687b      	ldr	r3, [r7, #4]
 8004a18:	6f5b      	ldr	r3, [r3, #116]	@ 0x74
 8004a1a:	69db      	ldr	r3, [r3, #28]
 8004a1c:	f5b3 7f80 	cmp.w	r3, #256	@ 0x100
 8004a20:	f000 8086 	beq.w	8004b30 <HAL_UART_IRQHandler+0x428>
        {
          /* Disable PE and ERR (Frame error, noise error, overrun error) interrupts */
          ATOMIC_CLEAR_BIT(huart->Instance->CR1, USART_CR1_PEIE);
 8004a24:	687b      	ldr	r3, [r7, #4]
 8004a26:	681b      	ldr	r3, [r3, #0]
 8004a28:	f8c7 3088 	str.w	r3, [r7, #136]	@ 0x88
   __ASM volatile ("ldrex %0, %1" : "=r" (result) : "Q" (*addr) );
 8004a2c:	f8d7 3088 	ldr.w	r3, [r7, #136]	@ 0x88
 8004a30:	e853 3f00 	ldrex	r3, [r3]
 8004a34:	f8c7 3084 	str.w	r3, [r7, #132]	@ 0x84
   return(result);
 8004a38:	f8d7 3084 	ldr.w	r3, [r7, #132]	@ 0x84
 8004a3c:	f423 7380 	bic.w	r3, r3, #256	@ 0x100
 8004a40:	f8c7 30b8 	str.w	r3, [r7, #184]	@ 0xb8
 8004a44:	687b      	ldr	r3, [r7, #4]
 8004a46:	681b      	ldr	r3, [r3, #0]
 8004a48:	461a      	mov	r2, r3
 8004a4a:	f8d7 30b8 	ldr.w	r3, [r7, #184]	@ 0xb8
 8004a4e:	f8c7 3094 	str.w	r3, [r7, #148]	@ 0x94
 8004a52:	f8c7 2090 	str.w	r2, [r7, #144]	@ 0x90
   __ASM volatile ("strex %0, %2, %1" : "=&r" (result), "=Q" (*addr) : "r" (value) );
 8004a56:	f8d7 1090 	ldr.w	r1, [r7, #144]	@ 0x90
 8004a5a:	f8d7 2094 	ldr.w	r2, [r7, #148]	@ 0x94
 8004a5e:	e841 2300 	strex	r3, r2, [r1]
 8004a62:	f8c7 308c 	str.w	r3, [r7, #140]	@ 0x8c
   return(result);
 8004a66:	f8d7 308c 	ldr.w	r3, [r7, #140]	@ 0x8c
 8004a6a:	2b00      	cmp	r3, #0
 8004a6c:	d1da      	bne.n	8004a24 <HAL_UART_IRQHandler+0x31c>
          ATOMIC_CLEAR_BIT(huart->Instance->CR3, USART_CR3_EIE);
 8004a6e:	687b      	ldr	r3, [r7, #4]
 8004a70:	681b      	ldr	r3, [r3, #0]
 8004a72:	3308      	adds	r3, #8
 8004a74:	677b      	str	r3, [r7, #116]	@ 0x74
   __ASM volatile ("ldrex %0, %1" : "=r" (result) : "Q" (*addr) );
 8004a76:	6f7b      	ldr	r3, [r7, #116]	@ 0x74
 8004a78:	e853 3f00 	ldrex	r3, [r3]
 8004a7c:	673b      	str	r3, [r7, #112]	@ 0x70
   return(result);
 8004a7e:	6f3b      	ldr	r3, [r7, #112]	@ 0x70
 8004a80:	f023 0301 	bic.w	r3, r3, #1
 8004a84:	f8c7 30b4 	str.w	r3, [r7, #180]	@ 0xb4
 8004a88:	687b      	ldr	r3, [r7, #4]
 8004a8a:	681b      	ldr	r3, [r3, #0]
 8004a8c:	3308      	adds	r3, #8
 8004a8e:	f8d7 20b4 	ldr.w	r2, [r7, #180]	@ 0xb4
 8004a92:	f8c7 2080 	str.w	r2, [r7, #128]	@ 0x80
 8004a96:	67fb      	str	r3, [r7, #124]	@ 0x7c
   __ASM volatile ("strex %0, %2, %1" : "=&r" (result), "=Q" (*addr) : "r" (value) );
 8004a98:	6ff9      	ldr	r1, [r7, #124]	@ 0x7c
 8004a9a:	f8d7 2080 	ldr.w	r2, [r7, #128]	@ 0x80
 8004a9e:	e841 2300 	strex	r3, r2, [r1]
 8004aa2:	67bb      	str	r3, [r7, #120]	@ 0x78
   return(result);
 8004aa4:	6fbb      	ldr	r3, [r7, #120]	@ 0x78
 8004aa6:	2b00      	cmp	r3, #0
 8004aa8:	d1e1      	bne.n	8004a6e <HAL_UART_IRQHandler+0x366>

          /* Disable the DMA transfer for the receiver request by resetting the DMAR bit
             in the UART CR3 register */
          ATOMIC_CLEAR_BIT(huart->Instance->CR3, USART_CR3_DMAR);
 8004aaa:	687b      	ldr	r3, [r7, #4]
 8004aac:	681b      	ldr	r3, [r3, #0]
 8004aae:	3308      	adds	r3, #8
 8004ab0:	663b      	str	r3, [r7, #96]	@ 0x60
   __ASM volatile ("ldrex %0, %1" : "=r" (result) : "Q" (*addr) );
 8004ab2:	6e3b      	ldr	r3, [r7, #96]	@ 0x60
 8004ab4:	e853 3f00 	ldrex	r3, [r3]
 8004ab8:	65fb      	str	r3, [r7, #92]	@ 0x5c
   return(result);
 8004aba:	6dfb      	ldr	r3, [r7, #92]	@ 0x5c
 8004abc:	f023 0340 	bic.w	r3, r3, #64	@ 0x40
 8004ac0:	f8c7 30b0 	str.w	r3, [r7, #176]	@ 0xb0
 8004ac4:	687b      	ldr	r3, [r7, #4]
 8004ac6:	681b      	ldr	r3, [r3, #0]
 8004ac8:	3308      	adds	r3, #8
 8004aca:	f8d7 20b0 	ldr.w	r2, [r7, #176]	@ 0xb0
 8004ace:	66fa      	str	r2, [r7, #108]	@ 0x6c
 8004ad0:	66bb      	str	r3, [r7, #104]	@ 0x68
   __ASM volatile ("strex %0, %2, %1" : "=&r" (result), "=Q" (*addr) : "r" (value) );
 8004ad2:	6eb9      	ldr	r1, [r7, #104]	@ 0x68
 8004ad4:	6efa      	ldr	r2, [r7, #108]	@ 0x6c
 8004ad6:	e841 2300 	strex	r3, r2, [r1]
 8004ada:	667b      	str	r3, [r7, #100]	@ 0x64
   return(result);
 8004adc:	6e7b      	ldr	r3, [r7, #100]	@ 0x64
 8004ade:	2b00      	cmp	r3, #0
 8004ae0:	d1e3      	bne.n	8004aaa <HAL_UART_IRQHandler+0x3a2>

          /* At end of Rx process, restore huart->RxState to Ready */
          huart->RxState = HAL_UART_STATE_READY;
 8004ae2:	687b      	ldr	r3, [r7, #4]
 8004ae4:	2220      	movs	r2, #32
 8004ae6:	f8c3 2080 	str.w	r2, [r3, #128]	@ 0x80
          huart->ReceptionType = HAL_UART_RECEPTION_STANDARD;
 8004aea:	687b      	ldr	r3, [r7, #4]
 8004aec:	2200      	movs	r2, #0
 8004aee:	661a      	str	r2, [r3, #96]	@ 0x60

          ATOMIC_CLEAR_BIT(huart->Instance->CR1, USART_CR1_IDLEIE);
 8004af0:	687b      	ldr	r3, [r7, #4]
 8004af2:	681b      	ldr	r3, [r3, #0]
 8004af4:	64fb      	str	r3, [r7, #76]	@ 0x4c
   __ASM volatile ("ldrex %0, %1" : "=r" (result) : "Q" (*addr) );
 8004af6:	6cfb      	ldr	r3, [r7, #76]	@ 0x4c
 8004af8:	e853 3f00 	ldrex	r3, [r3]
 8004afc:	64bb      	str	r3, [r7, #72]	@ 0x48
   return(result);
 8004afe:	6cbb      	ldr	r3, [r7, #72]	@ 0x48
 8004b00:	f023 0310 	bic.w	r3, r3, #16
 8004b04:	f8c7 30ac 	str.w	r3, [r7, #172]	@ 0xac
 8004b08:	687b      	ldr	r3, [r7, #4]
 8004b0a:	681b      	ldr	r3, [r3, #0]
 8004b0c:	461a      	mov	r2, r3
 8004b0e:	f8d7 30ac 	ldr.w	r3, [r7, #172]	@ 0xac
 8004b12:	65bb      	str	r3, [r7, #88]	@ 0x58
 8004b14:	657a      	str	r2, [r7, #84]	@ 0x54
   __ASM volatile ("strex %0, %2, %1" : "=&r" (result), "=Q" (*addr) : "r" (value) );
 8004b16:	6d79      	ldr	r1, [r7, #84]	@ 0x54
 8004b18:	6dba      	ldr	r2, [r7, #88]	@ 0x58
 8004b1a:	e841 2300 	strex	r3, r2, [r1]
 8004b1e:	653b      	str	r3, [r7, #80]	@ 0x50
   return(result);
 8004b20:	6d3b      	ldr	r3, [r7, #80]	@ 0x50
 8004b22:	2b00      	cmp	r3, #0
 8004b24:	d1e4      	bne.n	8004af0 <HAL_UART_IRQHandler+0x3e8>

          /* Last bytes received, so no need as the abort is immediate */
          (void)HAL_DMA_Abort(huart->hdmarx);
 8004b26:	687b      	ldr	r3, [r7, #4]
 8004b28:	6f5b      	ldr	r3, [r3, #116]	@ 0x74
 8004b2a:	4618      	mov	r0, r3
 8004b2c:	f7fe fa18 	bl	8002f60 <HAL_DMA_Abort>
        }

        /* Initialize type of RxEvent that correspond to RxEvent callback execution;
           In this case, Rx Event type is Idle Event */
        huart->RxEventType = HAL_UART_RXEVENT_IDLE;
 8004b30:	687b      	ldr	r3, [r7, #4]
 8004b32:	2202      	movs	r2, #2
 8004b34:	665a      	str	r2, [r3, #100]	@ 0x64
#if (USE_HAL_UART_REGISTER_CALLBACKS == 1)
        /*Call registered Rx Event callback*/
        huart->RxEventCallback(huart, (huart->RxXferSize - huart->RxXferCount));
#else
        /*Call legacy weak Rx Event callback*/
        HAL_UARTEx_RxEventCallback(huart, (huart->RxXferSize - huart->RxXferCount));
 8004b36:	687b      	ldr	r3, [r7, #4]
 8004b38:	f8b3 2058 	ldrh.w	r2, [r3, #88]	@ 0x58
 8004b3c:	687b      	ldr	r3, [r7, #4]
 8004b3e:	f8b3 305a 	ldrh.w	r3, [r3, #90]	@ 0x5a
 8004b42:	b29b      	uxth	r3, r3
 8004b44:	1ad3      	subs	r3, r2, r3
 8004b46:	b29b      	uxth	r3, r3
 8004b48:	4619      	mov	r1, r3
 8004b4a:	6878      	ldr	r0, [r7, #4]
 8004b4c:	f000 f8dc 	bl	8004d08 <HAL_UARTEx_RxEventCallback>
            HAL_UARTEx_RxEventCallback(huart, huart->RxXferSize);
#endif /* (USE_HAL_UART_REGISTER_CALLBACKS) */
          }
        }
      }
      return;
 8004b50:	e0be      	b.n	8004cd0 <HAL_UART_IRQHandler+0x5c8>
        if (nb_remaining_rx_data == huart->RxXferSize)
 8004b52:	687b      	ldr	r3, [r7, #4]
 8004b54:	f8b3 3058 	ldrh.w	r3, [r3, #88]	@ 0x58
 8004b58:	f8b7 20be 	ldrh.w	r2, [r7, #190]	@ 0xbe
 8004b5c:	429a      	cmp	r2, r3
 8004b5e:	f040 80b7 	bne.w	8004cd0 <HAL_UART_IRQHandler+0x5c8>
          if (huart->hdmarx->Init.Mode == DMA_CIRCULAR)
 8004b62:	687b      	ldr	r3, [r7, #4]
 8004b64:	6f5b      	ldr	r3, [r3, #116]	@ 0x74
 8004b66:	69db      	ldr	r3, [r3, #28]
 8004b68:	f5b3 7f80 	cmp.w	r3, #256	@ 0x100
 8004b6c:	f040 80b0 	bne.w	8004cd0 <HAL_UART_IRQHandler+0x5c8>
            huart->RxEventType = HAL_UART_RXEVENT_IDLE;
 8004b70:	687b      	ldr	r3, [r7, #4]
 8004b72:	2202      	movs	r2, #2
 8004b74:	665a      	str	r2, [r3, #100]	@ 0x64
            HAL_UARTEx_RxEventCallback(huart, huart->RxXferSize);
 8004b76:	687b      	ldr	r3, [r7, #4]
 8004b78:	f8b3 3058 	ldrh.w	r3, [r3, #88]	@ 0x58
 8004b7c:	4619      	mov	r1, r3
 8004b7e:	6878      	ldr	r0, [r7, #4]
 8004b80:	f000 f8c2 	bl	8004d08 <HAL_UARTEx_RxEventCallback>
      return;
 8004b84:	e0a4      	b.n	8004cd0 <HAL_UART_IRQHandler+0x5c8>
    else
    {
      /* DMA mode not enabled */
      /* Check received length : If all expected data are received, do nothing.
         Otherwise, if at least one data has already been received, IDLE event is to be notified to user */
      uint16_t nb_rx_data = huart->RxXferSize - huart->RxXferCount;
 8004b86:	687b      	ldr	r3, [r7, #4]
 8004b88:	f8b3 2058 	ldrh.w	r2, [r3, #88]	@ 0x58
 8004b8c:	687b      	ldr	r3, [r7, #4]
 8004b8e:	f8b3 305a 	ldrh.w	r3, [r3, #90]	@ 0x5a
 8004b92:	b29b      	uxth	r3, r3
 8004b94:	1ad3      	subs	r3, r2, r3
 8004b96:	f8a7 30ce 	strh.w	r3, [r7, #206]	@ 0xce
      if ((huart->RxXferCount > 0U)
 8004b9a:	687b      	ldr	r3, [r7, #4]
 8004b9c:	f8b3 305a 	ldrh.w	r3, [r3, #90]	@ 0x5a
 8004ba0:	b29b      	uxth	r3, r3
 8004ba2:	2b00      	cmp	r3, #0
 8004ba4:	f000 8096 	beq.w	8004cd4 <HAL_UART_IRQHandler+0x5cc>
          && (nb_rx_data > 0U))
 8004ba8:	f8b7 30ce 	ldrh.w	r3, [r7, #206]	@ 0xce
 8004bac:	2b00      	cmp	r3, #0
 8004bae:	f000 8091 	beq.w	8004cd4 <HAL_UART_IRQHandler+0x5cc>
      {
        /* Disable the UART Parity Error Interrupt and RXNE interrupts */
        ATOMIC_CLEAR_BIT(huart->Instance->CR1, (USART_CR1_RXNEIE | USART_CR1_PEIE));
 8004bb2:	687b      	ldr	r3, [r7, #4]
 8004bb4:	681b      	ldr	r3, [r3, #0]
 8004bb6:	63bb      	str	r3, [r7, #56]	@ 0x38
   __ASM volatile ("ldrex %0, %1" : "=r" (result) : "Q" (*addr) );
 8004bb8:	6bbb      	ldr	r3, [r7, #56]	@ 0x38
 8004bba:	e853 3f00 	ldrex	r3, [r3]
 8004bbe:	637b      	str	r3, [r7, #52]	@ 0x34
   return(result);
 8004bc0:	6b7b      	ldr	r3, [r7, #52]	@ 0x34
 8004bc2:	f423 7390 	bic.w	r3, r3, #288	@ 0x120
 8004bc6:	f8c7 30c8 	str.w	r3, [r7, #200]	@ 0xc8
 8004bca:	687b      	ldr	r3, [r7, #4]
 8004bcc:	681b      	ldr	r3, [r3, #0]
 8004bce:	461a      	mov	r2, r3
 8004bd0:	f8d7 30c8 	ldr.w	r3, [r7, #200]	@ 0xc8
 8004bd4:	647b      	str	r3, [r7, #68]	@ 0x44
 8004bd6:	643a      	str	r2, [r7, #64]	@ 0x40
   __ASM volatile ("strex %0, %2, %1" : "=&r" (result), "=Q" (*addr) : "r" (value) );
 8004bd8:	6c39      	ldr	r1, [r7, #64]	@ 0x40
 8004bda:	6c7a      	ldr	r2, [r7, #68]	@ 0x44
 8004bdc:	e841 2300 	strex	r3, r2, [r1]
 8004be0:	63fb      	str	r3, [r7, #60]	@ 0x3c
   return(result);
 8004be2:	6bfb      	ldr	r3, [r7, #60]	@ 0x3c
 8004be4:	2b00      	cmp	r3, #0
 8004be6:	d1e4      	bne.n	8004bb2 <HAL_UART_IRQHandler+0x4aa>

        /* Disable the UART Error Interrupt: (Frame error, noise error, overrun error) */
        ATOMIC_CLEAR_BIT(huart->Instance->CR3, USART_CR3_EIE);
 8004be8:	687b      	ldr	r3, [r7, #4]
 8004bea:	681b      	ldr	r3, [r3, #0]
 8004bec:	3308      	adds	r3, #8
 8004bee:	627b      	str	r3, [r7, #36]	@ 0x24
   __ASM volatile ("ldrex %0, %1" : "=r" (result) : "Q" (*addr) );
 8004bf0:	6a7b      	ldr	r3, [r7, #36]	@ 0x24
 8004bf2:	e853 3f00 	ldrex	r3, [r3]
 8004bf6:	623b      	str	r3, [r7, #32]
   return(result);
 8004bf8:	6a3b      	ldr	r3, [r7, #32]
 8004bfa:	f023 0301 	bic.w	r3, r3, #1
 8004bfe:	f8c7 30c4 	str.w	r3, [r7, #196]	@ 0xc4
 8004c02:	687b      	ldr	r3, [r7, #4]
 8004c04:	681b      	ldr	r3, [r3, #0]
 8004c06:	3308      	adds	r3, #8
 8004c08:	f8d7 20c4 	ldr.w	r2, [r7, #196]	@ 0xc4
 8004c0c:	633a      	str	r2, [r7, #48]	@ 0x30
 8004c0e:	62fb      	str	r3, [r7, #44]	@ 0x2c
   __ASM volatile ("strex %0, %2, %1" : "=&r" (result), "=Q" (*addr) : "r" (value) );
 8004c10:	6af9      	ldr	r1, [r7, #44]	@ 0x2c
 8004c12:	6b3a      	ldr	r2, [r7, #48]	@ 0x30
 8004c14:	e841 2300 	strex	r3, r2, [r1]
 8004c18:	62bb      	str	r3, [r7, #40]	@ 0x28
   return(result);
 8004c1a:	6abb      	ldr	r3, [r7, #40]	@ 0x28
 8004c1c:	2b00      	cmp	r3, #0
 8004c1e:	d1e3      	bne.n	8004be8 <HAL_UART_IRQHandler+0x4e0>

        /* Rx process is completed, restore huart->RxState to Ready */
        huart->RxState = HAL_UART_STATE_READY;
 8004c20:	687b      	ldr	r3, [r7, #4]
 8004c22:	2220      	movs	r2, #32
 8004c24:	f8c3 2080 	str.w	r2, [r3, #128]	@ 0x80
        huart->ReceptionType = HAL_UART_RECEPTION_STANDARD;
 8004c28:	687b      	ldr	r3, [r7, #4]
 8004c2a:	2200      	movs	r2, #0
 8004c2c:	661a      	str	r2, [r3, #96]	@ 0x60

        /* Clear RxISR function pointer */
        huart->RxISR = NULL;
 8004c2e:	687b      	ldr	r3, [r7, #4]
 8004c30:	2200      	movs	r2, #0
 8004c32:	669a      	str	r2, [r3, #104]	@ 0x68

        ATOMIC_CLEAR_BIT(huart->Instance->CR1, USART_CR1_IDLEIE);
 8004c34:	687b      	ldr	r3, [r7, #4]
 8004c36:	681b      	ldr	r3, [r3, #0]
 8004c38:	613b      	str	r3, [r7, #16]
   __ASM volatile ("ldrex %0, %1" : "=r" (result) : "Q" (*addr) );
 8004c3a:	693b      	ldr	r3, [r7, #16]
 8004c3c:	e853 3f00 	ldrex	r3, [r3]
 8004c40:	60fb      	str	r3, [r7, #12]
   return(result);
 8004c42:	68fb      	ldr	r3, [r7, #12]
 8004c44:	f023 0310 	bic.w	r3, r3, #16
 8004c48:	f8c7 30c0 	str.w	r3, [r7, #192]	@ 0xc0
 8004c4c:	687b      	ldr	r3, [r7, #4]
 8004c4e:	681b      	ldr	r3, [r3, #0]
 8004c50:	461a      	mov	r2, r3
 8004c52:	f8d7 30c0 	ldr.w	r3, [r7, #192]	@ 0xc0
 8004c56:	61fb      	str	r3, [r7, #28]
 8004c58:	61ba      	str	r2, [r7, #24]
   __ASM volatile ("strex %0, %2, %1" : "=&r" (result), "=Q" (*addr) : "r" (value) );
 8004c5a:	69b9      	ldr	r1, [r7, #24]
 8004c5c:	69fa      	ldr	r2, [r7, #28]
 8004c5e:	e841 2300 	strex	r3, r2, [r1]
 8004c62:	617b      	str	r3, [r7, #20]
   return(result);
 8004c64:	697b      	ldr	r3, [r7, #20]
 8004c66:	2b00      	cmp	r3, #0
 8004c68:	d1e4      	bne.n	8004c34 <HAL_UART_IRQHandler+0x52c>

        /* Initialize type of RxEvent that correspond to RxEvent callback execution;
           In this case, Rx Event type is Idle Event */
        huart->RxEventType = HAL_UART_RXEVENT_IDLE;
 8004c6a:	687b      	ldr	r3, [r7, #4]
 8004c6c:	2202      	movs	r2, #2
 8004c6e:	665a      	str	r2, [r3, #100]	@ 0x64
#if (USE_HAL_UART_REGISTER_CALLBACKS == 1)
        /*Call registered Rx complete callback*/
        huart->RxEventCallback(huart, nb_rx_data);
#else
        /*Call legacy weak Rx Event callback*/
        HAL_UARTEx_RxEventCallback(huart, nb_rx_data);
 8004c70:	f8b7 30ce 	ldrh.w	r3, [r7, #206]	@ 0xce
 8004c74:	4619      	mov	r1, r3
 8004c76:	6878      	ldr	r0, [r7, #4]
 8004c78:	f000 f846 	bl	8004d08 <HAL_UARTEx_RxEventCallback>
#endif /* (USE_HAL_UART_REGISTER_CALLBACKS) */
      }
      return;
 8004c7c:	e02a      	b.n	8004cd4 <HAL_UART_IRQHandler+0x5cc>
  }
#endif /* USART_CR3_WUFIE */
#endif /* USART_CR1_UESM */

  /* UART in mode Transmitter ------------------------------------------------*/
  if (((isrflags & USART_ISR_TXE) != 0U)
 8004c7e:	f8d7 30e4 	ldr.w	r3, [r7, #228]	@ 0xe4
 8004c82:	f003 0380 	and.w	r3, r3, #128	@ 0x80
 8004c86:	2b00      	cmp	r3, #0
 8004c88:	d00e      	beq.n	8004ca8 <HAL_UART_IRQHandler+0x5a0>
      && ((cr1its & USART_CR1_TXEIE) != 0U))
 8004c8a:	f8d7 30e0 	ldr.w	r3, [r7, #224]	@ 0xe0
 8004c8e:	f003 0380 	and.w	r3, r3, #128	@ 0x80
 8004c92:	2b00      	cmp	r3, #0
 8004c94:	d008      	beq.n	8004ca8 <HAL_UART_IRQHandler+0x5a0>
  {
    if (huart->TxISR != NULL)
 8004c96:	687b      	ldr	r3, [r7, #4]
 8004c98:	6edb      	ldr	r3, [r3, #108]	@ 0x6c
 8004c9a:	2b00      	cmp	r3, #0
 8004c9c:	d01c      	beq.n	8004cd8 <HAL_UART_IRQHandler+0x5d0>
    {
      huart->TxISR(huart);
 8004c9e:	687b      	ldr	r3, [r7, #4]
 8004ca0:	6edb      	ldr	r3, [r3, #108]	@ 0x6c
 8004ca2:	6878      	ldr	r0, [r7, #4]
 8004ca4:	4798      	blx	r3
    }
    return;
 8004ca6:	e017      	b.n	8004cd8 <HAL_UART_IRQHandler+0x5d0>
  }

  /* UART in mode Transmitter (transmission end) -----------------------------*/
  if (((isrflags & USART_ISR_TC) != 0U) && ((cr1its & USART_CR1_TCIE) != 0U))
 8004ca8:	f8d7 30e4 	ldr.w	r3, [r7, #228]	@ 0xe4
 8004cac:	f003 0340 	and.w	r3, r3, #64	@ 0x40
 8004cb0:	2b00      	cmp	r3, #0
 8004cb2:	d012      	beq.n	8004cda <HAL_UART_IRQHandler+0x5d2>
 8004cb4:	f8d7 30e0 	ldr.w	r3, [r7, #224]	@ 0xe0
 8004cb8:	f003 0340 	and.w	r3, r3, #64	@ 0x40
 8004cbc:	2b00      	cmp	r3, #0
 8004cbe:	d00c      	beq.n	8004cda <HAL_UART_IRQHandler+0x5d2>
  {
    UART_EndTransmit_IT(huart);
 8004cc0:	6878      	ldr	r0, [r7, #4]
 8004cc2:	f000 fd33 	bl	800572c <UART_EndTransmit_IT>
    return;
 8004cc6:	e008      	b.n	8004cda <HAL_UART_IRQHandler+0x5d2>
      return;
 8004cc8:	bf00      	nop
 8004cca:	e006      	b.n	8004cda <HAL_UART_IRQHandler+0x5d2>
    return;
 8004ccc:	bf00      	nop
 8004cce:	e004      	b.n	8004cda <HAL_UART_IRQHandler+0x5d2>
      return;
 8004cd0:	bf00      	nop
 8004cd2:	e002      	b.n	8004cda <HAL_UART_IRQHandler+0x5d2>
      return;
 8004cd4:	bf00      	nop
 8004cd6:	e000      	b.n	8004cda <HAL_UART_IRQHandler+0x5d2>
    return;
 8004cd8:	bf00      	nop
  }

}
 8004cda:	37e8      	adds	r7, #232	@ 0xe8
 8004cdc:	46bd      	mov	sp, r7
 8004cde:	bd80      	pop	{r7, pc}

08004ce0 <HAL_UART_TxCpltCallback>:
  * @brief Tx Transfer completed callback.
  * @param huart UART handle.
  * @retval None
  */
__weak void HAL_UART_TxCpltCallback(UART_HandleTypeDef *huart)
{
 8004ce0:	b480      	push	{r7}
 8004ce2:	b083      	sub	sp, #12
 8004ce4:	af00      	add	r7, sp, #0
 8004ce6:	6078      	str	r0, [r7, #4]
  UNUSED(huart);

  /* NOTE : This function should not be modified, when the callback is needed,
            the HAL_UART_TxCpltCallback can be implemented in the user file.
   */
}
 8004ce8:	bf00      	nop
 8004cea:	370c      	adds	r7, #12
 8004cec:	46bd      	mov	sp, r7
 8004cee:	f85d 7b04 	ldr.w	r7, [sp], #4
 8004cf2:	4770      	bx	lr

08004cf4 <HAL_UART_ErrorCallback>:
  * @brief  UART error callback.
  * @param  huart UART handle.
  * @retval None
  */
__weak void HAL_UART_ErrorCallback(UART_HandleTypeDef *huart)
{
 8004cf4:	b480      	push	{r7}
 8004cf6:	b083      	sub	sp, #12
 8004cf8:	af00      	add	r7, sp, #0
 8004cfa:	6078      	str	r0, [r7, #4]
  UNUSED(huart);

  /* NOTE : This function should not be modified, when the callback is needed,
            the HAL_UART_ErrorCallback can be implemented in the user file.
   */
}
 8004cfc:	bf00      	nop
 8004cfe:	370c      	adds	r7, #12
 8004d00:	46bd      	mov	sp, r7
 8004d02:	f85d 7b04 	ldr.w	r7, [sp], #4
 8004d06:	4770      	bx	lr

08004d08 <HAL_UARTEx_RxEventCallback>:
  * @param  Size  Number of data available in application reception buffer (indicates a position in
  *               reception buffer until which, data are available)
  * @retval None
  */
__weak void HAL_UARTEx_RxEventCallback(UART_HandleTypeDef *huart, uint16_t Size)
{
 8004d08:	b480      	push	{r7}
 8004d0a:	b083      	sub	sp, #12
 8004d0c:	af00      	add	r7, sp, #0
 8004d0e:	6078      	str	r0, [r7, #4]
 8004d10:	460b      	mov	r3, r1
 8004d12:	807b      	strh	r3, [r7, #2]
  UNUSED(Size);

  /* NOTE : This function should not be modified, when the callback is needed,
            the HAL_UARTEx_RxEventCallback can be implemented in the user file.
   */
}
 8004d14:	bf00      	nop
 8004d16:	370c      	adds	r7, #12
 8004d18:	46bd      	mov	sp, r7
 8004d1a:	f85d 7b04 	ldr.w	r7, [sp], #4
 8004d1e:	4770      	bx	lr

08004d20 <UART_SetConfig>:
  * @brief Configure the UART peripheral.
  * @param huart UART handle.
  * @retval HAL status
  */
HAL_StatusTypeDef UART_SetConfig(UART_HandleTypeDef *huart)
{
 8004d20:	b580      	push	{r7, lr}
 8004d22:	b088      	sub	sp, #32
 8004d24:	af00      	add	r7, sp, #0
 8004d26:	6078      	str	r0, [r7, #4]
  uint32_t tmpreg;
  uint16_t brrtemp;
  UART_ClockSourceTypeDef clocksource;
  uint32_t usartdiv;
  HAL_StatusTypeDef ret               = HAL_OK;
 8004d28:	2300      	movs	r3, #0
 8004d2a:	77bb      	strb	r3, [r7, #30]
  *  the UART Word Length, Parity, Mode and oversampling:
  *  set the M bits according to huart->Init.WordLength value
  *  set PCE and PS bits according to huart->Init.Parity value
  *  set TE and RE bits according to huart->Init.Mode value
  *  set OVER8 bit according to huart->Init.OverSampling value */
  tmpreg = (uint32_t)huart->Init.WordLength | huart->Init.Parity | huart->Init.Mode | huart->Init.OverSampling ;
 8004d2c:	687b      	ldr	r3, [r7, #4]
 8004d2e:	689a      	ldr	r2, [r3, #8]
 8004d30:	687b      	ldr	r3, [r7, #4]
 8004d32:	691b      	ldr	r3, [r3, #16]
 8004d34:	431a      	orrs	r2, r3
 8004d36:	687b      	ldr	r3, [r7, #4]
 8004d38:	695b      	ldr	r3, [r3, #20]
 8004d3a:	431a      	orrs	r2, r3
 8004d3c:	687b      	ldr	r3, [r7, #4]
 8004d3e:	69db      	ldr	r3, [r3, #28]
 8004d40:	4313      	orrs	r3, r2
 8004d42:	617b      	str	r3, [r7, #20]
  MODIFY_REG(huart->Instance->CR1, USART_CR1_FIELDS, tmpreg);
 8004d44:	687b      	ldr	r3, [r7, #4]
 8004d46:	681b      	ldr	r3, [r3, #0]
 8004d48:	681a      	ldr	r2, [r3, #0]
 8004d4a:	4ba6      	ldr	r3, [pc, #664]	@ (8004fe4 <UART_SetConfig+0x2c4>)
 8004d4c:	4013      	ands	r3, r2
 8004d4e:	687a      	ldr	r2, [r7, #4]
 8004d50:	6812      	ldr	r2, [r2, #0]
 8004d52:	6979      	ldr	r1, [r7, #20]
 8004d54:	430b      	orrs	r3, r1
 8004d56:	6013      	str	r3, [r2, #0]

  /*-------------------------- USART CR2 Configuration -----------------------*/
  /* Configure the UART Stop Bits: Set STOP[13:12] bits according
  * to huart->Init.StopBits value */
  MODIFY_REG(huart->Instance->CR2, USART_CR2_STOP, huart->Init.StopBits);
 8004d58:	687b      	ldr	r3, [r7, #4]
 8004d5a:	681b      	ldr	r3, [r3, #0]
 8004d5c:	685b      	ldr	r3, [r3, #4]
 8004d5e:	f423 5140 	bic.w	r1, r3, #12288	@ 0x3000
 8004d62:	687b      	ldr	r3, [r7, #4]
 8004d64:	68da      	ldr	r2, [r3, #12]
 8004d66:	687b      	ldr	r3, [r7, #4]
 8004d68:	681b      	ldr	r3, [r3, #0]
 8004d6a:	430a      	orrs	r2, r1
 8004d6c:	605a      	str	r2, [r3, #4]
  /* Configure
  * - UART HardWare Flow Control: set CTSE and RTSE bits according
  *   to huart->Init.HwFlowCtl value
  * - one-bit sampling method versus three samples' majority rule according
  *   to huart->Init.OneBitSampling (not applicable to LPUART) */
  tmpreg = (uint32_t)huart->Init.HwFlowCtl;
 8004d6e:	687b      	ldr	r3, [r7, #4]
 8004d70:	699b      	ldr	r3, [r3, #24]
 8004d72:	617b      	str	r3, [r7, #20]

  tmpreg |= huart->Init.OneBitSampling;
 8004d74:	687b      	ldr	r3, [r7, #4]
 8004d76:	6a1b      	ldr	r3, [r3, #32]
 8004d78:	697a      	ldr	r2, [r7, #20]
 8004d7a:	4313      	orrs	r3, r2
 8004d7c:	617b      	str	r3, [r7, #20]
  MODIFY_REG(huart->Instance->CR3, USART_CR3_FIELDS, tmpreg);
 8004d7e:	687b      	ldr	r3, [r7, #4]
 8004d80:	681b      	ldr	r3, [r3, #0]
 8004d82:	689b      	ldr	r3, [r3, #8]
 8004d84:	f423 6130 	bic.w	r1, r3, #2816	@ 0xb00
 8004d88:	687b      	ldr	r3, [r7, #4]
 8004d8a:	681b      	ldr	r3, [r3, #0]
 8004d8c:	697a      	ldr	r2, [r7, #20]
 8004d8e:	430a      	orrs	r2, r1
 8004d90:	609a      	str	r2, [r3, #8]


  /*-------------------------- USART BRR Configuration -----------------------*/
  UART_GETCLOCKSOURCE(huart, clocksource);
 8004d92:	687b      	ldr	r3, [r7, #4]
 8004d94:	681b      	ldr	r3, [r3, #0]
 8004d96:	4a94      	ldr	r2, [pc, #592]	@ (8004fe8 <UART_SetConfig+0x2c8>)
 8004d98:	4293      	cmp	r3, r2
 8004d9a:	d120      	bne.n	8004dde <UART_SetConfig+0xbe>
 8004d9c:	4b93      	ldr	r3, [pc, #588]	@ (8004fec <UART_SetConfig+0x2cc>)
 8004d9e:	f8d3 3090 	ldr.w	r3, [r3, #144]	@ 0x90
 8004da2:	f003 0303 	and.w	r3, r3, #3
 8004da6:	2b03      	cmp	r3, #3
 8004da8:	d816      	bhi.n	8004dd8 <UART_SetConfig+0xb8>
 8004daa:	a201      	add	r2, pc, #4	@ (adr r2, 8004db0 <UART_SetConfig+0x90>)
 8004dac:	f852 f023 	ldr.w	pc, [r2, r3, lsl #2]
 8004db0:	08004dc1 	.word	0x08004dc1
 8004db4:	08004dcd 	.word	0x08004dcd
 8004db8:	08004dc7 	.word	0x08004dc7
 8004dbc:	08004dd3 	.word	0x08004dd3
 8004dc0:	2301      	movs	r3, #1
 8004dc2:	77fb      	strb	r3, [r7, #31]
 8004dc4:	e150      	b.n	8005068 <UART_SetConfig+0x348>
 8004dc6:	2302      	movs	r3, #2
 8004dc8:	77fb      	strb	r3, [r7, #31]
 8004dca:	e14d      	b.n	8005068 <UART_SetConfig+0x348>
 8004dcc:	2304      	movs	r3, #4
 8004dce:	77fb      	strb	r3, [r7, #31]
 8004dd0:	e14a      	b.n	8005068 <UART_SetConfig+0x348>
 8004dd2:	2308      	movs	r3, #8
 8004dd4:	77fb      	strb	r3, [r7, #31]
 8004dd6:	e147      	b.n	8005068 <UART_SetConfig+0x348>
 8004dd8:	2310      	movs	r3, #16
 8004dda:	77fb      	strb	r3, [r7, #31]
 8004ddc:	e144      	b.n	8005068 <UART_SetConfig+0x348>
 8004dde:	687b      	ldr	r3, [r7, #4]
 8004de0:	681b      	ldr	r3, [r3, #0]
 8004de2:	4a83      	ldr	r2, [pc, #524]	@ (8004ff0 <UART_SetConfig+0x2d0>)
 8004de4:	4293      	cmp	r3, r2
 8004de6:	d132      	bne.n	8004e4e <UART_SetConfig+0x12e>
 8004de8:	4b80      	ldr	r3, [pc, #512]	@ (8004fec <UART_SetConfig+0x2cc>)
 8004dea:	f8d3 3090 	ldr.w	r3, [r3, #144]	@ 0x90
 8004dee:	f003 030c 	and.w	r3, r3, #12
 8004df2:	2b0c      	cmp	r3, #12
 8004df4:	d828      	bhi.n	8004e48 <UART_SetConfig+0x128>
 8004df6:	a201      	add	r2, pc, #4	@ (adr r2, 8004dfc <UART_SetConfig+0xdc>)
 8004df8:	f852 f023 	ldr.w	pc, [r2, r3, lsl #2]
 8004dfc:	08004e31 	.word	0x08004e31
 8004e00:	08004e49 	.word	0x08004e49
 8004e04:	08004e49 	.word	0x08004e49
 8004e08:	08004e49 	.word	0x08004e49
 8004e0c:	08004e3d 	.word	0x08004e3d
 8004e10:	08004e49 	.word	0x08004e49
 8004e14:	08004e49 	.word	0x08004e49
 8004e18:	08004e49 	.word	0x08004e49
 8004e1c:	08004e37 	.word	0x08004e37
 8004e20:	08004e49 	.word	0x08004e49
 8004e24:	08004e49 	.word	0x08004e49
 8004e28:	08004e49 	.word	0x08004e49
 8004e2c:	08004e43 	.word	0x08004e43
 8004e30:	2300      	movs	r3, #0
 8004e32:	77fb      	strb	r3, [r7, #31]
 8004e34:	e118      	b.n	8005068 <UART_SetConfig+0x348>
 8004e36:	2302      	movs	r3, #2
 8004e38:	77fb      	strb	r3, [r7, #31]
 8004e3a:	e115      	b.n	8005068 <UART_SetConfig+0x348>
 8004e3c:	2304      	movs	r3, #4
 8004e3e:	77fb      	strb	r3, [r7, #31]
 8004e40:	e112      	b.n	8005068 <UART_SetConfig+0x348>
 8004e42:	2308      	movs	r3, #8
 8004e44:	77fb      	strb	r3, [r7, #31]
 8004e46:	e10f      	b.n	8005068 <UART_SetConfig+0x348>
 8004e48:	2310      	movs	r3, #16
 8004e4a:	77fb      	strb	r3, [r7, #31]
 8004e4c:	e10c      	b.n	8005068 <UART_SetConfig+0x348>
 8004e4e:	687b      	ldr	r3, [r7, #4]
 8004e50:	681b      	ldr	r3, [r3, #0]
 8004e52:	4a68      	ldr	r2, [pc, #416]	@ (8004ff4 <UART_SetConfig+0x2d4>)
 8004e54:	4293      	cmp	r3, r2
 8004e56:	d120      	bne.n	8004e9a <UART_SetConfig+0x17a>
 8004e58:	4b64      	ldr	r3, [pc, #400]	@ (8004fec <UART_SetConfig+0x2cc>)
 8004e5a:	f8d3 3090 	ldr.w	r3, [r3, #144]	@ 0x90
 8004e5e:	f003 0330 	and.w	r3, r3, #48	@ 0x30
 8004e62:	2b30      	cmp	r3, #48	@ 0x30
 8004e64:	d013      	beq.n	8004e8e <UART_SetConfig+0x16e>
 8004e66:	2b30      	cmp	r3, #48	@ 0x30
 8004e68:	d814      	bhi.n	8004e94 <UART_SetConfig+0x174>
 8004e6a:	2b20      	cmp	r3, #32
 8004e6c:	d009      	beq.n	8004e82 <UART_SetConfig+0x162>
 8004e6e:	2b20      	cmp	r3, #32
 8004e70:	d810      	bhi.n	8004e94 <UART_SetConfig+0x174>
 8004e72:	2b00      	cmp	r3, #0
 8004e74:	d002      	beq.n	8004e7c <UART_SetConfig+0x15c>
 8004e76:	2b10      	cmp	r3, #16
 8004e78:	d006      	beq.n	8004e88 <UART_SetConfig+0x168>
 8004e7a:	e00b      	b.n	8004e94 <UART_SetConfig+0x174>
 8004e7c:	2300      	movs	r3, #0
 8004e7e:	77fb      	strb	r3, [r7, #31]
 8004e80:	e0f2      	b.n	8005068 <UART_SetConfig+0x348>
 8004e82:	2302      	movs	r3, #2
 8004e84:	77fb      	strb	r3, [r7, #31]
 8004e86:	e0ef      	b.n	8005068 <UART_SetConfig+0x348>
 8004e88:	2304      	movs	r3, #4
 8004e8a:	77fb      	strb	r3, [r7, #31]
 8004e8c:	e0ec      	b.n	8005068 <UART_SetConfig+0x348>
 8004e8e:	2308      	movs	r3, #8
 8004e90:	77fb      	strb	r3, [r7, #31]
 8004e92:	e0e9      	b.n	8005068 <UART_SetConfig+0x348>
 8004e94:	2310      	movs	r3, #16
 8004e96:	77fb      	strb	r3, [r7, #31]
 8004e98:	e0e6      	b.n	8005068 <UART_SetConfig+0x348>
 8004e9a:	687b      	ldr	r3, [r7, #4]
 8004e9c:	681b      	ldr	r3, [r3, #0]
 8004e9e:	4a56      	ldr	r2, [pc, #344]	@ (8004ff8 <UART_SetConfig+0x2d8>)
 8004ea0:	4293      	cmp	r3, r2
 8004ea2:	d120      	bne.n	8004ee6 <UART_SetConfig+0x1c6>
 8004ea4:	4b51      	ldr	r3, [pc, #324]	@ (8004fec <UART_SetConfig+0x2cc>)
 8004ea6:	f8d3 3090 	ldr.w	r3, [r3, #144]	@ 0x90
 8004eaa:	f003 03c0 	and.w	r3, r3, #192	@ 0xc0
 8004eae:	2bc0      	cmp	r3, #192	@ 0xc0
 8004eb0:	d013      	beq.n	8004eda <UART_SetConfig+0x1ba>
 8004eb2:	2bc0      	cmp	r3, #192	@ 0xc0
 8004eb4:	d814      	bhi.n	8004ee0 <UART_SetConfig+0x1c0>
 8004eb6:	2b80      	cmp	r3, #128	@ 0x80
 8004eb8:	d009      	beq.n	8004ece <UART_SetConfig+0x1ae>
 8004eba:	2b80      	cmp	r3, #128	@ 0x80
 8004ebc:	d810      	bhi.n	8004ee0 <UART_SetConfig+0x1c0>
 8004ebe:	2b00      	cmp	r3, #0
 8004ec0:	d002      	beq.n	8004ec8 <UART_SetConfig+0x1a8>
 8004ec2:	2b40      	cmp	r3, #64	@ 0x40
 8004ec4:	d006      	beq.n	8004ed4 <UART_SetConfig+0x1b4>
 8004ec6:	e00b      	b.n	8004ee0 <UART_SetConfig+0x1c0>
 8004ec8:	2300      	movs	r3, #0
 8004eca:	77fb      	strb	r3, [r7, #31]
 8004ecc:	e0cc      	b.n	8005068 <UART_SetConfig+0x348>
 8004ece:	2302      	movs	r3, #2
 8004ed0:	77fb      	strb	r3, [r7, #31]
 8004ed2:	e0c9      	b.n	8005068 <UART_SetConfig+0x348>
 8004ed4:	2304      	movs	r3, #4
 8004ed6:	77fb      	strb	r3, [r7, #31]
 8004ed8:	e0c6      	b.n	8005068 <UART_SetConfig+0x348>
 8004eda:	2308      	movs	r3, #8
 8004edc:	77fb      	strb	r3, [r7, #31]
 8004ede:	e0c3      	b.n	8005068 <UART_SetConfig+0x348>
 8004ee0:	2310      	movs	r3, #16
 8004ee2:	77fb      	strb	r3, [r7, #31]
 8004ee4:	e0c0      	b.n	8005068 <UART_SetConfig+0x348>
 8004ee6:	687b      	ldr	r3, [r7, #4]
 8004ee8:	681b      	ldr	r3, [r3, #0]
 8004eea:	4a44      	ldr	r2, [pc, #272]	@ (8004ffc <UART_SetConfig+0x2dc>)
 8004eec:	4293      	cmp	r3, r2
 8004eee:	d125      	bne.n	8004f3c <UART_SetConfig+0x21c>
 8004ef0:	4b3e      	ldr	r3, [pc, #248]	@ (8004fec <UART_SetConfig+0x2cc>)
 8004ef2:	f8d3 3090 	ldr.w	r3, [r3, #144]	@ 0x90
 8004ef6:	f403 7340 	and.w	r3, r3, #768	@ 0x300
 8004efa:	f5b3 7f40 	cmp.w	r3, #768	@ 0x300
 8004efe:	d017      	beq.n	8004f30 <UART_SetConfig+0x210>
 8004f00:	f5b3 7f40 	cmp.w	r3, #768	@ 0x300
 8004f04:	d817      	bhi.n	8004f36 <UART_SetConfig+0x216>
 8004f06:	f5b3 7f00 	cmp.w	r3, #512	@ 0x200
 8004f0a:	d00b      	beq.n	8004f24 <UART_SetConfig+0x204>
 8004f0c:	f5b3 7f00 	cmp.w	r3, #512	@ 0x200
 8004f10:	d811      	bhi.n	8004f36 <UART_SetConfig+0x216>
 8004f12:	2b00      	cmp	r3, #0
 8004f14:	d003      	beq.n	8004f1e <UART_SetConfig+0x1fe>
 8004f16:	f5b3 7f80 	cmp.w	r3, #256	@ 0x100
 8004f1a:	d006      	beq.n	8004f2a <UART_SetConfig+0x20a>
 8004f1c:	e00b      	b.n	8004f36 <UART_SetConfig+0x216>
 8004f1e:	2300      	movs	r3, #0
 8004f20:	77fb      	strb	r3, [r7, #31]
 8004f22:	e0a1      	b.n	8005068 <UART_SetConfig+0x348>
 8004f24:	2302      	movs	r3, #2
 8004f26:	77fb      	strb	r3, [r7, #31]
 8004f28:	e09e      	b.n	8005068 <UART_SetConfig+0x348>
 8004f2a:	2304      	movs	r3, #4
 8004f2c:	77fb      	strb	r3, [r7, #31]
 8004f2e:	e09b      	b.n	8005068 <UART_SetConfig+0x348>
 8004f30:	2308      	movs	r3, #8
 8004f32:	77fb      	strb	r3, [r7, #31]
 8004f34:	e098      	b.n	8005068 <UART_SetConfig+0x348>
 8004f36:	2310      	movs	r3, #16
 8004f38:	77fb      	strb	r3, [r7, #31]
 8004f3a:	e095      	b.n	8005068 <UART_SetConfig+0x348>
 8004f3c:	687b      	ldr	r3, [r7, #4]
 8004f3e:	681b      	ldr	r3, [r3, #0]
 8004f40:	4a2f      	ldr	r2, [pc, #188]	@ (8005000 <UART_SetConfig+0x2e0>)
 8004f42:	4293      	cmp	r3, r2
 8004f44:	d125      	bne.n	8004f92 <UART_SetConfig+0x272>
 8004f46:	4b29      	ldr	r3, [pc, #164]	@ (8004fec <UART_SetConfig+0x2cc>)
 8004f48:	f8d3 3090 	ldr.w	r3, [r3, #144]	@ 0x90
 8004f4c:	f403 6340 	and.w	r3, r3, #3072	@ 0xc00
 8004f50:	f5b3 6f40 	cmp.w	r3, #3072	@ 0xc00
 8004f54:	d017      	beq.n	8004f86 <UART_SetConfig+0x266>
 8004f56:	f5b3 6f40 	cmp.w	r3, #3072	@ 0xc00
 8004f5a:	d817      	bhi.n	8004f8c <UART_SetConfig+0x26c>
 8004f5c:	f5b3 6f00 	cmp.w	r3, #2048	@ 0x800
 8004f60:	d00b      	beq.n	8004f7a <UART_SetConfig+0x25a>
 8004f62:	f5b3 6f00 	cmp.w	r3, #2048	@ 0x800
 8004f66:	d811      	bhi.n	8004f8c <UART_SetConfig+0x26c>
 8004f68:	2b00      	cmp	r3, #0
 8004f6a:	d003      	beq.n	8004f74 <UART_SetConfig+0x254>
 8004f6c:	f5b3 6f80 	cmp.w	r3, #1024	@ 0x400
 8004f70:	d006      	beq.n	8004f80 <UART_SetConfig+0x260>
 8004f72:	e00b      	b.n	8004f8c <UART_SetConfig+0x26c>
 8004f74:	2301      	movs	r3, #1
 8004f76:	77fb      	strb	r3, [r7, #31]
 8004f78:	e076      	b.n	8005068 <UART_SetConfig+0x348>
 8004f7a:	2302      	movs	r3, #2
 8004f7c:	77fb      	strb	r3, [r7, #31]
 8004f7e:	e073      	b.n	8005068 <UART_SetConfig+0x348>
 8004f80:	2304      	movs	r3, #4
 8004f82:	77fb      	strb	r3, [r7, #31]
 8004f84:	e070      	b.n	8005068 <UART_SetConfig+0x348>
 8004f86:	2308      	movs	r3, #8
 8004f88:	77fb      	strb	r3, [r7, #31]
 8004f8a:	e06d      	b.n	8005068 <UART_SetConfig+0x348>
 8004f8c:	2310      	movs	r3, #16
 8004f8e:	77fb      	strb	r3, [r7, #31]
 8004f90:	e06a      	b.n	8005068 <UART_SetConfig+0x348>
 8004f92:	687b      	ldr	r3, [r7, #4]
 8004f94:	681b      	ldr	r3, [r3, #0]
 8004f96:	4a1b      	ldr	r2, [pc, #108]	@ (8005004 <UART_SetConfig+0x2e4>)
 8004f98:	4293      	cmp	r3, r2
 8004f9a:	d138      	bne.n	800500e <UART_SetConfig+0x2ee>
 8004f9c:	4b13      	ldr	r3, [pc, #76]	@ (8004fec <UART_SetConfig+0x2cc>)
 8004f9e:	f8d3 3090 	ldr.w	r3, [r3, #144]	@ 0x90
 8004fa2:	f403 5340 	and.w	r3, r3, #12288	@ 0x3000
 8004fa6:	f5b3 5f40 	cmp.w	r3, #12288	@ 0x3000
 8004faa:	d017      	beq.n	8004fdc <UART_SetConfig+0x2bc>
 8004fac:	f5b3 5f40 	cmp.w	r3, #12288	@ 0x3000
 8004fb0:	d82a      	bhi.n	8005008 <UART_SetConfig+0x2e8>
 8004fb2:	f5b3 5f00 	cmp.w	r3, #8192	@ 0x2000
 8004fb6:	d00b      	beq.n	8004fd0 <UART_SetConfig+0x2b0>
 8004fb8:	f5b3 5f00 	cmp.w	r3, #8192	@ 0x2000
 8004fbc:	d824      	bhi.n	8005008 <UART_SetConfig+0x2e8>
 8004fbe:	2b00      	cmp	r3, #0
 8004fc0:	d003      	beq.n	8004fca <UART_SetConfig+0x2aa>
 8004fc2:	f5b3 5f80 	cmp.w	r3, #4096	@ 0x1000
 8004fc6:	d006      	beq.n	8004fd6 <UART_SetConfig+0x2b6>
 8004fc8:	e01e      	b.n	8005008 <UART_SetConfig+0x2e8>
 8004fca:	2300      	movs	r3, #0
 8004fcc:	77fb      	strb	r3, [r7, #31]
 8004fce:	e04b      	b.n	8005068 <UART_SetConfig+0x348>
 8004fd0:	2302      	movs	r3, #2
 8004fd2:	77fb      	strb	r3, [r7, #31]
 8004fd4:	e048      	b.n	8005068 <UART_SetConfig+0x348>
 8004fd6:	2304      	movs	r3, #4
 8004fd8:	77fb      	strb	r3, [r7, #31]
 8004fda:	e045      	b.n	8005068 <UART_SetConfig+0x348>
 8004fdc:	2308      	movs	r3, #8
 8004fde:	77fb      	strb	r3, [r7, #31]
 8004fe0:	e042      	b.n	8005068 <UART_SetConfig+0x348>
 8004fe2:	bf00      	nop
 8004fe4:	efff69f3 	.word	0xefff69f3
 8004fe8:	40011000 	.word	0x40011000
 8004fec:	40023800 	.word	0x40023800
 8004ff0:	40004400 	.word	0x40004400
 8004ff4:	40004800 	.word	0x40004800
 8004ff8:	40004c00 	.word	0x40004c00
 8004ffc:	40005000 	.word	0x40005000
 8005000:	40011400 	.word	0x40011400
 8005004:	40007800 	.word	0x40007800
 8005008:	2310      	movs	r3, #16
 800500a:	77fb      	strb	r3, [r7, #31]
 800500c:	e02c      	b.n	8005068 <UART_SetConfig+0x348>
 800500e:	687b      	ldr	r3, [r7, #4]
 8005010:	681b      	ldr	r3, [r3, #0]
 8005012:	4a72      	ldr	r2, [pc, #456]	@ (80051dc <UART_SetConfig+0x4bc>)
 8005014:	4293      	cmp	r3, r2
 8005016:	d125      	bne.n	8005064 <UART_SetConfig+0x344>
 8005018:	4b71      	ldr	r3, [pc, #452]	@ (80051e0 <UART_SetConfig+0x4c0>)
 800501a:	f8d3 3090 	ldr.w	r3, [r3, #144]	@ 0x90
 800501e:	f403 4340 	and.w	r3, r3, #49152	@ 0xc000
 8005022:	f5b3 4f40 	cmp.w	r3, #49152	@ 0xc000
 8005026:	d017      	beq.n	8005058 <UART_SetConfig+0x338>
 8005028:	f5b3 4f40 	cmp.w	r3, #49152	@ 0xc000
 800502c:	d817      	bhi.n	800505e <UART_SetConfig+0x33e>
 800502e:	f5b3 4f00 	cmp.w	r3, #32768	@ 0x8000
 8005032:	d00b      	beq.n	800504c <UART_SetConfig+0x32c>
 8005034:	f5b3 4f00 	cmp.w	r3, #32768	@ 0x8000
 8005038:	d811      	bhi.n	800505e <UART_SetConfig+0x33e>
 800503a:	2b00      	cmp	r3, #0
 800503c:	d003      	beq.n	8005046 <UART_SetConfig+0x326>
 800503e:	f5b3 4f80 	cmp.w	r3, #16384	@ 0x4000
 8005042:	d006      	beq.n	8005052 <UART_SetConfig+0x332>
 8005044:	e00b      	b.n	800505e <UART_SetConfig+0x33e>
 8005046:	2300      	movs	r3, #0
 8005048:	77fb      	strb	r3, [r7, #31]
 800504a:	e00d      	b.n	8005068 <UART_SetConfig+0x348>
 800504c:	2302      	movs	r3, #2
 800504e:	77fb      	strb	r3, [r7, #31]
 8005050:	e00a      	b.n	8005068 <UART_SetConfig+0x348>
 8005052:	2304      	movs	r3, #4
 8005054:	77fb      	strb	r3, [r7, #31]
 8005056:	e007      	b.n	8005068 <UART_SetConfig+0x348>
 8005058:	2308      	movs	r3, #8
 800505a:	77fb      	strb	r3, [r7, #31]
 800505c:	e004      	b.n	8005068 <UART_SetConfig+0x348>
 800505e:	2310      	movs	r3, #16
 8005060:	77fb      	strb	r3, [r7, #31]
 8005062:	e001      	b.n	8005068 <UART_SetConfig+0x348>
 8005064:	2310      	movs	r3, #16
 8005066:	77fb      	strb	r3, [r7, #31]

  if (huart->Init.OverSampling == UART_OVERSAMPLING_8)
 8005068:	687b      	ldr	r3, [r7, #4]
 800506a:	69db      	ldr	r3, [r3, #28]
 800506c:	f5b3 4f00 	cmp.w	r3, #32768	@ 0x8000
 8005070:	d15b      	bne.n	800512a <UART_SetConfig+0x40a>
  {
    switch (clocksource)
 8005072:	7ffb      	ldrb	r3, [r7, #31]
 8005074:	2b08      	cmp	r3, #8
 8005076:	d828      	bhi.n	80050ca <UART_SetConfig+0x3aa>
 8005078:	a201      	add	r2, pc, #4	@ (adr r2, 8005080 <UART_SetConfig+0x360>)
 800507a:	f852 f023 	ldr.w	pc, [r2, r3, lsl #2]
 800507e:	bf00      	nop
 8005080:	080050a5 	.word	0x080050a5
 8005084:	080050ad 	.word	0x080050ad
 8005088:	080050b5 	.word	0x080050b5
 800508c:	080050cb 	.word	0x080050cb
 8005090:	080050bb 	.word	0x080050bb
 8005094:	080050cb 	.word	0x080050cb
 8005098:	080050cb 	.word	0x080050cb
 800509c:	080050cb 	.word	0x080050cb
 80050a0:	080050c3 	.word	0x080050c3
    {
      case UART_CLOCKSOURCE_PCLK1:
        pclk = HAL_RCC_GetPCLK1Freq();
 80050a4:	f7fe fdfc 	bl	8003ca0 <HAL_RCC_GetPCLK1Freq>
 80050a8:	61b8      	str	r0, [r7, #24]
        break;
 80050aa:	e013      	b.n	80050d4 <UART_SetConfig+0x3b4>
      case UART_CLOCKSOURCE_PCLK2:
        pclk = HAL_RCC_GetPCLK2Freq();
 80050ac:	f7fe fe0c 	bl	8003cc8 <HAL_RCC_GetPCLK2Freq>
 80050b0:	61b8      	str	r0, [r7, #24]
        break;
 80050b2:	e00f      	b.n	80050d4 <UART_SetConfig+0x3b4>
      case UART_CLOCKSOURCE_HSI:
        pclk = (uint32_t) HSI_VALUE;
 80050b4:	4b4b      	ldr	r3, [pc, #300]	@ (80051e4 <UART_SetConfig+0x4c4>)
 80050b6:	61bb      	str	r3, [r7, #24]
        break;
 80050b8:	e00c      	b.n	80050d4 <UART_SetConfig+0x3b4>
      case UART_CLOCKSOURCE_SYSCLK:
        pclk = HAL_RCC_GetSysClockFreq();
 80050ba:	f7fe fd1f 	bl	8003afc <HAL_RCC_GetSysClockFreq>
 80050be:	61b8      	str	r0, [r7, #24]
        break;
 80050c0:	e008      	b.n	80050d4 <UART_SetConfig+0x3b4>
      case UART_CLOCKSOURCE_LSE:
        pclk = (uint32_t) LSE_VALUE;
 80050c2:	f44f 4300 	mov.w	r3, #32768	@ 0x8000
 80050c6:	61bb      	str	r3, [r7, #24]
        break;
 80050c8:	e004      	b.n	80050d4 <UART_SetConfig+0x3b4>
      default:
        pclk = 0U;
 80050ca:	2300      	movs	r3, #0
 80050cc:	61bb      	str	r3, [r7, #24]
        ret = HAL_ERROR;
 80050ce:	2301      	movs	r3, #1
 80050d0:	77bb      	strb	r3, [r7, #30]
        break;
 80050d2:	bf00      	nop
    }

    /* USARTDIV must be greater than or equal to 0d16 */
    if (pclk != 0U)
 80050d4:	69bb      	ldr	r3, [r7, #24]
 80050d6:	2b00      	cmp	r3, #0
 80050d8:	d074      	beq.n	80051c4 <UART_SetConfig+0x4a4>
    {
      usartdiv = (uint32_t)(UART_DIV_SAMPLING8(pclk, huart->Init.BaudRate));
 80050da:	69bb      	ldr	r3, [r7, #24]
 80050dc:	005a      	lsls	r2, r3, #1
 80050de:	687b      	ldr	r3, [r7, #4]
 80050e0:	685b      	ldr	r3, [r3, #4]
 80050e2:	085b      	lsrs	r3, r3, #1
 80050e4:	441a      	add	r2, r3
 80050e6:	687b      	ldr	r3, [r7, #4]
 80050e8:	685b      	ldr	r3, [r3, #4]
 80050ea:	fbb2 f3f3 	udiv	r3, r2, r3
 80050ee:	613b      	str	r3, [r7, #16]
      if ((usartdiv >= UART_BRR_MIN) && (usartdiv <= UART_BRR_MAX))
 80050f0:	693b      	ldr	r3, [r7, #16]
 80050f2:	2b0f      	cmp	r3, #15
 80050f4:	d916      	bls.n	8005124 <UART_SetConfig+0x404>
 80050f6:	693b      	ldr	r3, [r7, #16]
 80050f8:	f5b3 3f80 	cmp.w	r3, #65536	@ 0x10000
 80050fc:	d212      	bcs.n	8005124 <UART_SetConfig+0x404>
      {
        brrtemp = (uint16_t)(usartdiv & 0xFFF0U);
 80050fe:	693b      	ldr	r3, [r7, #16]
 8005100:	b29b      	uxth	r3, r3
 8005102:	f023 030f 	bic.w	r3, r3, #15
 8005106:	81fb      	strh	r3, [r7, #14]
        brrtemp |= (uint16_t)((usartdiv & (uint16_t)0x000FU) >> 1U);
 8005108:	693b      	ldr	r3, [r7, #16]
 800510a:	085b      	lsrs	r3, r3, #1
 800510c:	b29b      	uxth	r3, r3
 800510e:	f003 0307 	and.w	r3, r3, #7
 8005112:	b29a      	uxth	r2, r3
 8005114:	89fb      	ldrh	r3, [r7, #14]
 8005116:	4313      	orrs	r3, r2
 8005118:	81fb      	strh	r3, [r7, #14]
        huart->Instance->BRR = brrtemp;
 800511a:	687b      	ldr	r3, [r7, #4]
 800511c:	681b      	ldr	r3, [r3, #0]
 800511e:	89fa      	ldrh	r2, [r7, #14]
 8005120:	60da      	str	r2, [r3, #12]
 8005122:	e04f      	b.n	80051c4 <UART_SetConfig+0x4a4>
      }
      else
      {
        ret = HAL_ERROR;
 8005124:	2301      	movs	r3, #1
 8005126:	77bb      	strb	r3, [r7, #30]
 8005128:	e04c      	b.n	80051c4 <UART_SetConfig+0x4a4>
      }
    }
  }
  else
  {
    switch (clocksource)
 800512a:	7ffb      	ldrb	r3, [r7, #31]
 800512c:	2b08      	cmp	r3, #8
 800512e:	d828      	bhi.n	8005182 <UART_SetConfig+0x462>
 8005130:	a201      	add	r2, pc, #4	@ (adr r2, 8005138 <UART_SetConfig+0x418>)
 8005132:	f852 f023 	ldr.w	pc, [r2, r3, lsl #2]
 8005136:	bf00      	nop
 8005138:	0800515d 	.word	0x0800515d
 800513c:	08005165 	.word	0x08005165
 8005140:	0800516d 	.word	0x0800516d
 8005144:	08005183 	.word	0x08005183
 8005148:	08005173 	.word	0x08005173
 800514c:	08005183 	.word	0x08005183
 8005150:	08005183 	.word	0x08005183
 8005154:	08005183 	.word	0x08005183
 8005158:	0800517b 	.word	0x0800517b
    {
      case UART_CLOCKSOURCE_PCLK1:
        pclk = HAL_RCC_GetPCLK1Freq();
 800515c:	f7fe fda0 	bl	8003ca0 <HAL_RCC_GetPCLK1Freq>
 8005160:	61b8      	str	r0, [r7, #24]
        break;
 8005162:	e013      	b.n	800518c <UART_SetConfig+0x46c>
      case UART_CLOCKSOURCE_PCLK2:
        pclk = HAL_RCC_GetPCLK2Freq();
 8005164:	f7fe fdb0 	bl	8003cc8 <HAL_RCC_GetPCLK2Freq>
 8005168:	61b8      	str	r0, [r7, #24]
        break;
 800516a:	e00f      	b.n	800518c <UART_SetConfig+0x46c>
      case UART_CLOCKSOURCE_HSI:
        pclk = (uint32_t) HSI_VALUE;
 800516c:	4b1d      	ldr	r3, [pc, #116]	@ (80051e4 <UART_SetConfig+0x4c4>)
 800516e:	61bb      	str	r3, [r7, #24]
        break;
 8005170:	e00c      	b.n	800518c <UART_SetConfig+0x46c>
      case UART_CLOCKSOURCE_SYSCLK:
        pclk = HAL_RCC_GetSysClockFreq();
 8005172:	f7fe fcc3 	bl	8003afc <HAL_RCC_GetSysClockFreq>
 8005176:	61b8      	str	r0, [r7, #24]
        break;
 8005178:	e008      	b.n	800518c <UART_SetConfig+0x46c>
      case UART_CLOCKSOURCE_LSE:
        pclk = (uint32_t) LSE_VALUE;
 800517a:	f44f 4300 	mov.w	r3, #32768	@ 0x8000
 800517e:	61bb      	str	r3, [r7, #24]
        break;
 8005180:	e004      	b.n	800518c <UART_SetConfig+0x46c>
      default:
        pclk = 0U;
 8005182:	2300      	movs	r3, #0
 8005184:	61bb      	str	r3, [r7, #24]
        ret = HAL_ERROR;
 8005186:	2301      	movs	r3, #1
 8005188:	77bb      	strb	r3, [r7, #30]
        break;
 800518a:	bf00      	nop
    }

    if (pclk != 0U)
 800518c:	69bb      	ldr	r3, [r7, #24]
 800518e:	2b00      	cmp	r3, #0
 8005190:	d018      	beq.n	80051c4 <UART_SetConfig+0x4a4>
    {
      /* USARTDIV must be greater than or equal to 0d16 */
      usartdiv = (uint32_t)(UART_DIV_SAMPLING16(pclk, huart->Init.BaudRate));
 8005192:	687b      	ldr	r3, [r7, #4]
 8005194:	685b      	ldr	r3, [r3, #4]
 8005196:	085a      	lsrs	r2, r3, #1
 8005198:	69bb      	ldr	r3, [r7, #24]
 800519a:	441a      	add	r2, r3
 800519c:	687b      	ldr	r3, [r7, #4]
 800519e:	685b      	ldr	r3, [r3, #4]
 80051a0:	fbb2 f3f3 	udiv	r3, r2, r3
 80051a4:	613b      	str	r3, [r7, #16]
      if ((usartdiv >= UART_BRR_MIN) && (usartdiv <= UART_BRR_MAX))
 80051a6:	693b      	ldr	r3, [r7, #16]
 80051a8:	2b0f      	cmp	r3, #15
 80051aa:	d909      	bls.n	80051c0 <UART_SetConfig+0x4a0>
 80051ac:	693b      	ldr	r3, [r7, #16]
 80051ae:	f5b3 3f80 	cmp.w	r3, #65536	@ 0x10000
 80051b2:	d205      	bcs.n	80051c0 <UART_SetConfig+0x4a0>
      {
        huart->Instance->BRR = (uint16_t)usartdiv;
 80051b4:	693b      	ldr	r3, [r7, #16]
 80051b6:	b29a      	uxth	r2, r3
 80051b8:	687b      	ldr	r3, [r7, #4]
 80051ba:	681b      	ldr	r3, [r3, #0]
 80051bc:	60da      	str	r2, [r3, #12]
 80051be:	e001      	b.n	80051c4 <UART_SetConfig+0x4a4>
      }
      else
      {
        ret = HAL_ERROR;
 80051c0:	2301      	movs	r3, #1
 80051c2:	77bb      	strb	r3, [r7, #30]
    }
  }


  /* Clear ISR function pointers */
  huart->RxISR = NULL;
 80051c4:	687b      	ldr	r3, [r7, #4]
 80051c6:	2200      	movs	r2, #0
 80051c8:	669a      	str	r2, [r3, #104]	@ 0x68
  huart->TxISR = NULL;
 80051ca:	687b      	ldr	r3, [r7, #4]
 80051cc:	2200      	movs	r2, #0
 80051ce:	66da      	str	r2, [r3, #108]	@ 0x6c

  return ret;
 80051d0:	7fbb      	ldrb	r3, [r7, #30]
}
 80051d2:	4618      	mov	r0, r3
 80051d4:	3720      	adds	r7, #32
 80051d6:	46bd      	mov	sp, r7
 80051d8:	bd80      	pop	{r7, pc}
 80051da:	bf00      	nop
 80051dc:	40007c00 	.word	0x40007c00
 80051e0:	40023800 	.word	0x40023800
 80051e4:	00f42400 	.word	0x00f42400

080051e8 <UART_AdvFeatureConfig>:
  * @brief Configure the UART peripheral advanced features.
  * @param huart UART handle.
  * @retval None
  */
void UART_AdvFeatureConfig(UART_HandleTypeDef *huart)
{
 80051e8:	b480      	push	{r7}
 80051ea:	b083      	sub	sp, #12
 80051ec:	af00      	add	r7, sp, #0
 80051ee:	6078      	str	r0, [r7, #4]
  /* Check whether the set of advanced features to configure is properly set */
  assert_param(IS_UART_ADVFEATURE_INIT(huart->AdvancedInit.AdvFeatureInit));

  /* if required, configure RX/TX pins swap */
  if (HAL_IS_BIT_SET(huart->AdvancedInit.AdvFeatureInit, UART_ADVFEATURE_SWAP_INIT))
 80051f0:	687b      	ldr	r3, [r7, #4]
 80051f2:	6a5b      	ldr	r3, [r3, #36]	@ 0x24
 80051f4:	f003 0308 	and.w	r3, r3, #8
 80051f8:	2b00      	cmp	r3, #0
 80051fa:	d00a      	beq.n	8005212 <UART_AdvFeatureConfig+0x2a>
  {
    assert_param(IS_UART_ADVFEATURE_SWAP(huart->AdvancedInit.Swap));
    MODIFY_REG(huart->Instance->CR2, USART_CR2_SWAP, huart->AdvancedInit.Swap);
 80051fc:	687b      	ldr	r3, [r7, #4]
 80051fe:	681b      	ldr	r3, [r3, #0]
 8005200:	685b      	ldr	r3, [r3, #4]
 8005202:	f423 4100 	bic.w	r1, r3, #32768	@ 0x8000
 8005206:	687b      	ldr	r3, [r7, #4]
 8005208:	6b5a      	ldr	r2, [r3, #52]	@ 0x34
 800520a:	687b      	ldr	r3, [r7, #4]
 800520c:	681b      	ldr	r3, [r3, #0]
 800520e:	430a      	orrs	r2, r1
 8005210:	605a      	str	r2, [r3, #4]
  }

  /* if required, configure TX pin active level inversion */
  if (HAL_IS_BIT_SET(huart->AdvancedInit.AdvFeatureInit, UART_ADVFEATURE_TXINVERT_INIT))
 8005212:	687b      	ldr	r3, [r7, #4]
 8005214:	6a5b      	ldr	r3, [r3, #36]	@ 0x24
 8005216:	f003 0301 	and.w	r3, r3, #1
 800521a:	2b00      	cmp	r3, #0
 800521c:	d00a      	beq.n	8005234 <UART_AdvFeatureConfig+0x4c>
  {
    assert_param(IS_UART_ADVFEATURE_TXINV(huart->AdvancedInit.TxPinLevelInvert));
    MODIFY_REG(huart->Instance->CR2, USART_CR2_TXINV, huart->AdvancedInit.TxPinLevelInvert);
 800521e:	687b      	ldr	r3, [r7, #4]
 8005220:	681b      	ldr	r3, [r3, #0]
 8005222:	685b      	ldr	r3, [r3, #4]
 8005224:	f423 3100 	bic.w	r1, r3, #131072	@ 0x20000
 8005228:	687b      	ldr	r3, [r7, #4]
 800522a:	6a9a      	ldr	r2, [r3, #40]	@ 0x28
 800522c:	687b      	ldr	r3, [r7, #4]
 800522e:	681b      	ldr	r3, [r3, #0]
 8005230:	430a      	orrs	r2, r1
 8005232:	605a      	str	r2, [r3, #4]
  }

  /* if required, configure RX pin active level inversion */
  if (HAL_IS_BIT_SET(huart->AdvancedInit.AdvFeatureInit, UART_ADVFEATURE_RXINVERT_INIT))
 8005234:	687b      	ldr	r3, [r7, #4]
 8005236:	6a5b      	ldr	r3, [r3, #36]	@ 0x24
 8005238:	f003 0302 	and.w	r3, r3, #2
 800523c:	2b00      	cmp	r3, #0
 800523e:	d00a      	beq.n	8005256 <UART_AdvFeatureConfig+0x6e>
  {
    assert_param(IS_UART_ADVFEATURE_RXINV(huart->AdvancedInit.RxPinLevelInvert));
    MODIFY_REG(huart->Instance->CR2, USART_CR2_RXINV, huart->AdvancedInit.RxPinLevelInvert);
 8005240:	687b      	ldr	r3, [r7, #4]
 8005242:	681b      	ldr	r3, [r3, #0]
 8005244:	685b      	ldr	r3, [r3, #4]
 8005246:	f423 3180 	bic.w	r1, r3, #65536	@ 0x10000
 800524a:	687b      	ldr	r3, [r7, #4]
 800524c:	6ada      	ldr	r2, [r3, #44]	@ 0x2c
 800524e:	687b      	ldr	r3, [r7, #4]
 8005250:	681b      	ldr	r3, [r3, #0]
 8005252:	430a      	orrs	r2, r1
 8005254:	605a      	str	r2, [r3, #4]
  }

  /* if required, configure data inversion */
  if (HAL_IS_BIT_SET(huart->AdvancedInit.AdvFeatureInit, UART_ADVFEATURE_DATAINVERT_INIT))
 8005256:	687b      	ldr	r3, [r7, #4]
 8005258:	6a5b      	ldr	r3, [r3, #36]	@ 0x24
 800525a:	f003 0304 	and.w	r3, r3, #4
 800525e:	2b00      	cmp	r3, #0
 8005260:	d00a      	beq.n	8005278 <UART_AdvFeatureConfig+0x90>
  {
    assert_param(IS_UART_ADVFEATURE_DATAINV(huart->AdvancedInit.DataInvert));
    MODIFY_REG(huart->Instance->CR2, USART_CR2_DATAINV, huart->AdvancedInit.DataInvert);
 8005262:	687b      	ldr	r3, [r7, #4]
 8005264:	681b      	ldr	r3, [r3, #0]
 8005266:	685b      	ldr	r3, [r3, #4]
 8005268:	f423 2180 	bic.w	r1, r3, #262144	@ 0x40000
 800526c:	687b      	ldr	r3, [r7, #4]
 800526e:	6b1a      	ldr	r2, [r3, #48]	@ 0x30
 8005270:	687b      	ldr	r3, [r7, #4]
 8005272:	681b      	ldr	r3, [r3, #0]
 8005274:	430a      	orrs	r2, r1
 8005276:	605a      	str	r2, [r3, #4]
  }

  /* if required, configure RX overrun detection disabling */
  if (HAL_IS_BIT_SET(huart->AdvancedInit.AdvFeatureInit, UART_ADVFEATURE_RXOVERRUNDISABLE_INIT))
 8005278:	687b      	ldr	r3, [r7, #4]
 800527a:	6a5b      	ldr	r3, [r3, #36]	@ 0x24
 800527c:	f003 0310 	and.w	r3, r3, #16
 8005280:	2b00      	cmp	r3, #0
 8005282:	d00a      	beq.n	800529a <UART_AdvFeatureConfig+0xb2>
  {
    assert_param(IS_UART_OVERRUN(huart->AdvancedInit.OverrunDisable));
    MODIFY_REG(huart->Instance->CR3, USART_CR3_OVRDIS, huart->AdvancedInit.OverrunDisable);
 8005284:	687b      	ldr	r3, [r7, #4]
 8005286:	681b      	ldr	r3, [r3, #0]
 8005288:	689b      	ldr	r3, [r3, #8]
 800528a:	f423 5180 	bic.w	r1, r3, #4096	@ 0x1000
 800528e:	687b      	ldr	r3, [r7, #4]
 8005290:	6b9a      	ldr	r2, [r3, #56]	@ 0x38
 8005292:	687b      	ldr	r3, [r7, #4]
 8005294:	681b      	ldr	r3, [r3, #0]
 8005296:	430a      	orrs	r2, r1
 8005298:	609a      	str	r2, [r3, #8]
  }

  /* if required, configure DMA disabling on reception error */
  if (HAL_IS_BIT_SET(huart->AdvancedInit.AdvFeatureInit, UART_ADVFEATURE_DMADISABLEONERROR_INIT))
 800529a:	687b      	ldr	r3, [r7, #4]
 800529c:	6a5b      	ldr	r3, [r3, #36]	@ 0x24
 800529e:	f003 0320 	and.w	r3, r3, #32
 80052a2:	2b00      	cmp	r3, #0
 80052a4:	d00a      	beq.n	80052bc <UART_AdvFeatureConfig+0xd4>
  {
    assert_param(IS_UART_ADVFEATURE_DMAONRXERROR(huart->AdvancedInit.DMADisableonRxError));
    MODIFY_REG(huart->Instance->CR3, USART_CR3_DDRE, huart->AdvancedInit.DMADisableonRxError);
 80052a6:	687b      	ldr	r3, [r7, #4]
 80052a8:	681b      	ldr	r3, [r3, #0]
 80052aa:	689b      	ldr	r3, [r3, #8]
 80052ac:	f423 5100 	bic.w	r1, r3, #8192	@ 0x2000
 80052b0:	687b      	ldr	r3, [r7, #4]
 80052b2:	6bda      	ldr	r2, [r3, #60]	@ 0x3c
 80052b4:	687b      	ldr	r3, [r7, #4]
 80052b6:	681b      	ldr	r3, [r3, #0]
 80052b8:	430a      	orrs	r2, r1
 80052ba:	609a      	str	r2, [r3, #8]
  }

  /* if required, configure auto Baud rate detection scheme */
  if (HAL_IS_BIT_SET(huart->AdvancedInit.AdvFeatureInit, UART_ADVFEATURE_AUTOBAUDRATE_INIT))
 80052bc:	687b      	ldr	r3, [r7, #4]
 80052be:	6a5b      	ldr	r3, [r3, #36]	@ 0x24
 80052c0:	f003 0340 	and.w	r3, r3, #64	@ 0x40
 80052c4:	2b00      	cmp	r3, #0
 80052c6:	d01a      	beq.n	80052fe <UART_AdvFeatureConfig+0x116>
  {
    assert_param(IS_USART_AUTOBAUDRATE_DETECTION_INSTANCE(huart->Instance));
    assert_param(IS_UART_ADVFEATURE_AUTOBAUDRATE(huart->AdvancedInit.AutoBaudRateEnable));
    MODIFY_REG(huart->Instance->CR2, USART_CR2_ABREN, huart->AdvancedInit.AutoBaudRateEnable);
 80052c8:	687b      	ldr	r3, [r7, #4]
 80052ca:	681b      	ldr	r3, [r3, #0]
 80052cc:	685b      	ldr	r3, [r3, #4]
 80052ce:	f423 1180 	bic.w	r1, r3, #1048576	@ 0x100000
 80052d2:	687b      	ldr	r3, [r7, #4]
 80052d4:	6c1a      	ldr	r2, [r3, #64]	@ 0x40
 80052d6:	687b      	ldr	r3, [r7, #4]
 80052d8:	681b      	ldr	r3, [r3, #0]
 80052da:	430a      	orrs	r2, r1
 80052dc:	605a      	str	r2, [r3, #4]
    /* set auto Baudrate detection parameters if detection is enabled */
    if (huart->AdvancedInit.AutoBaudRateEnable == UART_ADVFEATURE_AUTOBAUDRATE_ENABLE)
 80052de:	687b      	ldr	r3, [r7, #4]
 80052e0:	6c1b      	ldr	r3, [r3, #64]	@ 0x40
 80052e2:	f5b3 1f80 	cmp.w	r3, #1048576	@ 0x100000
 80052e6:	d10a      	bne.n	80052fe <UART_AdvFeatureConfig+0x116>
    {
      assert_param(IS_UART_ADVFEATURE_AUTOBAUDRATEMODE(huart->AdvancedInit.AutoBaudRateMode));
      MODIFY_REG(huart->Instance->CR2, USART_CR2_ABRMODE, huart->AdvancedInit.AutoBaudRateMode);
 80052e8:	687b      	ldr	r3, [r7, #4]
 80052ea:	681b      	ldr	r3, [r3, #0]
 80052ec:	685b      	ldr	r3, [r3, #4]
 80052ee:	f423 01c0 	bic.w	r1, r3, #6291456	@ 0x600000
 80052f2:	687b      	ldr	r3, [r7, #4]
 80052f4:	6c5a      	ldr	r2, [r3, #68]	@ 0x44
 80052f6:	687b      	ldr	r3, [r7, #4]
 80052f8:	681b      	ldr	r3, [r3, #0]
 80052fa:	430a      	orrs	r2, r1
 80052fc:	605a      	str	r2, [r3, #4]
    }
  }

  /* if required, configure MSB first on communication line */
  if (HAL_IS_BIT_SET(huart->AdvancedInit.AdvFeatureInit, UART_ADVFEATURE_MSBFIRST_INIT))
 80052fe:	687b      	ldr	r3, [r7, #4]
 8005300:	6a5b      	ldr	r3, [r3, #36]	@ 0x24
 8005302:	f003 0380 	and.w	r3, r3, #128	@ 0x80
 8005306:	2b00      	cmp	r3, #0
 8005308:	d00a      	beq.n	8005320 <UART_AdvFeatureConfig+0x138>
  {
    assert_param(IS_UART_ADVFEATURE_MSBFIRST(huart->AdvancedInit.MSBFirst));
    MODIFY_REG(huart->Instance->CR2, USART_CR2_MSBFIRST, huart->AdvancedInit.MSBFirst);
 800530a:	687b      	ldr	r3, [r7, #4]
 800530c:	681b      	ldr	r3, [r3, #0]
 800530e:	685b      	ldr	r3, [r3, #4]
 8005310:	f423 2100 	bic.w	r1, r3, #524288	@ 0x80000
 8005314:	687b      	ldr	r3, [r7, #4]
 8005316:	6c9a      	ldr	r2, [r3, #72]	@ 0x48
 8005318:	687b      	ldr	r3, [r7, #4]
 800531a:	681b      	ldr	r3, [r3, #0]
 800531c:	430a      	orrs	r2, r1
 800531e:	605a      	str	r2, [r3, #4]
  }
}
 8005320:	bf00      	nop
 8005322:	370c      	adds	r7, #12
 8005324:	46bd      	mov	sp, r7
 8005326:	f85d 7b04 	ldr.w	r7, [sp], #4
 800532a:	4770      	bx	lr

0800532c <UART_CheckIdleState>:
  * @brief Check the UART Idle State.
  * @param huart UART handle.
  * @retval HAL status
  */
HAL_StatusTypeDef UART_CheckIdleState(UART_HandleTypeDef *huart)
{
 800532c:	b580      	push	{r7, lr}
 800532e:	b08c      	sub	sp, #48	@ 0x30
 8005330:	af02      	add	r7, sp, #8
 8005332:	6078      	str	r0, [r7, #4]
  uint32_t tickstart;

  /* Initialize the UART ErrorCode */
  huart->ErrorCode = HAL_UART_ERROR_NONE;
 8005334:	687b      	ldr	r3, [r7, #4]
 8005336:	2200      	movs	r2, #0
 8005338:	f8c3 2084 	str.w	r2, [r3, #132]	@ 0x84

  /* Init tickstart for timeout management */
  tickstart = HAL_GetTick();
 800533c:	f7fc fd86 	bl	8001e4c <HAL_GetTick>
 8005340:	6278      	str	r0, [r7, #36]	@ 0x24

  /* Check if the Transmitter is enabled */
  if ((huart->Instance->CR1 & USART_CR1_TE) == USART_CR1_TE)
 8005342:	687b      	ldr	r3, [r7, #4]
 8005344:	681b      	ldr	r3, [r3, #0]
 8005346:	681b      	ldr	r3, [r3, #0]
 8005348:	f003 0308 	and.w	r3, r3, #8
 800534c:	2b08      	cmp	r3, #8
 800534e:	d12e      	bne.n	80053ae <UART_CheckIdleState+0x82>
  {
    /* Wait until TEACK flag is set */
    if (UART_WaitOnFlagUntilTimeout(huart, USART_ISR_TEACK, RESET, tickstart, HAL_UART_TIMEOUT_VALUE) != HAL_OK)
 8005350:	f06f 437e 	mvn.w	r3, #4261412864	@ 0xfe000000
 8005354:	9300      	str	r3, [sp, #0]
 8005356:	6a7b      	ldr	r3, [r7, #36]	@ 0x24
 8005358:	2200      	movs	r2, #0
 800535a:	f44f 1100 	mov.w	r1, #2097152	@ 0x200000
 800535e:	6878      	ldr	r0, [r7, #4]
 8005360:	f000 f83b 	bl	80053da <UART_WaitOnFlagUntilTimeout>
 8005364:	4603      	mov	r3, r0
 8005366:	2b00      	cmp	r3, #0
 8005368:	d021      	beq.n	80053ae <UART_CheckIdleState+0x82>
    {
      /* Disable TXE interrupt for the interrupt process */
      ATOMIC_CLEAR_BIT(huart->Instance->CR1, (USART_CR1_TXEIE));
 800536a:	687b      	ldr	r3, [r7, #4]
 800536c:	681b      	ldr	r3, [r3, #0]
 800536e:	613b      	str	r3, [r7, #16]
   __ASM volatile ("ldrex %0, %1" : "=r" (result) : "Q" (*addr) );
 8005370:	693b      	ldr	r3, [r7, #16]
 8005372:	e853 3f00 	ldrex	r3, [r3]
 8005376:	60fb      	str	r3, [r7, #12]
   return(result);
 8005378:	68fb      	ldr	r3, [r7, #12]
 800537a:	f023 0380 	bic.w	r3, r3, #128	@ 0x80
 800537e:	623b      	str	r3, [r7, #32]
 8005380:	687b      	ldr	r3, [r7, #4]
 8005382:	681b      	ldr	r3, [r3, #0]
 8005384:	461a      	mov	r2, r3
 8005386:	6a3b      	ldr	r3, [r7, #32]
 8005388:	61fb      	str	r3, [r7, #28]
 800538a:	61ba      	str	r2, [r7, #24]
   __ASM volatile ("strex %0, %2, %1" : "=&r" (result), "=Q" (*addr) : "r" (value) );
 800538c:	69b9      	ldr	r1, [r7, #24]
 800538e:	69fa      	ldr	r2, [r7, #28]
 8005390:	e841 2300 	strex	r3, r2, [r1]
 8005394:	617b      	str	r3, [r7, #20]
   return(result);
 8005396:	697b      	ldr	r3, [r7, #20]
 8005398:	2b00      	cmp	r3, #0
 800539a:	d1e6      	bne.n	800536a <UART_CheckIdleState+0x3e>

      huart->gState = HAL_UART_STATE_READY;
 800539c:	687b      	ldr	r3, [r7, #4]
 800539e:	2220      	movs	r2, #32
 80053a0:	67da      	str	r2, [r3, #124]	@ 0x7c

      __HAL_UNLOCK(huart);
 80053a2:	687b      	ldr	r3, [r7, #4]
 80053a4:	2200      	movs	r2, #0
 80053a6:	f883 2078 	strb.w	r2, [r3, #120]	@ 0x78

      /* Timeout occurred */
      return HAL_TIMEOUT;
 80053aa:	2303      	movs	r3, #3
 80053ac:	e011      	b.n	80053d2 <UART_CheckIdleState+0xa6>
    }
  }
#endif /* USART_ISR_REACK */

  /* Initialize the UART State */
  huart->gState = HAL_UART_STATE_READY;
 80053ae:	687b      	ldr	r3, [r7, #4]
 80053b0:	2220      	movs	r2, #32
 80053b2:	67da      	str	r2, [r3, #124]	@ 0x7c
  huart->RxState = HAL_UART_STATE_READY;
 80053b4:	687b      	ldr	r3, [r7, #4]
 80053b6:	2220      	movs	r2, #32
 80053b8:	f8c3 2080 	str.w	r2, [r3, #128]	@ 0x80
  huart->ReceptionType = HAL_UART_RECEPTION_STANDARD;
 80053bc:	687b      	ldr	r3, [r7, #4]
 80053be:	2200      	movs	r2, #0
 80053c0:	661a      	str	r2, [r3, #96]	@ 0x60
  huart->RxEventType = HAL_UART_RXEVENT_TC;
 80053c2:	687b      	ldr	r3, [r7, #4]
 80053c4:	2200      	movs	r2, #0
 80053c6:	665a      	str	r2, [r3, #100]	@ 0x64

  __HAL_UNLOCK(huart);
 80053c8:	687b      	ldr	r3, [r7, #4]
 80053ca:	2200      	movs	r2, #0
 80053cc:	f883 2078 	strb.w	r2, [r3, #120]	@ 0x78

  return HAL_OK;
 80053d0:	2300      	movs	r3, #0
}
 80053d2:	4618      	mov	r0, r3
 80053d4:	3728      	adds	r7, #40	@ 0x28
 80053d6:	46bd      	mov	sp, r7
 80053d8:	bd80      	pop	{r7, pc}

080053da <UART_WaitOnFlagUntilTimeout>:
  * @param Timeout   Timeout duration
  * @retval HAL status
  */
HAL_StatusTypeDef UART_WaitOnFlagUntilTimeout(UART_HandleTypeDef *huart, uint32_t Flag, FlagStatus Status,
                                              uint32_t Tickstart, uint32_t Timeout)
{
 80053da:	b580      	push	{r7, lr}
 80053dc:	b084      	sub	sp, #16
 80053de:	af00      	add	r7, sp, #0
 80053e0:	60f8      	str	r0, [r7, #12]
 80053e2:	60b9      	str	r1, [r7, #8]
 80053e4:	603b      	str	r3, [r7, #0]
 80053e6:	4613      	mov	r3, r2
 80053e8:	71fb      	strb	r3, [r7, #7]
  /* Wait until flag is set */
  while ((__HAL_UART_GET_FLAG(huart, Flag) ? SET : RESET) == Status)
 80053ea:	e04f      	b.n	800548c <UART_WaitOnFlagUntilTimeout+0xb2>
  {
    /* Check for the Timeout */
    if (Timeout != HAL_MAX_DELAY)
 80053ec:	69bb      	ldr	r3, [r7, #24]
 80053ee:	f1b3 3fff 	cmp.w	r3, #4294967295
 80053f2:	d04b      	beq.n	800548c <UART_WaitOnFlagUntilTimeout+0xb2>
    {
      if (((HAL_GetTick() - Tickstart) > Timeout) || (Timeout == 0U))
 80053f4:	f7fc fd2a 	bl	8001e4c <HAL_GetTick>
 80053f8:	4602      	mov	r2, r0
 80053fa:	683b      	ldr	r3, [r7, #0]
 80053fc:	1ad3      	subs	r3, r2, r3
 80053fe:	69ba      	ldr	r2, [r7, #24]
 8005400:	429a      	cmp	r2, r3
 8005402:	d302      	bcc.n	800540a <UART_WaitOnFlagUntilTimeout+0x30>
 8005404:	69bb      	ldr	r3, [r7, #24]
 8005406:	2b00      	cmp	r3, #0
 8005408:	d101      	bne.n	800540e <UART_WaitOnFlagUntilTimeout+0x34>
      {

        return HAL_TIMEOUT;
 800540a:	2303      	movs	r3, #3
 800540c:	e04e      	b.n	80054ac <UART_WaitOnFlagUntilTimeout+0xd2>
      }

      if ((READ_BIT(huart->Instance->CR1, USART_CR1_RE) != 0U) && (Flag != UART_FLAG_TXE) && (Flag != UART_FLAG_TC))
 800540e:	68fb      	ldr	r3, [r7, #12]
 8005410:	681b      	ldr	r3, [r3, #0]
 8005412:	681b      	ldr	r3, [r3, #0]
 8005414:	f003 0304 	and.w	r3, r3, #4
 8005418:	2b00      	cmp	r3, #0
 800541a:	d037      	beq.n	800548c <UART_WaitOnFlagUntilTimeout+0xb2>
 800541c:	68bb      	ldr	r3, [r7, #8]
 800541e:	2b80      	cmp	r3, #128	@ 0x80
 8005420:	d034      	beq.n	800548c <UART_WaitOnFlagUntilTimeout+0xb2>
 8005422:	68bb      	ldr	r3, [r7, #8]
 8005424:	2b40      	cmp	r3, #64	@ 0x40
 8005426:	d031      	beq.n	800548c <UART_WaitOnFlagUntilTimeout+0xb2>
      {
        if (__HAL_UART_GET_FLAG(huart, UART_FLAG_ORE) == SET)
 8005428:	68fb      	ldr	r3, [r7, #12]
 800542a:	681b      	ldr	r3, [r3, #0]
 800542c:	69db      	ldr	r3, [r3, #28]
 800542e:	f003 0308 	and.w	r3, r3, #8
 8005432:	2b08      	cmp	r3, #8
 8005434:	d110      	bne.n	8005458 <UART_WaitOnFlagUntilTimeout+0x7e>
        {
          /* Clear Overrun Error flag*/
          __HAL_UART_CLEAR_FLAG(huart, UART_CLEAR_OREF);
 8005436:	68fb      	ldr	r3, [r7, #12]
 8005438:	681b      	ldr	r3, [r3, #0]
 800543a:	2208      	movs	r2, #8
 800543c:	621a      	str	r2, [r3, #32]

          /* Blocking error : transfer is aborted
          Set the UART state ready to be able to start again the process,
          Disable Rx Interrupts if ongoing */
          UART_EndRxTransfer(huart);
 800543e:	68f8      	ldr	r0, [r7, #12]
 8005440:	f000 f8fe 	bl	8005640 <UART_EndRxTransfer>

          huart->ErrorCode = HAL_UART_ERROR_ORE;
 8005444:	68fb      	ldr	r3, [r7, #12]
 8005446:	2208      	movs	r2, #8
 8005448:	f8c3 2084 	str.w	r2, [r3, #132]	@ 0x84

          /* Process Unlocked */
          __HAL_UNLOCK(huart);
 800544c:	68fb      	ldr	r3, [r7, #12]
 800544e:	2200      	movs	r2, #0
 8005450:	f883 2078 	strb.w	r2, [r3, #120]	@ 0x78

          return HAL_ERROR;
 8005454:	2301      	movs	r3, #1
 8005456:	e029      	b.n	80054ac <UART_WaitOnFlagUntilTimeout+0xd2>
        }
        if (__HAL_UART_GET_FLAG(huart, UART_FLAG_RTOF) == SET)
 8005458:	68fb      	ldr	r3, [r7, #12]
 800545a:	681b      	ldr	r3, [r3, #0]
 800545c:	69db      	ldr	r3, [r3, #28]
 800545e:	f403 6300 	and.w	r3, r3, #2048	@ 0x800
 8005462:	f5b3 6f00 	cmp.w	r3, #2048	@ 0x800
 8005466:	d111      	bne.n	800548c <UART_WaitOnFlagUntilTimeout+0xb2>
        {
          /* Clear Receiver Timeout flag*/
          __HAL_UART_CLEAR_FLAG(huart, UART_CLEAR_RTOF);
 8005468:	68fb      	ldr	r3, [r7, #12]
 800546a:	681b      	ldr	r3, [r3, #0]
 800546c:	f44f 6200 	mov.w	r2, #2048	@ 0x800
 8005470:	621a      	str	r2, [r3, #32]

          /* Blocking error : transfer is aborted
          Set the UART state ready to be able to start again the process,
          Disable Rx Interrupts if ongoing */
          UART_EndRxTransfer(huart);
 8005472:	68f8      	ldr	r0, [r7, #12]
 8005474:	f000 f8e4 	bl	8005640 <UART_EndRxTransfer>

          huart->ErrorCode = HAL_UART_ERROR_RTO;
 8005478:	68fb      	ldr	r3, [r7, #12]
 800547a:	2220      	movs	r2, #32
 800547c:	f8c3 2084 	str.w	r2, [r3, #132]	@ 0x84

          /* Process Unlocked */
          __HAL_UNLOCK(huart);
 8005480:	68fb      	ldr	r3, [r7, #12]
 8005482:	2200      	movs	r2, #0
 8005484:	f883 2078 	strb.w	r2, [r3, #120]	@ 0x78

          return HAL_TIMEOUT;
 8005488:	2303      	movs	r3, #3
 800548a:	e00f      	b.n	80054ac <UART_WaitOnFlagUntilTimeout+0xd2>
  while ((__HAL_UART_GET_FLAG(huart, Flag) ? SET : RESET) == Status)
 800548c:	68fb      	ldr	r3, [r7, #12]
 800548e:	681b      	ldr	r3, [r3, #0]
 8005490:	69da      	ldr	r2, [r3, #28]
 8005492:	68bb      	ldr	r3, [r7, #8]
 8005494:	4013      	ands	r3, r2
 8005496:	68ba      	ldr	r2, [r7, #8]
 8005498:	429a      	cmp	r2, r3
 800549a:	bf0c      	ite	eq
 800549c:	2301      	moveq	r3, #1
 800549e:	2300      	movne	r3, #0
 80054a0:	b2db      	uxtb	r3, r3
 80054a2:	461a      	mov	r2, r3
 80054a4:	79fb      	ldrb	r3, [r7, #7]
 80054a6:	429a      	cmp	r2, r3
 80054a8:	d0a0      	beq.n	80053ec <UART_WaitOnFlagUntilTimeout+0x12>
        }
      }
    }
  }
  return HAL_OK;
 80054aa:	2300      	movs	r3, #0
}
 80054ac:	4618      	mov	r0, r3
 80054ae:	3710      	adds	r7, #16
 80054b0:	46bd      	mov	sp, r7
 80054b2:	bd80      	pop	{r7, pc}

080054b4 <UART_Start_Receive_IT>:
  * @param  pData Pointer to data buffer (u8 or u16 data elements).
  * @param  Size  Amount of data elements (u8 or u16) to be received.
  * @retval HAL status
  */
HAL_StatusTypeDef UART_Start_Receive_IT(UART_HandleTypeDef *huart, uint8_t *pData, uint16_t Size)
{
 80054b4:	b480      	push	{r7}
 80054b6:	b097      	sub	sp, #92	@ 0x5c
 80054b8:	af00      	add	r7, sp, #0
 80054ba:	60f8      	str	r0, [r7, #12]
 80054bc:	60b9      	str	r1, [r7, #8]
 80054be:	4613      	mov	r3, r2
 80054c0:	80fb      	strh	r3, [r7, #6]
  huart->pRxBuffPtr  = pData;
 80054c2:	68fb      	ldr	r3, [r7, #12]
 80054c4:	68ba      	ldr	r2, [r7, #8]
 80054c6:	655a      	str	r2, [r3, #84]	@ 0x54
  huart->RxXferSize  = Size;
 80054c8:	68fb      	ldr	r3, [r7, #12]
 80054ca:	88fa      	ldrh	r2, [r7, #6]
 80054cc:	f8a3 2058 	strh.w	r2, [r3, #88]	@ 0x58
  huart->RxXferCount = Size;
 80054d0:	68fb      	ldr	r3, [r7, #12]
 80054d2:	88fa      	ldrh	r2, [r7, #6]
 80054d4:	f8a3 205a 	strh.w	r2, [r3, #90]	@ 0x5a
  huart->RxISR       = NULL;
 80054d8:	68fb      	ldr	r3, [r7, #12]
 80054da:	2200      	movs	r2, #0
 80054dc:	669a      	str	r2, [r3, #104]	@ 0x68

  /* Computation of UART mask to apply to RDR register */
  UART_MASK_COMPUTATION(huart);
 80054de:	68fb      	ldr	r3, [r7, #12]
 80054e0:	689b      	ldr	r3, [r3, #8]
 80054e2:	f5b3 5f80 	cmp.w	r3, #4096	@ 0x1000
 80054e6:	d10e      	bne.n	8005506 <UART_Start_Receive_IT+0x52>
 80054e8:	68fb      	ldr	r3, [r7, #12]
 80054ea:	691b      	ldr	r3, [r3, #16]
 80054ec:	2b00      	cmp	r3, #0
 80054ee:	d105      	bne.n	80054fc <UART_Start_Receive_IT+0x48>
 80054f0:	68fb      	ldr	r3, [r7, #12]
 80054f2:	f240 12ff 	movw	r2, #511	@ 0x1ff
 80054f6:	f8a3 205c 	strh.w	r2, [r3, #92]	@ 0x5c
 80054fa:	e02d      	b.n	8005558 <UART_Start_Receive_IT+0xa4>
 80054fc:	68fb      	ldr	r3, [r7, #12]
 80054fe:	22ff      	movs	r2, #255	@ 0xff
 8005500:	f8a3 205c 	strh.w	r2, [r3, #92]	@ 0x5c
 8005504:	e028      	b.n	8005558 <UART_Start_Receive_IT+0xa4>
 8005506:	68fb      	ldr	r3, [r7, #12]
 8005508:	689b      	ldr	r3, [r3, #8]
 800550a:	2b00      	cmp	r3, #0
 800550c:	d10d      	bne.n	800552a <UART_Start_Receive_IT+0x76>
 800550e:	68fb      	ldr	r3, [r7, #12]
 8005510:	691b      	ldr	r3, [r3, #16]
 8005512:	2b00      	cmp	r3, #0
 8005514:	d104      	bne.n	8005520 <UART_Start_Receive_IT+0x6c>
 8005516:	68fb      	ldr	r3, [r7, #12]
 8005518:	22ff      	movs	r2, #255	@ 0xff
 800551a:	f8a3 205c 	strh.w	r2, [r3, #92]	@ 0x5c
 800551e:	e01b      	b.n	8005558 <UART_Start_Receive_IT+0xa4>
 8005520:	68fb      	ldr	r3, [r7, #12]
 8005522:	227f      	movs	r2, #127	@ 0x7f
 8005524:	f8a3 205c 	strh.w	r2, [r3, #92]	@ 0x5c
 8005528:	e016      	b.n	8005558 <UART_Start_Receive_IT+0xa4>
 800552a:	68fb      	ldr	r3, [r7, #12]
 800552c:	689b      	ldr	r3, [r3, #8]
 800552e:	f1b3 5f80 	cmp.w	r3, #268435456	@ 0x10000000
 8005532:	d10d      	bne.n	8005550 <UART_Start_Receive_IT+0x9c>
 8005534:	68fb      	ldr	r3, [r7, #12]
 8005536:	691b      	ldr	r3, [r3, #16]
 8005538:	2b00      	cmp	r3, #0
 800553a:	d104      	bne.n	8005546 <UART_Start_Receive_IT+0x92>
 800553c:	68fb      	ldr	r3, [r7, #12]
 800553e:	227f      	movs	r2, #127	@ 0x7f
 8005540:	f8a3 205c 	strh.w	r2, [r3, #92]	@ 0x5c
 8005544:	e008      	b.n	8005558 <UART_Start_Receive_IT+0xa4>
 8005546:	68fb      	ldr	r3, [r7, #12]
 8005548:	223f      	movs	r2, #63	@ 0x3f
 800554a:	f8a3 205c 	strh.w	r2, [r3, #92]	@ 0x5c
 800554e:	e003      	b.n	8005558 <UART_Start_Receive_IT+0xa4>
 8005550:	68fb      	ldr	r3, [r7, #12]
 8005552:	2200      	movs	r2, #0
 8005554:	f8a3 205c 	strh.w	r2, [r3, #92]	@ 0x5c

  huart->ErrorCode = HAL_UART_ERROR_NONE;
 8005558:	68fb      	ldr	r3, [r7, #12]
 800555a:	2200      	movs	r2, #0
 800555c:	f8c3 2084 	str.w	r2, [r3, #132]	@ 0x84
  huart->RxState = HAL_UART_STATE_BUSY_RX;
 8005560:	68fb      	ldr	r3, [r7, #12]
 8005562:	2222      	movs	r2, #34	@ 0x22
 8005564:	f8c3 2080 	str.w	r2, [r3, #128]	@ 0x80

  /* Enable the UART Error Interrupt: (Frame error, noise error, overrun error) */
  ATOMIC_SET_BIT(huart->Instance->CR3, USART_CR3_EIE);
 8005568:	68fb      	ldr	r3, [r7, #12]
 800556a:	681b      	ldr	r3, [r3, #0]
 800556c:	3308      	adds	r3, #8
 800556e:	63fb      	str	r3, [r7, #60]	@ 0x3c
   __ASM volatile ("ldrex %0, %1" : "=r" (result) : "Q" (*addr) );
 8005570:	6bfb      	ldr	r3, [r7, #60]	@ 0x3c
 8005572:	e853 3f00 	ldrex	r3, [r3]
 8005576:	63bb      	str	r3, [r7, #56]	@ 0x38
   return(result);
 8005578:	6bbb      	ldr	r3, [r7, #56]	@ 0x38
 800557a:	f043 0301 	orr.w	r3, r3, #1
 800557e:	657b      	str	r3, [r7, #84]	@ 0x54
 8005580:	68fb      	ldr	r3, [r7, #12]
 8005582:	681b      	ldr	r3, [r3, #0]
 8005584:	3308      	adds	r3, #8
 8005586:	6d7a      	ldr	r2, [r7, #84]	@ 0x54
 8005588:	64ba      	str	r2, [r7, #72]	@ 0x48
 800558a:	647b      	str	r3, [r7, #68]	@ 0x44
   __ASM volatile ("strex %0, %2, %1" : "=&r" (result), "=Q" (*addr) : "r" (value) );
 800558c:	6c79      	ldr	r1, [r7, #68]	@ 0x44
 800558e:	6cba      	ldr	r2, [r7, #72]	@ 0x48
 8005590:	e841 2300 	strex	r3, r2, [r1]
 8005594:	643b      	str	r3, [r7, #64]	@ 0x40
   return(result);
 8005596:	6c3b      	ldr	r3, [r7, #64]	@ 0x40
 8005598:	2b00      	cmp	r3, #0
 800559a:	d1e5      	bne.n	8005568 <UART_Start_Receive_IT+0xb4>

  /* Set the Rx ISR function pointer according to the data word length */
  if ((huart->Init.WordLength == UART_WORDLENGTH_9B) && (huart->Init.Parity == UART_PARITY_NONE))
 800559c:	68fb      	ldr	r3, [r7, #12]
 800559e:	689b      	ldr	r3, [r3, #8]
 80055a0:	f5b3 5f80 	cmp.w	r3, #4096	@ 0x1000
 80055a4:	d107      	bne.n	80055b6 <UART_Start_Receive_IT+0x102>
 80055a6:	68fb      	ldr	r3, [r7, #12]
 80055a8:	691b      	ldr	r3, [r3, #16]
 80055aa:	2b00      	cmp	r3, #0
 80055ac:	d103      	bne.n	80055b6 <UART_Start_Receive_IT+0x102>
  {
    huart->RxISR = UART_RxISR_16BIT;
 80055ae:	68fb      	ldr	r3, [r7, #12]
 80055b0:	4a21      	ldr	r2, [pc, #132]	@ (8005638 <UART_Start_Receive_IT+0x184>)
 80055b2:	669a      	str	r2, [r3, #104]	@ 0x68
 80055b4:	e002      	b.n	80055bc <UART_Start_Receive_IT+0x108>
  }
  else
  {
    huart->RxISR = UART_RxISR_8BIT;
 80055b6:	68fb      	ldr	r3, [r7, #12]
 80055b8:	4a20      	ldr	r2, [pc, #128]	@ (800563c <UART_Start_Receive_IT+0x188>)
 80055ba:	669a      	str	r2, [r3, #104]	@ 0x68
  }

  /* Enable the UART Parity Error interrupt and Data Register Not Empty interrupt */
  if (huart->Init.Parity != UART_PARITY_NONE)
 80055bc:	68fb      	ldr	r3, [r7, #12]
 80055be:	691b      	ldr	r3, [r3, #16]
 80055c0:	2b00      	cmp	r3, #0
 80055c2:	d019      	beq.n	80055f8 <UART_Start_Receive_IT+0x144>
  {
    ATOMIC_SET_BIT(huart->Instance->CR1, USART_CR1_PEIE | USART_CR1_RXNEIE);
 80055c4:	68fb      	ldr	r3, [r7, #12]
 80055c6:	681b      	ldr	r3, [r3, #0]
 80055c8:	62bb      	str	r3, [r7, #40]	@ 0x28
   __ASM volatile ("ldrex %0, %1" : "=r" (result) : "Q" (*addr) );
 80055ca:	6abb      	ldr	r3, [r7, #40]	@ 0x28
 80055cc:	e853 3f00 	ldrex	r3, [r3]
 80055d0:	627b      	str	r3, [r7, #36]	@ 0x24
   return(result);
 80055d2:	6a7b      	ldr	r3, [r7, #36]	@ 0x24
 80055d4:	f443 7390 	orr.w	r3, r3, #288	@ 0x120
 80055d8:	64fb      	str	r3, [r7, #76]	@ 0x4c
 80055da:	68fb      	ldr	r3, [r7, #12]
 80055dc:	681b      	ldr	r3, [r3, #0]
 80055de:	461a      	mov	r2, r3
 80055e0:	6cfb      	ldr	r3, [r7, #76]	@ 0x4c
 80055e2:	637b      	str	r3, [r7, #52]	@ 0x34
 80055e4:	633a      	str	r2, [r7, #48]	@ 0x30
   __ASM volatile ("strex %0, %2, %1" : "=&r" (result), "=Q" (*addr) : "r" (value) );
 80055e6:	6b39      	ldr	r1, [r7, #48]	@ 0x30
 80055e8:	6b7a      	ldr	r2, [r7, #52]	@ 0x34
 80055ea:	e841 2300 	strex	r3, r2, [r1]
 80055ee:	62fb      	str	r3, [r7, #44]	@ 0x2c
   return(result);
 80055f0:	6afb      	ldr	r3, [r7, #44]	@ 0x2c
 80055f2:	2b00      	cmp	r3, #0
 80055f4:	d1e6      	bne.n	80055c4 <UART_Start_Receive_IT+0x110>
 80055f6:	e018      	b.n	800562a <UART_Start_Receive_IT+0x176>
  }
  else
  {
    ATOMIC_SET_BIT(huart->Instance->CR1, USART_CR1_RXNEIE);
 80055f8:	68fb      	ldr	r3, [r7, #12]
 80055fa:	681b      	ldr	r3, [r3, #0]
 80055fc:	617b      	str	r3, [r7, #20]
   __ASM volatile ("ldrex %0, %1" : "=r" (result) : "Q" (*addr) );
 80055fe:	697b      	ldr	r3, [r7, #20]
 8005600:	e853 3f00 	ldrex	r3, [r3]
 8005604:	613b      	str	r3, [r7, #16]
   return(result);
 8005606:	693b      	ldr	r3, [r7, #16]
 8005608:	f043 0320 	orr.w	r3, r3, #32
 800560c:	653b      	str	r3, [r7, #80]	@ 0x50
 800560e:	68fb      	ldr	r3, [r7, #12]
 8005610:	681b      	ldr	r3, [r3, #0]
 8005612:	461a      	mov	r2, r3
 8005614:	6d3b      	ldr	r3, [r7, #80]	@ 0x50
 8005616:	623b      	str	r3, [r7, #32]
 8005618:	61fa      	str	r2, [r7, #28]
   __ASM volatile ("strex %0, %2, %1" : "=&r" (result), "=Q" (*addr) : "r" (value) );
 800561a:	69f9      	ldr	r1, [r7, #28]
 800561c:	6a3a      	ldr	r2, [r7, #32]
 800561e:	e841 2300 	strex	r3, r2, [r1]
 8005622:	61bb      	str	r3, [r7, #24]
   return(result);
 8005624:	69bb      	ldr	r3, [r7, #24]
 8005626:	2b00      	cmp	r3, #0
 8005628:	d1e6      	bne.n	80055f8 <UART_Start_Receive_IT+0x144>
  }
  return HAL_OK;
 800562a:	2300      	movs	r3, #0
}
 800562c:	4618      	mov	r0, r3
 800562e:	375c      	adds	r7, #92	@ 0x5c
 8005630:	46bd      	mov	sp, r7
 8005632:	f85d 7b04 	ldr.w	r7, [sp], #4
 8005636:	4770      	bx	lr
 8005638:	08005929 	.word	0x08005929
 800563c:	08005781 	.word	0x08005781

08005640 <UART_EndRxTransfer>:
  * @brief  End ongoing Rx transfer on UART peripheral (following error detection or Reception completion).
  * @param  huart UART handle.
  * @retval None
  */
static void UART_EndRxTransfer(UART_HandleTypeDef *huart)
{
 8005640:	b480      	push	{r7}
 8005642:	b095      	sub	sp, #84	@ 0x54
 8005644:	af00      	add	r7, sp, #0
 8005646:	6078      	str	r0, [r7, #4]
  /* Disable RXNE, PE and ERR (Frame error, noise error, overrun error) interrupts */
  ATOMIC_CLEAR_BIT(huart->Instance->CR1, (USART_CR1_RXNEIE | USART_CR1_PEIE));
 8005648:	687b      	ldr	r3, [r7, #4]
 800564a:	681b      	ldr	r3, [r3, #0]
 800564c:	637b      	str	r3, [r7, #52]	@ 0x34
   __ASM volatile ("ldrex %0, %1" : "=r" (result) : "Q" (*addr) );
 800564e:	6b7b      	ldr	r3, [r7, #52]	@ 0x34
 8005650:	e853 3f00 	ldrex	r3, [r3]
 8005654:	633b      	str	r3, [r7, #48]	@ 0x30
   return(result);
 8005656:	6b3b      	ldr	r3, [r7, #48]	@ 0x30
 8005658:	f423 7390 	bic.w	r3, r3, #288	@ 0x120
 800565c:	64fb      	str	r3, [r7, #76]	@ 0x4c
 800565e:	687b      	ldr	r3, [r7, #4]
 8005660:	681b      	ldr	r3, [r3, #0]
 8005662:	461a      	mov	r2, r3
 8005664:	6cfb      	ldr	r3, [r7, #76]	@ 0x4c
 8005666:	643b      	str	r3, [r7, #64]	@ 0x40
 8005668:	63fa      	str	r2, [r7, #60]	@ 0x3c
   __ASM volatile ("strex %0, %2, %1" : "=&r" (result), "=Q" (*addr) : "r" (value) );
 800566a:	6bf9      	ldr	r1, [r7, #60]	@ 0x3c
 800566c:	6c3a      	ldr	r2, [r7, #64]	@ 0x40
 800566e:	e841 2300 	strex	r3, r2, [r1]
 8005672:	63bb      	str	r3, [r7, #56]	@ 0x38
   return(result);
 8005674:	6bbb      	ldr	r3, [r7, #56]	@ 0x38
 8005676:	2b00      	cmp	r3, #0
 8005678:	d1e6      	bne.n	8005648 <UART_EndRxTransfer+0x8>
  ATOMIC_CLEAR_BIT(huart->Instance->CR3, USART_CR3_EIE);
 800567a:	687b      	ldr	r3, [r7, #4]
 800567c:	681b      	ldr	r3, [r3, #0]
 800567e:	3308      	adds	r3, #8
 8005680:	623b      	str	r3, [r7, #32]
   __ASM volatile ("ldrex %0, %1" : "=r" (result) : "Q" (*addr) );
 8005682:	6a3b      	ldr	r3, [r7, #32]
 8005684:	e853 3f00 	ldrex	r3, [r3]
 8005688:	61fb      	str	r3, [r7, #28]
   return(result);
 800568a:	69fb      	ldr	r3, [r7, #28]
 800568c:	f023 0301 	bic.w	r3, r3, #1
 8005690:	64bb      	str	r3, [r7, #72]	@ 0x48
 8005692:	687b      	ldr	r3, [r7, #4]
 8005694:	681b      	ldr	r3, [r3, #0]
 8005696:	3308      	adds	r3, #8
 8005698:	6cba      	ldr	r2, [r7, #72]	@ 0x48
 800569a:	62fa      	str	r2, [r7, #44]	@ 0x2c
 800569c:	62bb      	str	r3, [r7, #40]	@ 0x28
   __ASM volatile ("strex %0, %2, %1" : "=&r" (result), "=Q" (*addr) : "r" (value) );
 800569e:	6ab9      	ldr	r1, [r7, #40]	@ 0x28
 80056a0:	6afa      	ldr	r2, [r7, #44]	@ 0x2c
 80056a2:	e841 2300 	strex	r3, r2, [r1]
 80056a6:	627b      	str	r3, [r7, #36]	@ 0x24
   return(result);
 80056a8:	6a7b      	ldr	r3, [r7, #36]	@ 0x24
 80056aa:	2b00      	cmp	r3, #0
 80056ac:	d1e5      	bne.n	800567a <UART_EndRxTransfer+0x3a>

  /* In case of reception waiting for IDLE event, disable also the IDLE IE interrupt source */
  if (huart->ReceptionType == HAL_UART_RECEPTION_TOIDLE)
 80056ae:	687b      	ldr	r3, [r7, #4]
 80056b0:	6e1b      	ldr	r3, [r3, #96]	@ 0x60
 80056b2:	2b01      	cmp	r3, #1
 80056b4:	d118      	bne.n	80056e8 <UART_EndRxTransfer+0xa8>
  {
    ATOMIC_CLEAR_BIT(huart->Instance->CR1, USART_CR1_IDLEIE);
 80056b6:	687b      	ldr	r3, [r7, #4]
 80056b8:	681b      	ldr	r3, [r3, #0]
 80056ba:	60fb      	str	r3, [r7, #12]
   __ASM volatile ("ldrex %0, %1" : "=r" (result) : "Q" (*addr) );
 80056bc:	68fb      	ldr	r3, [r7, #12]
 80056be:	e853 3f00 	ldrex	r3, [r3]
 80056c2:	60bb      	str	r3, [r7, #8]
   return(result);
 80056c4:	68bb      	ldr	r3, [r7, #8]
 80056c6:	f023 0310 	bic.w	r3, r3, #16
 80056ca:	647b      	str	r3, [r7, #68]	@ 0x44
 80056cc:	687b      	ldr	r3, [r7, #4]
 80056ce:	681b      	ldr	r3, [r3, #0]
 80056d0:	461a      	mov	r2, r3
 80056d2:	6c7b      	ldr	r3, [r7, #68]	@ 0x44
 80056d4:	61bb      	str	r3, [r7, #24]
 80056d6:	617a      	str	r2, [r7, #20]
   __ASM volatile ("strex %0, %2, %1" : "=&r" (result), "=Q" (*addr) : "r" (value) );
 80056d8:	6979      	ldr	r1, [r7, #20]
 80056da:	69ba      	ldr	r2, [r7, #24]
 80056dc:	e841 2300 	strex	r3, r2, [r1]
 80056e0:	613b      	str	r3, [r7, #16]
   return(result);
 80056e2:	693b      	ldr	r3, [r7, #16]
 80056e4:	2b00      	cmp	r3, #0
 80056e6:	d1e6      	bne.n	80056b6 <UART_EndRxTransfer+0x76>
  }

  /* At end of Rx process, restore huart->RxState to Ready */
  huart->RxState = HAL_UART_STATE_READY;
 80056e8:	687b      	ldr	r3, [r7, #4]
 80056ea:	2220      	movs	r2, #32
 80056ec:	f8c3 2080 	str.w	r2, [r3, #128]	@ 0x80
  huart->ReceptionType = HAL_UART_RECEPTION_STANDARD;
 80056f0:	687b      	ldr	r3, [r7, #4]
 80056f2:	2200      	movs	r2, #0
 80056f4:	661a      	str	r2, [r3, #96]	@ 0x60

  /* Reset RxIsr function pointer */
  huart->RxISR = NULL;
 80056f6:	687b      	ldr	r3, [r7, #4]
 80056f8:	2200      	movs	r2, #0
 80056fa:	669a      	str	r2, [r3, #104]	@ 0x68
}
 80056fc:	bf00      	nop
 80056fe:	3754      	adds	r7, #84	@ 0x54
 8005700:	46bd      	mov	sp, r7
 8005702:	f85d 7b04 	ldr.w	r7, [sp], #4
 8005706:	4770      	bx	lr

08005708 <UART_DMAAbortOnError>:
  *         (To be called at end of DMA Abort procedure following error occurrence).
  * @param  hdma DMA handle.
  * @retval None
  */
static void UART_DMAAbortOnError(DMA_HandleTypeDef *hdma)
{
 8005708:	b580      	push	{r7, lr}
 800570a:	b084      	sub	sp, #16
 800570c:	af00      	add	r7, sp, #0
 800570e:	6078      	str	r0, [r7, #4]
  UART_HandleTypeDef *huart = (UART_HandleTypeDef *)(hdma->Parent);
 8005710:	687b      	ldr	r3, [r7, #4]
 8005712:	6b9b      	ldr	r3, [r3, #56]	@ 0x38
 8005714:	60fb      	str	r3, [r7, #12]
  huart->RxXferCount = 0U;
 8005716:	68fb      	ldr	r3, [r7, #12]
 8005718:	2200      	movs	r2, #0
 800571a:	f8a3 205a 	strh.w	r2, [r3, #90]	@ 0x5a
#if (USE_HAL_UART_REGISTER_CALLBACKS == 1)
  /*Call registered error callback*/
  huart->ErrorCallback(huart);
#else
  /*Call legacy weak error callback*/
  HAL_UART_ErrorCallback(huart);
 800571e:	68f8      	ldr	r0, [r7, #12]
 8005720:	f7ff fae8 	bl	8004cf4 <HAL_UART_ErrorCallback>
#endif /* USE_HAL_UART_REGISTER_CALLBACKS */
}
 8005724:	bf00      	nop
 8005726:	3710      	adds	r7, #16
 8005728:	46bd      	mov	sp, r7
 800572a:	bd80      	pop	{r7, pc}

0800572c <UART_EndTransmit_IT>:
  * @param  huart pointer to a UART_HandleTypeDef structure that contains
  *                the configuration information for the specified UART module.
  * @retval None
  */
static void UART_EndTransmit_IT(UART_HandleTypeDef *huart)
{
 800572c:	b580      	push	{r7, lr}
 800572e:	b088      	sub	sp, #32
 8005730:	af00      	add	r7, sp, #0
 8005732:	6078      	str	r0, [r7, #4]
  /* Disable the UART Transmit Complete Interrupt */
  ATOMIC_CLEAR_BIT(huart->Instance->CR1, USART_CR1_TCIE);
 8005734:	687b      	ldr	r3, [r7, #4]
 8005736:	681b      	ldr	r3, [r3, #0]
 8005738:	60fb      	str	r3, [r7, #12]
   __ASM volatile ("ldrex %0, %1" : "=r" (result) : "Q" (*addr) );
 800573a:	68fb      	ldr	r3, [r7, #12]
 800573c:	e853 3f00 	ldrex	r3, [r3]
 8005740:	60bb      	str	r3, [r7, #8]
   return(result);
 8005742:	68bb      	ldr	r3, [r7, #8]
 8005744:	f023 0340 	bic.w	r3, r3, #64	@ 0x40
 8005748:	61fb      	str	r3, [r7, #28]
 800574a:	687b      	ldr	r3, [r7, #4]
 800574c:	681b      	ldr	r3, [r3, #0]
 800574e:	461a      	mov	r2, r3
 8005750:	69fb      	ldr	r3, [r7, #28]
 8005752:	61bb      	str	r3, [r7, #24]
 8005754:	617a      	str	r2, [r7, #20]
   __ASM volatile ("strex %0, %2, %1" : "=&r" (result), "=Q" (*addr) : "r" (value) );
 8005756:	6979      	ldr	r1, [r7, #20]
 8005758:	69ba      	ldr	r2, [r7, #24]
 800575a:	e841 2300 	strex	r3, r2, [r1]
 800575e:	613b      	str	r3, [r7, #16]
   return(result);
 8005760:	693b      	ldr	r3, [r7, #16]
 8005762:	2b00      	cmp	r3, #0
 8005764:	d1e6      	bne.n	8005734 <UART_EndTransmit_IT+0x8>

  /* Tx process is ended, restore huart->gState to Ready */
  huart->gState = HAL_UART_STATE_READY;
 8005766:	687b      	ldr	r3, [r7, #4]
 8005768:	2220      	movs	r2, #32
 800576a:	67da      	str	r2, [r3, #124]	@ 0x7c

  /* Cleat TxISR function pointer */
  huart->TxISR = NULL;
 800576c:	687b      	ldr	r3, [r7, #4]
 800576e:	2200      	movs	r2, #0
 8005770:	66da      	str	r2, [r3, #108]	@ 0x6c
#if (USE_HAL_UART_REGISTER_CALLBACKS == 1)
  /*Call registered Tx complete callback*/
  huart->TxCpltCallback(huart);
#else
  /*Call legacy weak Tx complete callback*/
  HAL_UART_TxCpltCallback(huart);
 8005772:	6878      	ldr	r0, [r7, #4]
 8005774:	f7ff fab4 	bl	8004ce0 <HAL_UART_TxCpltCallback>
#endif /* USE_HAL_UART_REGISTER_CALLBACKS */
}
 8005778:	bf00      	nop
 800577a:	3720      	adds	r7, #32
 800577c:	46bd      	mov	sp, r7
 800577e:	bd80      	pop	{r7, pc}

08005780 <UART_RxISR_8BIT>:
  * @brief RX interrupt handler for 7 or 8 bits data word length .
  * @param huart UART handle.
  * @retval None
  */
static void UART_RxISR_8BIT(UART_HandleTypeDef *huart)
{
 8005780:	b580      	push	{r7, lr}
 8005782:	b09c      	sub	sp, #112	@ 0x70
 8005784:	af00      	add	r7, sp, #0
 8005786:	6078      	str	r0, [r7, #4]
  uint16_t uhMask = huart->Mask;
 8005788:	687b      	ldr	r3, [r7, #4]
 800578a:	f8b3 305c 	ldrh.w	r3, [r3, #92]	@ 0x5c
 800578e:	f8a7 306e 	strh.w	r3, [r7, #110]	@ 0x6e
  uint16_t  uhdata;

  /* Check that a Rx process is ongoing */
  if (huart->RxState == HAL_UART_STATE_BUSY_RX)
 8005792:	687b      	ldr	r3, [r7, #4]
 8005794:	f8d3 3080 	ldr.w	r3, [r3, #128]	@ 0x80
 8005798:	2b22      	cmp	r3, #34	@ 0x22
 800579a:	f040 80b9 	bne.w	8005910 <UART_RxISR_8BIT+0x190>
  {
    uhdata = (uint16_t) READ_REG(huart->Instance->RDR);
 800579e:	687b      	ldr	r3, [r7, #4]
 80057a0:	681b      	ldr	r3, [r3, #0]
 80057a2:	6a5b      	ldr	r3, [r3, #36]	@ 0x24
 80057a4:	f8a7 306c 	strh.w	r3, [r7, #108]	@ 0x6c
    *huart->pRxBuffPtr = (uint8_t)(uhdata & (uint8_t)uhMask);
 80057a8:	f8b7 306c 	ldrh.w	r3, [r7, #108]	@ 0x6c
 80057ac:	b2d9      	uxtb	r1, r3
 80057ae:	f8b7 306e 	ldrh.w	r3, [r7, #110]	@ 0x6e
 80057b2:	b2da      	uxtb	r2, r3
 80057b4:	687b      	ldr	r3, [r7, #4]
 80057b6:	6d5b      	ldr	r3, [r3, #84]	@ 0x54
 80057b8:	400a      	ands	r2, r1
 80057ba:	b2d2      	uxtb	r2, r2
 80057bc:	701a      	strb	r2, [r3, #0]
    huart->pRxBuffPtr++;
 80057be:	687b      	ldr	r3, [r7, #4]
 80057c0:	6d5b      	ldr	r3, [r3, #84]	@ 0x54
 80057c2:	1c5a      	adds	r2, r3, #1
 80057c4:	687b      	ldr	r3, [r7, #4]
 80057c6:	655a      	str	r2, [r3, #84]	@ 0x54
    huart->RxXferCount--;
 80057c8:	687b      	ldr	r3, [r7, #4]
 80057ca:	f8b3 305a 	ldrh.w	r3, [r3, #90]	@ 0x5a
 80057ce:	b29b      	uxth	r3, r3
 80057d0:	3b01      	subs	r3, #1
 80057d2:	b29a      	uxth	r2, r3
 80057d4:	687b      	ldr	r3, [r7, #4]
 80057d6:	f8a3 205a 	strh.w	r2, [r3, #90]	@ 0x5a

    if (huart->RxXferCount == 0U)
 80057da:	687b      	ldr	r3, [r7, #4]
 80057dc:	f8b3 305a 	ldrh.w	r3, [r3, #90]	@ 0x5a
 80057e0:	b29b      	uxth	r3, r3
 80057e2:	2b00      	cmp	r3, #0
 80057e4:	f040 809c 	bne.w	8005920 <UART_RxISR_8BIT+0x1a0>
    {
      /* Disable the UART Parity Error Interrupt and RXNE interrupts */
      ATOMIC_CLEAR_BIT(huart->Instance->CR1, (USART_CR1_RXNEIE | USART_CR1_PEIE));
 80057e8:	687b      	ldr	r3, [r7, #4]
 80057ea:	681b      	ldr	r3, [r3, #0]
 80057ec:	64fb      	str	r3, [r7, #76]	@ 0x4c
   __ASM volatile ("ldrex %0, %1" : "=r" (result) : "Q" (*addr) );
 80057ee:	6cfb      	ldr	r3, [r7, #76]	@ 0x4c
 80057f0:	e853 3f00 	ldrex	r3, [r3]
 80057f4:	64bb      	str	r3, [r7, #72]	@ 0x48
   return(result);
 80057f6:	6cbb      	ldr	r3, [r7, #72]	@ 0x48
 80057f8:	f423 7390 	bic.w	r3, r3, #288	@ 0x120
 80057fc:	66bb      	str	r3, [r7, #104]	@ 0x68
 80057fe:	687b      	ldr	r3, [r7, #4]
 8005800:	681b      	ldr	r3, [r3, #0]
 8005802:	461a      	mov	r2, r3
 8005804:	6ebb      	ldr	r3, [r7, #104]	@ 0x68
 8005806:	65bb      	str	r3, [r7, #88]	@ 0x58
 8005808:	657a      	str	r2, [r7, #84]	@ 0x54
   __ASM volatile ("strex %0, %2, %1" : "=&r" (result), "=Q" (*addr) : "r" (value) );
 800580a:	6d79      	ldr	r1, [r7, #84]	@ 0x54
 800580c:	6dba      	ldr	r2, [r7, #88]	@ 0x58
 800580e:	e841 2300 	strex	r3, r2, [r1]
 8005812:	653b      	str	r3, [r7, #80]	@ 0x50
   return(result);
 8005814:	6d3b      	ldr	r3, [r7, #80]	@ 0x50
 8005816:	2b00      	cmp	r3, #0
 8005818:	d1e6      	bne.n	80057e8 <UART_RxISR_8BIT+0x68>

      /* Disable the UART Error Interrupt: (Frame error, noise error, overrun error) */
      ATOMIC_CLEAR_BIT(huart->Instance->CR3, USART_CR3_EIE);
 800581a:	687b      	ldr	r3, [r7, #4]
 800581c:	681b      	ldr	r3, [r3, #0]
 800581e:	3308      	adds	r3, #8
 8005820:	63bb      	str	r3, [r7, #56]	@ 0x38
   __ASM volatile ("ldrex %0, %1" : "=r" (result) : "Q" (*addr) );
 8005822:	6bbb      	ldr	r3, [r7, #56]	@ 0x38
 8005824:	e853 3f00 	ldrex	r3, [r3]
 8005828:	637b      	str	r3, [r7, #52]	@ 0x34
   return(result);
 800582a:	6b7b      	ldr	r3, [r7, #52]	@ 0x34
 800582c:	f023 0301 	bic.w	r3, r3, #1
 8005830:	667b      	str	r3, [r7, #100]	@ 0x64
 8005832:	687b      	ldr	r3, [r7, #4]
 8005834:	681b      	ldr	r3, [r3, #0]
 8005836:	3308      	adds	r3, #8
 8005838:	6e7a      	ldr	r2, [r7, #100]	@ 0x64
 800583a:	647a      	str	r2, [r7, #68]	@ 0x44
 800583c:	643b      	str	r3, [r7, #64]	@ 0x40
   __ASM volatile ("strex %0, %2, %1" : "=&r" (result), "=Q" (*addr) : "r" (value) );
 800583e:	6c39      	ldr	r1, [r7, #64]	@ 0x40
 8005840:	6c7a      	ldr	r2, [r7, #68]	@ 0x44
 8005842:	e841 2300 	strex	r3, r2, [r1]
 8005846:	63fb      	str	r3, [r7, #60]	@ 0x3c
   return(result);
 8005848:	6bfb      	ldr	r3, [r7, #60]	@ 0x3c
 800584a:	2b00      	cmp	r3, #0
 800584c:	d1e5      	bne.n	800581a <UART_RxISR_8BIT+0x9a>

      /* Rx process is completed, restore huart->RxState to Ready */
      huart->RxState = HAL_UART_STATE_READY;
 800584e:	687b      	ldr	r3, [r7, #4]
 8005850:	2220      	movs	r2, #32
 8005852:	f8c3 2080 	str.w	r2, [r3, #128]	@ 0x80

      /* Clear RxISR function pointer */
      huart->RxISR = NULL;
 8005856:	687b      	ldr	r3, [r7, #4]
 8005858:	2200      	movs	r2, #0
 800585a:	669a      	str	r2, [r3, #104]	@ 0x68

      /* Initialize type of RxEvent to Transfer Complete */
      huart->RxEventType = HAL_UART_RXEVENT_TC;
 800585c:	687b      	ldr	r3, [r7, #4]
 800585e:	2200      	movs	r2, #0
 8005860:	665a      	str	r2, [r3, #100]	@ 0x64

      /* Check that USART RTOEN bit is set */
      if (READ_BIT(huart->Instance->CR2, USART_CR2_RTOEN) != 0U)
 8005862:	687b      	ldr	r3, [r7, #4]
 8005864:	681b      	ldr	r3, [r3, #0]
 8005866:	685b      	ldr	r3, [r3, #4]
 8005868:	f403 0300 	and.w	r3, r3, #8388608	@ 0x800000
 800586c:	2b00      	cmp	r3, #0
 800586e:	d018      	beq.n	80058a2 <UART_RxISR_8BIT+0x122>
      {
        /* Enable the UART Receiver Timeout Interrupt */
        ATOMIC_CLEAR_BIT(huart->Instance->CR1, USART_CR1_RTOIE);
 8005870:	687b      	ldr	r3, [r7, #4]
 8005872:	681b      	ldr	r3, [r3, #0]
 8005874:	627b      	str	r3, [r7, #36]	@ 0x24
   __ASM volatile ("ldrex %0, %1" : "=r" (result) : "Q" (*addr) );
 8005876:	6a7b      	ldr	r3, [r7, #36]	@ 0x24
 8005878:	e853 3f00 	ldrex	r3, [r3]
 800587c:	623b      	str	r3, [r7, #32]
   return(result);
 800587e:	6a3b      	ldr	r3, [r7, #32]
 8005880:	f023 6380 	bic.w	r3, r3, #67108864	@ 0x4000000
 8005884:	663b      	str	r3, [r7, #96]	@ 0x60
 8005886:	687b      	ldr	r3, [r7, #4]
 8005888:	681b      	ldr	r3, [r3, #0]
 800588a:	461a      	mov	r2, r3
 800588c:	6e3b      	ldr	r3, [r7, #96]	@ 0x60
 800588e:	633b      	str	r3, [r7, #48]	@ 0x30
 8005890:	62fa      	str	r2, [r7, #44]	@ 0x2c
   __ASM volatile ("strex %0, %2, %1" : "=&r" (result), "=Q" (*addr) : "r" (value) );
 8005892:	6af9      	ldr	r1, [r7, #44]	@ 0x2c
 8005894:	6b3a      	ldr	r2, [r7, #48]	@ 0x30
 8005896:	e841 2300 	strex	r3, r2, [r1]
 800589a:	62bb      	str	r3, [r7, #40]	@ 0x28
   return(result);
 800589c:	6abb      	ldr	r3, [r7, #40]	@ 0x28
 800589e:	2b00      	cmp	r3, #0
 80058a0:	d1e6      	bne.n	8005870 <UART_RxISR_8BIT+0xf0>
      }

      /* Check current reception Mode :
         If Reception till IDLE event has been selected : */
      if (huart->ReceptionType == HAL_UART_RECEPTION_TOIDLE)
 80058a2:	687b      	ldr	r3, [r7, #4]
 80058a4:	6e1b      	ldr	r3, [r3, #96]	@ 0x60
 80058a6:	2b01      	cmp	r3, #1
 80058a8:	d12e      	bne.n	8005908 <UART_RxISR_8BIT+0x188>
      {
        /* Set reception type to Standard */
        huart->ReceptionType = HAL_UART_RECEPTION_STANDARD;
 80058aa:	687b      	ldr	r3, [r7, #4]
 80058ac:	2200      	movs	r2, #0
 80058ae:	661a      	str	r2, [r3, #96]	@ 0x60

        /* Disable IDLE interrupt */
        ATOMIC_CLEAR_BIT(huart->Instance->CR1, USART_CR1_IDLEIE);
 80058b0:	687b      	ldr	r3, [r7, #4]
 80058b2:	681b      	ldr	r3, [r3, #0]
 80058b4:	613b      	str	r3, [r7, #16]
   __ASM volatile ("ldrex %0, %1" : "=r" (result) : "Q" (*addr) );
 80058b6:	693b      	ldr	r3, [r7, #16]
 80058b8:	e853 3f00 	ldrex	r3, [r3]
 80058bc:	60fb      	str	r3, [r7, #12]
   return(result);
 80058be:	68fb      	ldr	r3, [r7, #12]
 80058c0:	f023 0310 	bic.w	r3, r3, #16
 80058c4:	65fb      	str	r3, [r7, #92]	@ 0x5c
 80058c6:	687b      	ldr	r3, [r7, #4]
 80058c8:	681b      	ldr	r3, [r3, #0]
 80058ca:	461a      	mov	r2, r3
 80058cc:	6dfb      	ldr	r3, [r7, #92]	@ 0x5c
 80058ce:	61fb      	str	r3, [r7, #28]
 80058d0:	61ba      	str	r2, [r7, #24]
   __ASM volatile ("strex %0, %2, %1" : "=&r" (result), "=Q" (*addr) : "r" (value) );
 80058d2:	69b9      	ldr	r1, [r7, #24]
 80058d4:	69fa      	ldr	r2, [r7, #28]
 80058d6:	e841 2300 	strex	r3, r2, [r1]
 80058da:	617b      	str	r3, [r7, #20]
   return(result);
 80058dc:	697b      	ldr	r3, [r7, #20]
 80058de:	2b00      	cmp	r3, #0
 80058e0:	d1e6      	bne.n	80058b0 <UART_RxISR_8BIT+0x130>

        if (__HAL_UART_GET_FLAG(huart, UART_FLAG_IDLE) == SET)
 80058e2:	687b      	ldr	r3, [r7, #4]
 80058e4:	681b      	ldr	r3, [r3, #0]
 80058e6:	69db      	ldr	r3, [r3, #28]
 80058e8:	f003 0310 	and.w	r3, r3, #16
 80058ec:	2b10      	cmp	r3, #16
 80058ee:	d103      	bne.n	80058f8 <UART_RxISR_8BIT+0x178>
        {
          /* Clear IDLE Flag */
          __HAL_UART_CLEAR_FLAG(huart, UART_CLEAR_IDLEF);
 80058f0:	687b      	ldr	r3, [r7, #4]
 80058f2:	681b      	ldr	r3, [r3, #0]
 80058f4:	2210      	movs	r2, #16
 80058f6:	621a      	str	r2, [r3, #32]
#if (USE_HAL_UART_REGISTER_CALLBACKS == 1)
        /*Call registered Rx Event callback*/
        huart->RxEventCallback(huart, huart->RxXferSize);
#else
        /*Call legacy weak Rx Event callback*/
        HAL_UARTEx_RxEventCallback(huart, huart->RxXferSize);
 80058f8:	687b      	ldr	r3, [r7, #4]
 80058fa:	f8b3 3058 	ldrh.w	r3, [r3, #88]	@ 0x58
 80058fe:	4619      	mov	r1, r3
 8005900:	6878      	ldr	r0, [r7, #4]
 8005902:	f7ff fa01 	bl	8004d08 <HAL_UARTEx_RxEventCallback>
  else
  {
    /* Clear RXNE interrupt flag */
    __HAL_UART_SEND_REQ(huart, UART_RXDATA_FLUSH_REQUEST);
  }
}
 8005906:	e00b      	b.n	8005920 <UART_RxISR_8BIT+0x1a0>
        HAL_UART_RxCpltCallback(huart);
 8005908:	6878      	ldr	r0, [r7, #4]
 800590a:	f7fb fea5 	bl	8001658 <HAL_UART_RxCpltCallback>
}
 800590e:	e007      	b.n	8005920 <UART_RxISR_8BIT+0x1a0>
    __HAL_UART_SEND_REQ(huart, UART_RXDATA_FLUSH_REQUEST);
 8005910:	687b      	ldr	r3, [r7, #4]
 8005912:	681b      	ldr	r3, [r3, #0]
 8005914:	699a      	ldr	r2, [r3, #24]
 8005916:	687b      	ldr	r3, [r7, #4]
 8005918:	681b      	ldr	r3, [r3, #0]
 800591a:	f042 0208 	orr.w	r2, r2, #8
 800591e:	619a      	str	r2, [r3, #24]
}
 8005920:	bf00      	nop
 8005922:	3770      	adds	r7, #112	@ 0x70
 8005924:	46bd      	mov	sp, r7
 8005926:	bd80      	pop	{r7, pc}

08005928 <UART_RxISR_16BIT>:
  *         interruptions have been enabled by HAL_UART_Receive_IT()
  * @param huart UART handle.
  * @retval None
  */
static void UART_RxISR_16BIT(UART_HandleTypeDef *huart)
{
 8005928:	b580      	push	{r7, lr}
 800592a:	b09c      	sub	sp, #112	@ 0x70
 800592c:	af00      	add	r7, sp, #0
 800592e:	6078      	str	r0, [r7, #4]
  uint16_t *tmp;
  uint16_t uhMask = huart->Mask;
 8005930:	687b      	ldr	r3, [r7, #4]
 8005932:	f8b3 305c 	ldrh.w	r3, [r3, #92]	@ 0x5c
 8005936:	f8a7 306e 	strh.w	r3, [r7, #110]	@ 0x6e
  uint16_t  uhdata;

  /* Check that a Rx process is ongoing */
  if (huart->RxState == HAL_UART_STATE_BUSY_RX)
 800593a:	687b      	ldr	r3, [r7, #4]
 800593c:	f8d3 3080 	ldr.w	r3, [r3, #128]	@ 0x80
 8005940:	2b22      	cmp	r3, #34	@ 0x22
 8005942:	f040 80b9 	bne.w	8005ab8 <UART_RxISR_16BIT+0x190>
  {
    uhdata = (uint16_t) READ_REG(huart->Instance->RDR);
 8005946:	687b      	ldr	r3, [r7, #4]
 8005948:	681b      	ldr	r3, [r3, #0]
 800594a:	6a5b      	ldr	r3, [r3, #36]	@ 0x24
 800594c:	f8a7 306c 	strh.w	r3, [r7, #108]	@ 0x6c
    tmp = (uint16_t *) huart->pRxBuffPtr ;
 8005950:	687b      	ldr	r3, [r7, #4]
 8005952:	6d5b      	ldr	r3, [r3, #84]	@ 0x54
 8005954:	66bb      	str	r3, [r7, #104]	@ 0x68
    *tmp = (uint16_t)(uhdata & uhMask);
 8005956:	f8b7 206c 	ldrh.w	r2, [r7, #108]	@ 0x6c
 800595a:	f8b7 306e 	ldrh.w	r3, [r7, #110]	@ 0x6e
 800595e:	4013      	ands	r3, r2
 8005960:	b29a      	uxth	r2, r3
 8005962:	6ebb      	ldr	r3, [r7, #104]	@ 0x68
 8005964:	801a      	strh	r2, [r3, #0]
    huart->pRxBuffPtr += 2U;
 8005966:	687b      	ldr	r3, [r7, #4]
 8005968:	6d5b      	ldr	r3, [r3, #84]	@ 0x54
 800596a:	1c9a      	adds	r2, r3, #2
 800596c:	687b      	ldr	r3, [r7, #4]
 800596e:	655a      	str	r2, [r3, #84]	@ 0x54
    huart->RxXferCount--;
 8005970:	687b      	ldr	r3, [r7, #4]
 8005972:	f8b3 305a 	ldrh.w	r3, [r3, #90]	@ 0x5a
 8005976:	b29b      	uxth	r3, r3
 8005978:	3b01      	subs	r3, #1
 800597a:	b29a      	uxth	r2, r3
 800597c:	687b      	ldr	r3, [r7, #4]
 800597e:	f8a3 205a 	strh.w	r2, [r3, #90]	@ 0x5a

    if (huart->RxXferCount == 0U)
 8005982:	687b      	ldr	r3, [r7, #4]
 8005984:	f8b3 305a 	ldrh.w	r3, [r3, #90]	@ 0x5a
 8005988:	b29b      	uxth	r3, r3
 800598a:	2b00      	cmp	r3, #0
 800598c:	f040 809c 	bne.w	8005ac8 <UART_RxISR_16BIT+0x1a0>
    {
      /* Disable the UART Parity Error Interrupt and RXNE interrupt*/
      ATOMIC_CLEAR_BIT(huart->Instance->CR1, (USART_CR1_RXNEIE | USART_CR1_PEIE));
 8005990:	687b      	ldr	r3, [r7, #4]
 8005992:	681b      	ldr	r3, [r3, #0]
 8005994:	64bb      	str	r3, [r7, #72]	@ 0x48
   __ASM volatile ("ldrex %0, %1" : "=r" (result) : "Q" (*addr) );
 8005996:	6cbb      	ldr	r3, [r7, #72]	@ 0x48
 8005998:	e853 3f00 	ldrex	r3, [r3]
 800599c:	647b      	str	r3, [r7, #68]	@ 0x44
   return(result);
 800599e:	6c7b      	ldr	r3, [r7, #68]	@ 0x44
 80059a0:	f423 7390 	bic.w	r3, r3, #288	@ 0x120
 80059a4:	667b      	str	r3, [r7, #100]	@ 0x64
 80059a6:	687b      	ldr	r3, [r7, #4]
 80059a8:	681b      	ldr	r3, [r3, #0]
 80059aa:	461a      	mov	r2, r3
 80059ac:	6e7b      	ldr	r3, [r7, #100]	@ 0x64
 80059ae:	657b      	str	r3, [r7, #84]	@ 0x54
 80059b0:	653a      	str	r2, [r7, #80]	@ 0x50
   __ASM volatile ("strex %0, %2, %1" : "=&r" (result), "=Q" (*addr) : "r" (value) );
 80059b2:	6d39      	ldr	r1, [r7, #80]	@ 0x50
 80059b4:	6d7a      	ldr	r2, [r7, #84]	@ 0x54
 80059b6:	e841 2300 	strex	r3, r2, [r1]
 80059ba:	64fb      	str	r3, [r7, #76]	@ 0x4c
   return(result);
 80059bc:	6cfb      	ldr	r3, [r7, #76]	@ 0x4c
 80059be:	2b00      	cmp	r3, #0
 80059c0:	d1e6      	bne.n	8005990 <UART_RxISR_16BIT+0x68>

      /* Disable the UART Error Interrupt: (Frame error, noise error, overrun error) */
      ATOMIC_CLEAR_BIT(huart->Instance->CR3, USART_CR3_EIE);
 80059c2:	687b      	ldr	r3, [r7, #4]
 80059c4:	681b      	ldr	r3, [r3, #0]
 80059c6:	3308      	adds	r3, #8
 80059c8:	637b      	str	r3, [r7, #52]	@ 0x34
   __ASM volatile ("ldrex %0, %1" : "=r" (result) : "Q" (*addr) );
 80059ca:	6b7b      	ldr	r3, [r7, #52]	@ 0x34
 80059cc:	e853 3f00 	ldrex	r3, [r3]
 80059d0:	633b      	str	r3, [r7, #48]	@ 0x30
   return(result);
 80059d2:	6b3b      	ldr	r3, [r7, #48]	@ 0x30
 80059d4:	f023 0301 	bic.w	r3, r3, #1
 80059d8:	663b      	str	r3, [r7, #96]	@ 0x60
 80059da:	687b      	ldr	r3, [r7, #4]
 80059dc:	681b      	ldr	r3, [r3, #0]
 80059de:	3308      	adds	r3, #8
 80059e0:	6e3a      	ldr	r2, [r7, #96]	@ 0x60
 80059e2:	643a      	str	r2, [r7, #64]	@ 0x40
 80059e4:	63fb      	str	r3, [r7, #60]	@ 0x3c
   __ASM volatile ("strex %0, %2, %1" : "=&r" (result), "=Q" (*addr) : "r" (value) );
 80059e6:	6bf9      	ldr	r1, [r7, #60]	@ 0x3c
 80059e8:	6c3a      	ldr	r2, [r7, #64]	@ 0x40
 80059ea:	e841 2300 	strex	r3, r2, [r1]
 80059ee:	63bb      	str	r3, [r7, #56]	@ 0x38
   return(result);
 80059f0:	6bbb      	ldr	r3, [r7, #56]	@ 0x38
 80059f2:	2b00      	cmp	r3, #0
 80059f4:	d1e5      	bne.n	80059c2 <UART_RxISR_16BIT+0x9a>

      /* Rx process is completed, restore huart->RxState to Ready */
      huart->RxState = HAL_UART_STATE_READY;
 80059f6:	687b      	ldr	r3, [r7, #4]
 80059f8:	2220      	movs	r2, #32
 80059fa:	f8c3 2080 	str.w	r2, [r3, #128]	@ 0x80

      /* Clear RxISR function pointer */
      huart->RxISR = NULL;
 80059fe:	687b      	ldr	r3, [r7, #4]
 8005a00:	2200      	movs	r2, #0
 8005a02:	669a      	str	r2, [r3, #104]	@ 0x68

      /* Initialize type of RxEvent to Transfer Complete */
      huart->RxEventType = HAL_UART_RXEVENT_TC;
 8005a04:	687b      	ldr	r3, [r7, #4]
 8005a06:	2200      	movs	r2, #0
 8005a08:	665a      	str	r2, [r3, #100]	@ 0x64

      /* Check that USART RTOEN bit is set */
      if (READ_BIT(huart->Instance->CR2, USART_CR2_RTOEN) != 0U)
 8005a0a:	687b      	ldr	r3, [r7, #4]
 8005a0c:	681b      	ldr	r3, [r3, #0]
 8005a0e:	685b      	ldr	r3, [r3, #4]
 8005a10:	f403 0300 	and.w	r3, r3, #8388608	@ 0x800000
 8005a14:	2b00      	cmp	r3, #0
 8005a16:	d018      	beq.n	8005a4a <UART_RxISR_16BIT+0x122>
      {
        /* Enable the UART Receiver Timeout Interrupt */
        ATOMIC_CLEAR_BIT(huart->Instance->CR1, USART_CR1_RTOIE);
 8005a18:	687b      	ldr	r3, [r7, #4]
 8005a1a:	681b      	ldr	r3, [r3, #0]
 8005a1c:	623b      	str	r3, [r7, #32]
   __ASM volatile ("ldrex %0, %1" : "=r" (result) : "Q" (*addr) );
 8005a1e:	6a3b      	ldr	r3, [r7, #32]
 8005a20:	e853 3f00 	ldrex	r3, [r3]
 8005a24:	61fb      	str	r3, [r7, #28]
   return(result);
 8005a26:	69fb      	ldr	r3, [r7, #28]
 8005a28:	f023 6380 	bic.w	r3, r3, #67108864	@ 0x4000000
 8005a2c:	65fb      	str	r3, [r7, #92]	@ 0x5c
 8005a2e:	687b      	ldr	r3, [r7, #4]
 8005a30:	681b      	ldr	r3, [r3, #0]
 8005a32:	461a      	mov	r2, r3
 8005a34:	6dfb      	ldr	r3, [r7, #92]	@ 0x5c
 8005a36:	62fb      	str	r3, [r7, #44]	@ 0x2c
 8005a38:	62ba      	str	r2, [r7, #40]	@ 0x28
   __ASM volatile ("strex %0, %2, %1" : "=&r" (result), "=Q" (*addr) : "r" (value) );
 8005a3a:	6ab9      	ldr	r1, [r7, #40]	@ 0x28
 8005a3c:	6afa      	ldr	r2, [r7, #44]	@ 0x2c
 8005a3e:	e841 2300 	strex	r3, r2, [r1]
 8005a42:	627b      	str	r3, [r7, #36]	@ 0x24
   return(result);
 8005a44:	6a7b      	ldr	r3, [r7, #36]	@ 0x24
 8005a46:	2b00      	cmp	r3, #0
 8005a48:	d1e6      	bne.n	8005a18 <UART_RxISR_16BIT+0xf0>
      }

      /* Check current reception Mode :
         If Reception till IDLE event has been selected : */
      if (huart->ReceptionType == HAL_UART_RECEPTION_TOIDLE)
 8005a4a:	687b      	ldr	r3, [r7, #4]
 8005a4c:	6e1b      	ldr	r3, [r3, #96]	@ 0x60
 8005a4e:	2b01      	cmp	r3, #1
 8005a50:	d12e      	bne.n	8005ab0 <UART_RxISR_16BIT+0x188>
      {
        /* Set reception type to Standard */
        huart->ReceptionType = HAL_UART_RECEPTION_STANDARD;
 8005a52:	687b      	ldr	r3, [r7, #4]
 8005a54:	2200      	movs	r2, #0
 8005a56:	661a      	str	r2, [r3, #96]	@ 0x60

        /* Disable IDLE interrupt */
        ATOMIC_CLEAR_BIT(huart->Instance->CR1, USART_CR1_IDLEIE);
 8005a58:	687b      	ldr	r3, [r7, #4]
 8005a5a:	681b      	ldr	r3, [r3, #0]
 8005a5c:	60fb      	str	r3, [r7, #12]
   __ASM volatile ("ldrex %0, %1" : "=r" (result) : "Q" (*addr) );
 8005a5e:	68fb      	ldr	r3, [r7, #12]
 8005a60:	e853 3f00 	ldrex	r3, [r3]
 8005a64:	60bb      	str	r3, [r7, #8]
   return(result);
 8005a66:	68bb      	ldr	r3, [r7, #8]
 8005a68:	f023 0310 	bic.w	r3, r3, #16
 8005a6c:	65bb      	str	r3, [r7, #88]	@ 0x58
 8005a6e:	687b      	ldr	r3, [r7, #4]
 8005a70:	681b      	ldr	r3, [r3, #0]
 8005a72:	461a      	mov	r2, r3
 8005a74:	6dbb      	ldr	r3, [r7, #88]	@ 0x58
 8005a76:	61bb      	str	r3, [r7, #24]
 8005a78:	617a      	str	r2, [r7, #20]
   __ASM volatile ("strex %0, %2, %1" : "=&r" (result), "=Q" (*addr) : "r" (value) );
 8005a7a:	6979      	ldr	r1, [r7, #20]
 8005a7c:	69ba      	ldr	r2, [r7, #24]
 8005a7e:	e841 2300 	strex	r3, r2, [r1]
 8005a82:	613b      	str	r3, [r7, #16]
   return(result);
 8005a84:	693b      	ldr	r3, [r7, #16]
 8005a86:	2b00      	cmp	r3, #0
 8005a88:	d1e6      	bne.n	8005a58 <UART_RxISR_16BIT+0x130>

        if (__HAL_UART_GET_FLAG(huart, UART_FLAG_IDLE) == SET)
 8005a8a:	687b      	ldr	r3, [r7, #4]
 8005a8c:	681b      	ldr	r3, [r3, #0]
 8005a8e:	69db      	ldr	r3, [r3, #28]
 8005a90:	f003 0310 	and.w	r3, r3, #16
 8005a94:	2b10      	cmp	r3, #16
 8005a96:	d103      	bne.n	8005aa0 <UART_RxISR_16BIT+0x178>
        {
          /* Clear IDLE Flag */
          __HAL_UART_CLEAR_FLAG(huart, UART_CLEAR_IDLEF);
 8005a98:	687b      	ldr	r3, [r7, #4]
 8005a9a:	681b      	ldr	r3, [r3, #0]
 8005a9c:	2210      	movs	r2, #16
 8005a9e:	621a      	str	r2, [r3, #32]
#if (USE_HAL_UART_REGISTER_CALLBACKS == 1)
        /*Call registered Rx Event callback*/
        huart->RxEventCallback(huart, huart->RxXferSize);
#else
        /*Call legacy weak Rx Event callback*/
        HAL_UARTEx_RxEventCallback(huart, huart->RxXferSize);
 8005aa0:	687b      	ldr	r3, [r7, #4]
 8005aa2:	f8b3 3058 	ldrh.w	r3, [r3, #88]	@ 0x58
 8005aa6:	4619      	mov	r1, r3
 8005aa8:	6878      	ldr	r0, [r7, #4]
 8005aaa:	f7ff f92d 	bl	8004d08 <HAL_UARTEx_RxEventCallback>
  else
  {
    /* Clear RXNE interrupt flag */
    __HAL_UART_SEND_REQ(huart, UART_RXDATA_FLUSH_REQUEST);
  }
}
 8005aae:	e00b      	b.n	8005ac8 <UART_RxISR_16BIT+0x1a0>
        HAL_UART_RxCpltCallback(huart);
 8005ab0:	6878      	ldr	r0, [r7, #4]
 8005ab2:	f7fb fdd1 	bl	8001658 <HAL_UART_RxCpltCallback>
}
 8005ab6:	e007      	b.n	8005ac8 <UART_RxISR_16BIT+0x1a0>
    __HAL_UART_SEND_REQ(huart, UART_RXDATA_FLUSH_REQUEST);
 8005ab8:	687b      	ldr	r3, [r7, #4]
 8005aba:	681b      	ldr	r3, [r3, #0]
 8005abc:	699a      	ldr	r2, [r3, #24]
 8005abe:	687b      	ldr	r3, [r7, #4]
 8005ac0:	681b      	ldr	r3, [r3, #0]
 8005ac2:	f042 0208 	orr.w	r2, r2, #8
 8005ac6:	619a      	str	r2, [r3, #24]
}
 8005ac8:	bf00      	nop
 8005aca:	3770      	adds	r7, #112	@ 0x70
 8005acc:	46bd      	mov	sp, r7
 8005ace:	bd80      	pop	{r7, pc}

08005ad0 <sniprintf>:
 8005ad0:	b40c      	push	{r2, r3}
 8005ad2:	b530      	push	{r4, r5, lr}
 8005ad4:	4b17      	ldr	r3, [pc, #92]	@ (8005b34 <sniprintf+0x64>)
 8005ad6:	1e0c      	subs	r4, r1, #0
 8005ad8:	681d      	ldr	r5, [r3, #0]
 8005ada:	b09d      	sub	sp, #116	@ 0x74
 8005adc:	da08      	bge.n	8005af0 <sniprintf+0x20>
 8005ade:	238b      	movs	r3, #139	@ 0x8b
 8005ae0:	602b      	str	r3, [r5, #0]
 8005ae2:	f04f 30ff 	mov.w	r0, #4294967295
 8005ae6:	b01d      	add	sp, #116	@ 0x74
 8005ae8:	e8bd 4030 	ldmia.w	sp!, {r4, r5, lr}
 8005aec:	b002      	add	sp, #8
 8005aee:	4770      	bx	lr
 8005af0:	f44f 7302 	mov.w	r3, #520	@ 0x208
 8005af4:	f8ad 3014 	strh.w	r3, [sp, #20]
 8005af8:	bf14      	ite	ne
 8005afa:	f104 33ff 	addne.w	r3, r4, #4294967295
 8005afe:	4623      	moveq	r3, r4
 8005b00:	9304      	str	r3, [sp, #16]
 8005b02:	9307      	str	r3, [sp, #28]
 8005b04:	f64f 73ff 	movw	r3, #65535	@ 0xffff
 8005b08:	9002      	str	r0, [sp, #8]
 8005b0a:	9006      	str	r0, [sp, #24]
 8005b0c:	f8ad 3016 	strh.w	r3, [sp, #22]
 8005b10:	9a20      	ldr	r2, [sp, #128]	@ 0x80
 8005b12:	ab21      	add	r3, sp, #132	@ 0x84
 8005b14:	a902      	add	r1, sp, #8
 8005b16:	4628      	mov	r0, r5
 8005b18:	9301      	str	r3, [sp, #4]
 8005b1a:	f000 f9a9 	bl	8005e70 <_svfiprintf_r>
 8005b1e:	1c43      	adds	r3, r0, #1
 8005b20:	bfbc      	itt	lt
 8005b22:	238b      	movlt	r3, #139	@ 0x8b
 8005b24:	602b      	strlt	r3, [r5, #0]
 8005b26:	2c00      	cmp	r4, #0
 8005b28:	d0dd      	beq.n	8005ae6 <sniprintf+0x16>
 8005b2a:	9b02      	ldr	r3, [sp, #8]
 8005b2c:	2200      	movs	r2, #0
 8005b2e:	701a      	strb	r2, [r3, #0]
 8005b30:	e7d9      	b.n	8005ae6 <sniprintf+0x16>
 8005b32:	bf00      	nop
 8005b34:	2000000c 	.word	0x2000000c

08005b38 <memset>:
 8005b38:	4402      	add	r2, r0
 8005b3a:	4603      	mov	r3, r0
 8005b3c:	4293      	cmp	r3, r2
 8005b3e:	d100      	bne.n	8005b42 <memset+0xa>
 8005b40:	4770      	bx	lr
 8005b42:	f803 1b01 	strb.w	r1, [r3], #1
 8005b46:	e7f9      	b.n	8005b3c <memset+0x4>

08005b48 <strncpy>:
 8005b48:	b510      	push	{r4, lr}
 8005b4a:	3901      	subs	r1, #1
 8005b4c:	4603      	mov	r3, r0
 8005b4e:	b132      	cbz	r2, 8005b5e <strncpy+0x16>
 8005b50:	f811 4f01 	ldrb.w	r4, [r1, #1]!
 8005b54:	f803 4b01 	strb.w	r4, [r3], #1
 8005b58:	3a01      	subs	r2, #1
 8005b5a:	2c00      	cmp	r4, #0
 8005b5c:	d1f7      	bne.n	8005b4e <strncpy+0x6>
 8005b5e:	441a      	add	r2, r3
 8005b60:	2100      	movs	r1, #0
 8005b62:	4293      	cmp	r3, r2
 8005b64:	d100      	bne.n	8005b68 <strncpy+0x20>
 8005b66:	bd10      	pop	{r4, pc}
 8005b68:	f803 1b01 	strb.w	r1, [r3], #1
 8005b6c:	e7f9      	b.n	8005b62 <strncpy+0x1a>
	...

08005b70 <__errno>:
 8005b70:	4b01      	ldr	r3, [pc, #4]	@ (8005b78 <__errno+0x8>)
 8005b72:	6818      	ldr	r0, [r3, #0]
 8005b74:	4770      	bx	lr
 8005b76:	bf00      	nop
 8005b78:	2000000c 	.word	0x2000000c

08005b7c <__libc_init_array>:
 8005b7c:	b570      	push	{r4, r5, r6, lr}
 8005b7e:	4d0d      	ldr	r5, [pc, #52]	@ (8005bb4 <__libc_init_array+0x38>)
 8005b80:	4c0d      	ldr	r4, [pc, #52]	@ (8005bb8 <__libc_init_array+0x3c>)
 8005b82:	1b64      	subs	r4, r4, r5
 8005b84:	10a4      	asrs	r4, r4, #2
 8005b86:	2600      	movs	r6, #0
 8005b88:	42a6      	cmp	r6, r4
 8005b8a:	d109      	bne.n	8005ba0 <__libc_init_array+0x24>
 8005b8c:	4d0b      	ldr	r5, [pc, #44]	@ (8005bbc <__libc_init_array+0x40>)
 8005b8e:	4c0c      	ldr	r4, [pc, #48]	@ (8005bc0 <__libc_init_array+0x44>)
 8005b90:	f000 fc66 	bl	8006460 <_init>
 8005b94:	1b64      	subs	r4, r4, r5
 8005b96:	10a4      	asrs	r4, r4, #2
 8005b98:	2600      	movs	r6, #0
 8005b9a:	42a6      	cmp	r6, r4
 8005b9c:	d105      	bne.n	8005baa <__libc_init_array+0x2e>
 8005b9e:	bd70      	pop	{r4, r5, r6, pc}
 8005ba0:	f855 3b04 	ldr.w	r3, [r5], #4
 8005ba4:	4798      	blx	r3
 8005ba6:	3601      	adds	r6, #1
 8005ba8:	e7ee      	b.n	8005b88 <__libc_init_array+0xc>
 8005baa:	f855 3b04 	ldr.w	r3, [r5], #4
 8005bae:	4798      	blx	r3
 8005bb0:	3601      	adds	r6, #1
 8005bb2:	e7f2      	b.n	8005b9a <__libc_init_array+0x1e>
 8005bb4:	0800703c 	.word	0x0800703c
 8005bb8:	0800703c 	.word	0x0800703c
 8005bbc:	0800703c 	.word	0x0800703c
 8005bc0:	08007040 	.word	0x08007040

08005bc4 <__retarget_lock_acquire_recursive>:
 8005bc4:	4770      	bx	lr

08005bc6 <__retarget_lock_release_recursive>:
 8005bc6:	4770      	bx	lr

08005bc8 <_free_r>:
 8005bc8:	b538      	push	{r3, r4, r5, lr}
 8005bca:	4605      	mov	r5, r0
 8005bcc:	2900      	cmp	r1, #0
 8005bce:	d041      	beq.n	8005c54 <_free_r+0x8c>
 8005bd0:	f851 3c04 	ldr.w	r3, [r1, #-4]
 8005bd4:	1f0c      	subs	r4, r1, #4
 8005bd6:	2b00      	cmp	r3, #0
 8005bd8:	bfb8      	it	lt
 8005bda:	18e4      	addlt	r4, r4, r3
 8005bdc:	f000 f8e0 	bl	8005da0 <__malloc_lock>
 8005be0:	4a1d      	ldr	r2, [pc, #116]	@ (8005c58 <_free_r+0x90>)
 8005be2:	6813      	ldr	r3, [r2, #0]
 8005be4:	b933      	cbnz	r3, 8005bf4 <_free_r+0x2c>
 8005be6:	6063      	str	r3, [r4, #4]
 8005be8:	6014      	str	r4, [r2, #0]
 8005bea:	4628      	mov	r0, r5
 8005bec:	e8bd 4038 	ldmia.w	sp!, {r3, r4, r5, lr}
 8005bf0:	f000 b8dc 	b.w	8005dac <__malloc_unlock>
 8005bf4:	42a3      	cmp	r3, r4
 8005bf6:	d908      	bls.n	8005c0a <_free_r+0x42>
 8005bf8:	6820      	ldr	r0, [r4, #0]
 8005bfa:	1821      	adds	r1, r4, r0
 8005bfc:	428b      	cmp	r3, r1
 8005bfe:	bf01      	itttt	eq
 8005c00:	6819      	ldreq	r1, [r3, #0]
 8005c02:	685b      	ldreq	r3, [r3, #4]
 8005c04:	1809      	addeq	r1, r1, r0
 8005c06:	6021      	streq	r1, [r4, #0]
 8005c08:	e7ed      	b.n	8005be6 <_free_r+0x1e>
 8005c0a:	461a      	mov	r2, r3
 8005c0c:	685b      	ldr	r3, [r3, #4]
 8005c0e:	b10b      	cbz	r3, 8005c14 <_free_r+0x4c>
 8005c10:	42a3      	cmp	r3, r4
 8005c12:	d9fa      	bls.n	8005c0a <_free_r+0x42>
 8005c14:	6811      	ldr	r1, [r2, #0]
 8005c16:	1850      	adds	r0, r2, r1
 8005c18:	42a0      	cmp	r0, r4
 8005c1a:	d10b      	bne.n	8005c34 <_free_r+0x6c>
 8005c1c:	6820      	ldr	r0, [r4, #0]
 8005c1e:	4401      	add	r1, r0
 8005c20:	1850      	adds	r0, r2, r1
 8005c22:	4283      	cmp	r3, r0
 8005c24:	6011      	str	r1, [r2, #0]
 8005c26:	d1e0      	bne.n	8005bea <_free_r+0x22>
 8005c28:	6818      	ldr	r0, [r3, #0]
 8005c2a:	685b      	ldr	r3, [r3, #4]
 8005c2c:	6053      	str	r3, [r2, #4]
 8005c2e:	4408      	add	r0, r1
 8005c30:	6010      	str	r0, [r2, #0]
 8005c32:	e7da      	b.n	8005bea <_free_r+0x22>
 8005c34:	d902      	bls.n	8005c3c <_free_r+0x74>
 8005c36:	230c      	movs	r3, #12
 8005c38:	602b      	str	r3, [r5, #0]
 8005c3a:	e7d6      	b.n	8005bea <_free_r+0x22>
 8005c3c:	6820      	ldr	r0, [r4, #0]
 8005c3e:	1821      	adds	r1, r4, r0
 8005c40:	428b      	cmp	r3, r1
 8005c42:	bf04      	itt	eq
 8005c44:	6819      	ldreq	r1, [r3, #0]
 8005c46:	685b      	ldreq	r3, [r3, #4]
 8005c48:	6063      	str	r3, [r4, #4]
 8005c4a:	bf04      	itt	eq
 8005c4c:	1809      	addeq	r1, r1, r0
 8005c4e:	6021      	streq	r1, [r4, #0]
 8005c50:	6054      	str	r4, [r2, #4]
 8005c52:	e7ca      	b.n	8005bea <_free_r+0x22>
 8005c54:	bd38      	pop	{r3, r4, r5, pc}
 8005c56:	bf00      	nop
 8005c58:	2000031c 	.word	0x2000031c

08005c5c <sbrk_aligned>:
 8005c5c:	b570      	push	{r4, r5, r6, lr}
 8005c5e:	4e0f      	ldr	r6, [pc, #60]	@ (8005c9c <sbrk_aligned+0x40>)
 8005c60:	460c      	mov	r4, r1
 8005c62:	6831      	ldr	r1, [r6, #0]
 8005c64:	4605      	mov	r5, r0
 8005c66:	b911      	cbnz	r1, 8005c6e <sbrk_aligned+0x12>
 8005c68:	f000 fba6 	bl	80063b8 <_sbrk_r>
 8005c6c:	6030      	str	r0, [r6, #0]
 8005c6e:	4621      	mov	r1, r4
 8005c70:	4628      	mov	r0, r5
 8005c72:	f000 fba1 	bl	80063b8 <_sbrk_r>
 8005c76:	1c43      	adds	r3, r0, #1
 8005c78:	d103      	bne.n	8005c82 <sbrk_aligned+0x26>
 8005c7a:	f04f 34ff 	mov.w	r4, #4294967295
 8005c7e:	4620      	mov	r0, r4
 8005c80:	bd70      	pop	{r4, r5, r6, pc}
 8005c82:	1cc4      	adds	r4, r0, #3
 8005c84:	f024 0403 	bic.w	r4, r4, #3
 8005c88:	42a0      	cmp	r0, r4
 8005c8a:	d0f8      	beq.n	8005c7e <sbrk_aligned+0x22>
 8005c8c:	1a21      	subs	r1, r4, r0
 8005c8e:	4628      	mov	r0, r5
 8005c90:	f000 fb92 	bl	80063b8 <_sbrk_r>
 8005c94:	3001      	adds	r0, #1
 8005c96:	d1f2      	bne.n	8005c7e <sbrk_aligned+0x22>
 8005c98:	e7ef      	b.n	8005c7a <sbrk_aligned+0x1e>
 8005c9a:	bf00      	nop
 8005c9c:	20000318 	.word	0x20000318

08005ca0 <_malloc_r>:
 8005ca0:	e92d 43f8 	stmdb	sp!, {r3, r4, r5, r6, r7, r8, r9, lr}
 8005ca4:	1ccd      	adds	r5, r1, #3
 8005ca6:	f025 0503 	bic.w	r5, r5, #3
 8005caa:	3508      	adds	r5, #8
 8005cac:	2d0c      	cmp	r5, #12
 8005cae:	bf38      	it	cc
 8005cb0:	250c      	movcc	r5, #12
 8005cb2:	2d00      	cmp	r5, #0
 8005cb4:	4606      	mov	r6, r0
 8005cb6:	db01      	blt.n	8005cbc <_malloc_r+0x1c>
 8005cb8:	42a9      	cmp	r1, r5
 8005cba:	d904      	bls.n	8005cc6 <_malloc_r+0x26>
 8005cbc:	230c      	movs	r3, #12
 8005cbe:	6033      	str	r3, [r6, #0]
 8005cc0:	2000      	movs	r0, #0
 8005cc2:	e8bd 83f8 	ldmia.w	sp!, {r3, r4, r5, r6, r7, r8, r9, pc}
 8005cc6:	f8df 80d4 	ldr.w	r8, [pc, #212]	@ 8005d9c <_malloc_r+0xfc>
 8005cca:	f000 f869 	bl	8005da0 <__malloc_lock>
 8005cce:	f8d8 3000 	ldr.w	r3, [r8]
 8005cd2:	461c      	mov	r4, r3
 8005cd4:	bb44      	cbnz	r4, 8005d28 <_malloc_r+0x88>
 8005cd6:	4629      	mov	r1, r5
 8005cd8:	4630      	mov	r0, r6
 8005cda:	f7ff ffbf 	bl	8005c5c <sbrk_aligned>
 8005cde:	1c43      	adds	r3, r0, #1
 8005ce0:	4604      	mov	r4, r0
 8005ce2:	d158      	bne.n	8005d96 <_malloc_r+0xf6>
 8005ce4:	f8d8 4000 	ldr.w	r4, [r8]
 8005ce8:	4627      	mov	r7, r4
 8005cea:	2f00      	cmp	r7, #0
 8005cec:	d143      	bne.n	8005d76 <_malloc_r+0xd6>
 8005cee:	2c00      	cmp	r4, #0
 8005cf0:	d04b      	beq.n	8005d8a <_malloc_r+0xea>
 8005cf2:	6823      	ldr	r3, [r4, #0]
 8005cf4:	4639      	mov	r1, r7
 8005cf6:	4630      	mov	r0, r6
 8005cf8:	eb04 0903 	add.w	r9, r4, r3
 8005cfc:	f000 fb5c 	bl	80063b8 <_sbrk_r>
 8005d00:	4581      	cmp	r9, r0
 8005d02:	d142      	bne.n	8005d8a <_malloc_r+0xea>
 8005d04:	6821      	ldr	r1, [r4, #0]
 8005d06:	1a6d      	subs	r5, r5, r1
 8005d08:	4629      	mov	r1, r5
 8005d0a:	4630      	mov	r0, r6
 8005d0c:	f7ff ffa6 	bl	8005c5c <sbrk_aligned>
 8005d10:	3001      	adds	r0, #1
 8005d12:	d03a      	beq.n	8005d8a <_malloc_r+0xea>
 8005d14:	6823      	ldr	r3, [r4, #0]
 8005d16:	442b      	add	r3, r5
 8005d18:	6023      	str	r3, [r4, #0]
 8005d1a:	f8d8 3000 	ldr.w	r3, [r8]
 8005d1e:	685a      	ldr	r2, [r3, #4]
 8005d20:	bb62      	cbnz	r2, 8005d7c <_malloc_r+0xdc>
 8005d22:	f8c8 7000 	str.w	r7, [r8]
 8005d26:	e00f      	b.n	8005d48 <_malloc_r+0xa8>
 8005d28:	6822      	ldr	r2, [r4, #0]
 8005d2a:	1b52      	subs	r2, r2, r5
 8005d2c:	d420      	bmi.n	8005d70 <_malloc_r+0xd0>
 8005d2e:	2a0b      	cmp	r2, #11
 8005d30:	d917      	bls.n	8005d62 <_malloc_r+0xc2>
 8005d32:	1961      	adds	r1, r4, r5
 8005d34:	42a3      	cmp	r3, r4
 8005d36:	6025      	str	r5, [r4, #0]
 8005d38:	bf18      	it	ne
 8005d3a:	6059      	strne	r1, [r3, #4]
 8005d3c:	6863      	ldr	r3, [r4, #4]
 8005d3e:	bf08      	it	eq
 8005d40:	f8c8 1000 	streq.w	r1, [r8]
 8005d44:	5162      	str	r2, [r4, r5]
 8005d46:	604b      	str	r3, [r1, #4]
 8005d48:	4630      	mov	r0, r6
 8005d4a:	f000 f82f 	bl	8005dac <__malloc_unlock>
 8005d4e:	f104 000b 	add.w	r0, r4, #11
 8005d52:	1d23      	adds	r3, r4, #4
 8005d54:	f020 0007 	bic.w	r0, r0, #7
 8005d58:	1ac2      	subs	r2, r0, r3
 8005d5a:	bf1c      	itt	ne
 8005d5c:	1a1b      	subne	r3, r3, r0
 8005d5e:	50a3      	strne	r3, [r4, r2]
 8005d60:	e7af      	b.n	8005cc2 <_malloc_r+0x22>
 8005d62:	6862      	ldr	r2, [r4, #4]
 8005d64:	42a3      	cmp	r3, r4
 8005d66:	bf0c      	ite	eq
 8005d68:	f8c8 2000 	streq.w	r2, [r8]
 8005d6c:	605a      	strne	r2, [r3, #4]
 8005d6e:	e7eb      	b.n	8005d48 <_malloc_r+0xa8>
 8005d70:	4623      	mov	r3, r4
 8005d72:	6864      	ldr	r4, [r4, #4]
 8005d74:	e7ae      	b.n	8005cd4 <_malloc_r+0x34>
 8005d76:	463c      	mov	r4, r7
 8005d78:	687f      	ldr	r7, [r7, #4]
 8005d7a:	e7b6      	b.n	8005cea <_malloc_r+0x4a>
 8005d7c:	461a      	mov	r2, r3
 8005d7e:	685b      	ldr	r3, [r3, #4]
 8005d80:	42a3      	cmp	r3, r4
 8005d82:	d1fb      	bne.n	8005d7c <_malloc_r+0xdc>
 8005d84:	2300      	movs	r3, #0
 8005d86:	6053      	str	r3, [r2, #4]
 8005d88:	e7de      	b.n	8005d48 <_malloc_r+0xa8>
 8005d8a:	230c      	movs	r3, #12
 8005d8c:	6033      	str	r3, [r6, #0]
 8005d8e:	4630      	mov	r0, r6
 8005d90:	f000 f80c 	bl	8005dac <__malloc_unlock>
 8005d94:	e794      	b.n	8005cc0 <_malloc_r+0x20>
 8005d96:	6005      	str	r5, [r0, #0]
 8005d98:	e7d6      	b.n	8005d48 <_malloc_r+0xa8>
 8005d9a:	bf00      	nop
 8005d9c:	2000031c 	.word	0x2000031c

08005da0 <__malloc_lock>:
 8005da0:	4801      	ldr	r0, [pc, #4]	@ (8005da8 <__malloc_lock+0x8>)
 8005da2:	f7ff bf0f 	b.w	8005bc4 <__retarget_lock_acquire_recursive>
 8005da6:	bf00      	nop
 8005da8:	20000314 	.word	0x20000314

08005dac <__malloc_unlock>:
 8005dac:	4801      	ldr	r0, [pc, #4]	@ (8005db4 <__malloc_unlock+0x8>)
 8005dae:	f7ff bf0a 	b.w	8005bc6 <__retarget_lock_release_recursive>
 8005db2:	bf00      	nop
 8005db4:	20000314 	.word	0x20000314

08005db8 <__ssputs_r>:
 8005db8:	e92d 47f0 	stmdb	sp!, {r4, r5, r6, r7, r8, r9, sl, lr}
 8005dbc:	688e      	ldr	r6, [r1, #8]
 8005dbe:	461f      	mov	r7, r3
 8005dc0:	42be      	cmp	r6, r7
 8005dc2:	680b      	ldr	r3, [r1, #0]
 8005dc4:	4682      	mov	sl, r0
 8005dc6:	460c      	mov	r4, r1
 8005dc8:	4690      	mov	r8, r2
 8005dca:	d82d      	bhi.n	8005e28 <__ssputs_r+0x70>
 8005dcc:	f9b1 200c 	ldrsh.w	r2, [r1, #12]
 8005dd0:	f412 6f90 	tst.w	r2, #1152	@ 0x480
 8005dd4:	d026      	beq.n	8005e24 <__ssputs_r+0x6c>
 8005dd6:	6965      	ldr	r5, [r4, #20]
 8005dd8:	6909      	ldr	r1, [r1, #16]
 8005dda:	eb05 0545 	add.w	r5, r5, r5, lsl #1
 8005dde:	eba3 0901 	sub.w	r9, r3, r1
 8005de2:	eb05 75d5 	add.w	r5, r5, r5, lsr #31
 8005de6:	1c7b      	adds	r3, r7, #1
 8005de8:	444b      	add	r3, r9
 8005dea:	106d      	asrs	r5, r5, #1
 8005dec:	429d      	cmp	r5, r3
 8005dee:	bf38      	it	cc
 8005df0:	461d      	movcc	r5, r3
 8005df2:	0553      	lsls	r3, r2, #21
 8005df4:	d527      	bpl.n	8005e46 <__ssputs_r+0x8e>
 8005df6:	4629      	mov	r1, r5
 8005df8:	f7ff ff52 	bl	8005ca0 <_malloc_r>
 8005dfc:	4606      	mov	r6, r0
 8005dfe:	b360      	cbz	r0, 8005e5a <__ssputs_r+0xa2>
 8005e00:	6921      	ldr	r1, [r4, #16]
 8005e02:	464a      	mov	r2, r9
 8005e04:	f000 fae8 	bl	80063d8 <memcpy>
 8005e08:	89a3      	ldrh	r3, [r4, #12]
 8005e0a:	f423 6390 	bic.w	r3, r3, #1152	@ 0x480
 8005e0e:	f043 0380 	orr.w	r3, r3, #128	@ 0x80
 8005e12:	81a3      	strh	r3, [r4, #12]
 8005e14:	6126      	str	r6, [r4, #16]
 8005e16:	6165      	str	r5, [r4, #20]
 8005e18:	444e      	add	r6, r9
 8005e1a:	eba5 0509 	sub.w	r5, r5, r9
 8005e1e:	6026      	str	r6, [r4, #0]
 8005e20:	60a5      	str	r5, [r4, #8]
 8005e22:	463e      	mov	r6, r7
 8005e24:	42be      	cmp	r6, r7
 8005e26:	d900      	bls.n	8005e2a <__ssputs_r+0x72>
 8005e28:	463e      	mov	r6, r7
 8005e2a:	6820      	ldr	r0, [r4, #0]
 8005e2c:	4632      	mov	r2, r6
 8005e2e:	4641      	mov	r1, r8
 8005e30:	f000 faa8 	bl	8006384 <memmove>
 8005e34:	68a3      	ldr	r3, [r4, #8]
 8005e36:	1b9b      	subs	r3, r3, r6
 8005e38:	60a3      	str	r3, [r4, #8]
 8005e3a:	6823      	ldr	r3, [r4, #0]
 8005e3c:	4433      	add	r3, r6
 8005e3e:	6023      	str	r3, [r4, #0]
 8005e40:	2000      	movs	r0, #0
 8005e42:	e8bd 87f0 	ldmia.w	sp!, {r4, r5, r6, r7, r8, r9, sl, pc}
 8005e46:	462a      	mov	r2, r5
 8005e48:	f000 fad4 	bl	80063f4 <_realloc_r>
 8005e4c:	4606      	mov	r6, r0
 8005e4e:	2800      	cmp	r0, #0
 8005e50:	d1e0      	bne.n	8005e14 <__ssputs_r+0x5c>
 8005e52:	6921      	ldr	r1, [r4, #16]
 8005e54:	4650      	mov	r0, sl
 8005e56:	f7ff feb7 	bl	8005bc8 <_free_r>
 8005e5a:	230c      	movs	r3, #12
 8005e5c:	f8ca 3000 	str.w	r3, [sl]
 8005e60:	89a3      	ldrh	r3, [r4, #12]
 8005e62:	f043 0340 	orr.w	r3, r3, #64	@ 0x40
 8005e66:	81a3      	strh	r3, [r4, #12]
 8005e68:	f04f 30ff 	mov.w	r0, #4294967295
 8005e6c:	e7e9      	b.n	8005e42 <__ssputs_r+0x8a>
	...

08005e70 <_svfiprintf_r>:
 8005e70:	e92d 4ff0 	stmdb	sp!, {r4, r5, r6, r7, r8, r9, sl, fp, lr}
 8005e74:	4698      	mov	r8, r3
 8005e76:	898b      	ldrh	r3, [r1, #12]
 8005e78:	061b      	lsls	r3, r3, #24
 8005e7a:	b09d      	sub	sp, #116	@ 0x74
 8005e7c:	4607      	mov	r7, r0
 8005e7e:	460d      	mov	r5, r1
 8005e80:	4614      	mov	r4, r2
 8005e82:	d510      	bpl.n	8005ea6 <_svfiprintf_r+0x36>
 8005e84:	690b      	ldr	r3, [r1, #16]
 8005e86:	b973      	cbnz	r3, 8005ea6 <_svfiprintf_r+0x36>
 8005e88:	2140      	movs	r1, #64	@ 0x40
 8005e8a:	f7ff ff09 	bl	8005ca0 <_malloc_r>
 8005e8e:	6028      	str	r0, [r5, #0]
 8005e90:	6128      	str	r0, [r5, #16]
 8005e92:	b930      	cbnz	r0, 8005ea2 <_svfiprintf_r+0x32>
 8005e94:	230c      	movs	r3, #12
 8005e96:	603b      	str	r3, [r7, #0]
 8005e98:	f04f 30ff 	mov.w	r0, #4294967295
 8005e9c:	b01d      	add	sp, #116	@ 0x74
 8005e9e:	e8bd 8ff0 	ldmia.w	sp!, {r4, r5, r6, r7, r8, r9, sl, fp, pc}
 8005ea2:	2340      	movs	r3, #64	@ 0x40
 8005ea4:	616b      	str	r3, [r5, #20]
 8005ea6:	2300      	movs	r3, #0
 8005ea8:	9309      	str	r3, [sp, #36]	@ 0x24
 8005eaa:	2320      	movs	r3, #32
 8005eac:	f88d 3029 	strb.w	r3, [sp, #41]	@ 0x29
 8005eb0:	f8cd 800c 	str.w	r8, [sp, #12]
 8005eb4:	2330      	movs	r3, #48	@ 0x30
 8005eb6:	f8df 819c 	ldr.w	r8, [pc, #412]	@ 8006054 <_svfiprintf_r+0x1e4>
 8005eba:	f88d 302a 	strb.w	r3, [sp, #42]	@ 0x2a
 8005ebe:	f04f 0901 	mov.w	r9, #1
 8005ec2:	4623      	mov	r3, r4
 8005ec4:	469a      	mov	sl, r3
 8005ec6:	f813 2b01 	ldrb.w	r2, [r3], #1
 8005eca:	b10a      	cbz	r2, 8005ed0 <_svfiprintf_r+0x60>
 8005ecc:	2a25      	cmp	r2, #37	@ 0x25
 8005ece:	d1f9      	bne.n	8005ec4 <_svfiprintf_r+0x54>
 8005ed0:	ebba 0b04 	subs.w	fp, sl, r4
 8005ed4:	d00b      	beq.n	8005eee <_svfiprintf_r+0x7e>
 8005ed6:	465b      	mov	r3, fp
 8005ed8:	4622      	mov	r2, r4
 8005eda:	4629      	mov	r1, r5
 8005edc:	4638      	mov	r0, r7
 8005ede:	f7ff ff6b 	bl	8005db8 <__ssputs_r>
 8005ee2:	3001      	adds	r0, #1
 8005ee4:	f000 80a7 	beq.w	8006036 <_svfiprintf_r+0x1c6>
 8005ee8:	9a09      	ldr	r2, [sp, #36]	@ 0x24
 8005eea:	445a      	add	r2, fp
 8005eec:	9209      	str	r2, [sp, #36]	@ 0x24
 8005eee:	f89a 3000 	ldrb.w	r3, [sl]
 8005ef2:	2b00      	cmp	r3, #0
 8005ef4:	f000 809f 	beq.w	8006036 <_svfiprintf_r+0x1c6>
 8005ef8:	2300      	movs	r3, #0
 8005efa:	f04f 32ff 	mov.w	r2, #4294967295
 8005efe:	e9cd 2305 	strd	r2, r3, [sp, #20]
 8005f02:	f10a 0a01 	add.w	sl, sl, #1
 8005f06:	9304      	str	r3, [sp, #16]
 8005f08:	9307      	str	r3, [sp, #28]
 8005f0a:	f88d 3053 	strb.w	r3, [sp, #83]	@ 0x53
 8005f0e:	931a      	str	r3, [sp, #104]	@ 0x68
 8005f10:	4654      	mov	r4, sl
 8005f12:	2205      	movs	r2, #5
 8005f14:	f814 1b01 	ldrb.w	r1, [r4], #1
 8005f18:	484e      	ldr	r0, [pc, #312]	@ (8006054 <_svfiprintf_r+0x1e4>)
 8005f1a:	f7fa f991 	bl	8000240 <memchr>
 8005f1e:	9a04      	ldr	r2, [sp, #16]
 8005f20:	b9d8      	cbnz	r0, 8005f5a <_svfiprintf_r+0xea>
 8005f22:	06d0      	lsls	r0, r2, #27
 8005f24:	bf44      	itt	mi
 8005f26:	2320      	movmi	r3, #32
 8005f28:	f88d 3053 	strbmi.w	r3, [sp, #83]	@ 0x53
 8005f2c:	0711      	lsls	r1, r2, #28
 8005f2e:	bf44      	itt	mi
 8005f30:	232b      	movmi	r3, #43	@ 0x2b
 8005f32:	f88d 3053 	strbmi.w	r3, [sp, #83]	@ 0x53
 8005f36:	f89a 3000 	ldrb.w	r3, [sl]
 8005f3a:	2b2a      	cmp	r3, #42	@ 0x2a
 8005f3c:	d015      	beq.n	8005f6a <_svfiprintf_r+0xfa>
 8005f3e:	9a07      	ldr	r2, [sp, #28]
 8005f40:	4654      	mov	r4, sl
 8005f42:	2000      	movs	r0, #0
 8005f44:	f04f 0c0a 	mov.w	ip, #10
 8005f48:	4621      	mov	r1, r4
 8005f4a:	f811 3b01 	ldrb.w	r3, [r1], #1
 8005f4e:	3b30      	subs	r3, #48	@ 0x30
 8005f50:	2b09      	cmp	r3, #9
 8005f52:	d94b      	bls.n	8005fec <_svfiprintf_r+0x17c>
 8005f54:	b1b0      	cbz	r0, 8005f84 <_svfiprintf_r+0x114>
 8005f56:	9207      	str	r2, [sp, #28]
 8005f58:	e014      	b.n	8005f84 <_svfiprintf_r+0x114>
 8005f5a:	eba0 0308 	sub.w	r3, r0, r8
 8005f5e:	fa09 f303 	lsl.w	r3, r9, r3
 8005f62:	4313      	orrs	r3, r2
 8005f64:	9304      	str	r3, [sp, #16]
 8005f66:	46a2      	mov	sl, r4
 8005f68:	e7d2      	b.n	8005f10 <_svfiprintf_r+0xa0>
 8005f6a:	9b03      	ldr	r3, [sp, #12]
 8005f6c:	1d19      	adds	r1, r3, #4
 8005f6e:	681b      	ldr	r3, [r3, #0]
 8005f70:	9103      	str	r1, [sp, #12]
 8005f72:	2b00      	cmp	r3, #0
 8005f74:	bfbb      	ittet	lt
 8005f76:	425b      	neglt	r3, r3
 8005f78:	f042 0202 	orrlt.w	r2, r2, #2
 8005f7c:	9307      	strge	r3, [sp, #28]
 8005f7e:	9307      	strlt	r3, [sp, #28]
 8005f80:	bfb8      	it	lt
 8005f82:	9204      	strlt	r2, [sp, #16]
 8005f84:	7823      	ldrb	r3, [r4, #0]
 8005f86:	2b2e      	cmp	r3, #46	@ 0x2e
 8005f88:	d10a      	bne.n	8005fa0 <_svfiprintf_r+0x130>
 8005f8a:	7863      	ldrb	r3, [r4, #1]
 8005f8c:	2b2a      	cmp	r3, #42	@ 0x2a
 8005f8e:	d132      	bne.n	8005ff6 <_svfiprintf_r+0x186>
 8005f90:	9b03      	ldr	r3, [sp, #12]
 8005f92:	1d1a      	adds	r2, r3, #4
 8005f94:	681b      	ldr	r3, [r3, #0]
 8005f96:	9203      	str	r2, [sp, #12]
 8005f98:	ea43 73e3 	orr.w	r3, r3, r3, asr #31
 8005f9c:	3402      	adds	r4, #2
 8005f9e:	9305      	str	r3, [sp, #20]
 8005fa0:	f8df a0c0 	ldr.w	sl, [pc, #192]	@ 8006064 <_svfiprintf_r+0x1f4>
 8005fa4:	7821      	ldrb	r1, [r4, #0]
 8005fa6:	2203      	movs	r2, #3
 8005fa8:	4650      	mov	r0, sl
 8005faa:	f7fa f949 	bl	8000240 <memchr>
 8005fae:	b138      	cbz	r0, 8005fc0 <_svfiprintf_r+0x150>
 8005fb0:	9b04      	ldr	r3, [sp, #16]
 8005fb2:	eba0 000a 	sub.w	r0, r0, sl
 8005fb6:	2240      	movs	r2, #64	@ 0x40
 8005fb8:	4082      	lsls	r2, r0
 8005fba:	4313      	orrs	r3, r2
 8005fbc:	3401      	adds	r4, #1
 8005fbe:	9304      	str	r3, [sp, #16]
 8005fc0:	f814 1b01 	ldrb.w	r1, [r4], #1
 8005fc4:	4824      	ldr	r0, [pc, #144]	@ (8006058 <_svfiprintf_r+0x1e8>)
 8005fc6:	f88d 1028 	strb.w	r1, [sp, #40]	@ 0x28
 8005fca:	2206      	movs	r2, #6
 8005fcc:	f7fa f938 	bl	8000240 <memchr>
 8005fd0:	2800      	cmp	r0, #0
 8005fd2:	d036      	beq.n	8006042 <_svfiprintf_r+0x1d2>
 8005fd4:	4b21      	ldr	r3, [pc, #132]	@ (800605c <_svfiprintf_r+0x1ec>)
 8005fd6:	bb1b      	cbnz	r3, 8006020 <_svfiprintf_r+0x1b0>
 8005fd8:	9b03      	ldr	r3, [sp, #12]
 8005fda:	3307      	adds	r3, #7
 8005fdc:	f023 0307 	bic.w	r3, r3, #7
 8005fe0:	3308      	adds	r3, #8
 8005fe2:	9303      	str	r3, [sp, #12]
 8005fe4:	9b09      	ldr	r3, [sp, #36]	@ 0x24
 8005fe6:	4433      	add	r3, r6
 8005fe8:	9309      	str	r3, [sp, #36]	@ 0x24
 8005fea:	e76a      	b.n	8005ec2 <_svfiprintf_r+0x52>
 8005fec:	fb0c 3202 	mla	r2, ip, r2, r3
 8005ff0:	460c      	mov	r4, r1
 8005ff2:	2001      	movs	r0, #1
 8005ff4:	e7a8      	b.n	8005f48 <_svfiprintf_r+0xd8>
 8005ff6:	2300      	movs	r3, #0
 8005ff8:	3401      	adds	r4, #1
 8005ffa:	9305      	str	r3, [sp, #20]
 8005ffc:	4619      	mov	r1, r3
 8005ffe:	f04f 0c0a 	mov.w	ip, #10
 8006002:	4620      	mov	r0, r4
 8006004:	f810 2b01 	ldrb.w	r2, [r0], #1
 8006008:	3a30      	subs	r2, #48	@ 0x30
 800600a:	2a09      	cmp	r2, #9
 800600c:	d903      	bls.n	8006016 <_svfiprintf_r+0x1a6>
 800600e:	2b00      	cmp	r3, #0
 8006010:	d0c6      	beq.n	8005fa0 <_svfiprintf_r+0x130>
 8006012:	9105      	str	r1, [sp, #20]
 8006014:	e7c4      	b.n	8005fa0 <_svfiprintf_r+0x130>
 8006016:	fb0c 2101 	mla	r1, ip, r1, r2
 800601a:	4604      	mov	r4, r0
 800601c:	2301      	movs	r3, #1
 800601e:	e7f0      	b.n	8006002 <_svfiprintf_r+0x192>
 8006020:	ab03      	add	r3, sp, #12
 8006022:	9300      	str	r3, [sp, #0]
 8006024:	462a      	mov	r2, r5
 8006026:	4b0e      	ldr	r3, [pc, #56]	@ (8006060 <_svfiprintf_r+0x1f0>)
 8006028:	a904      	add	r1, sp, #16
 800602a:	4638      	mov	r0, r7
 800602c:	f3af 8000 	nop.w
 8006030:	1c42      	adds	r2, r0, #1
 8006032:	4606      	mov	r6, r0
 8006034:	d1d6      	bne.n	8005fe4 <_svfiprintf_r+0x174>
 8006036:	89ab      	ldrh	r3, [r5, #12]
 8006038:	065b      	lsls	r3, r3, #25
 800603a:	f53f af2d 	bmi.w	8005e98 <_svfiprintf_r+0x28>
 800603e:	9809      	ldr	r0, [sp, #36]	@ 0x24
 8006040:	e72c      	b.n	8005e9c <_svfiprintf_r+0x2c>
 8006042:	ab03      	add	r3, sp, #12
 8006044:	9300      	str	r3, [sp, #0]
 8006046:	462a      	mov	r2, r5
 8006048:	4b05      	ldr	r3, [pc, #20]	@ (8006060 <_svfiprintf_r+0x1f0>)
 800604a:	a904      	add	r1, sp, #16
 800604c:	4638      	mov	r0, r7
 800604e:	f000 f879 	bl	8006144 <_printf_i>
 8006052:	e7ed      	b.n	8006030 <_svfiprintf_r+0x1c0>
 8006054:	08007000 	.word	0x08007000
 8006058:	0800700a 	.word	0x0800700a
 800605c:	00000000 	.word	0x00000000
 8006060:	08005db9 	.word	0x08005db9
 8006064:	08007006 	.word	0x08007006

08006068 <_printf_common>:
 8006068:	e92d 47f0 	stmdb	sp!, {r4, r5, r6, r7, r8, r9, sl, lr}
 800606c:	4616      	mov	r6, r2
 800606e:	4698      	mov	r8, r3
 8006070:	688a      	ldr	r2, [r1, #8]
 8006072:	690b      	ldr	r3, [r1, #16]
 8006074:	f8dd 9020 	ldr.w	r9, [sp, #32]
 8006078:	4293      	cmp	r3, r2
 800607a:	bfb8      	it	lt
 800607c:	4613      	movlt	r3, r2
 800607e:	6033      	str	r3, [r6, #0]
 8006080:	f891 2043 	ldrb.w	r2, [r1, #67]	@ 0x43
 8006084:	4607      	mov	r7, r0
 8006086:	460c      	mov	r4, r1
 8006088:	b10a      	cbz	r2, 800608e <_printf_common+0x26>
 800608a:	3301      	adds	r3, #1
 800608c:	6033      	str	r3, [r6, #0]
 800608e:	6823      	ldr	r3, [r4, #0]
 8006090:	0699      	lsls	r1, r3, #26
 8006092:	bf42      	ittt	mi
 8006094:	6833      	ldrmi	r3, [r6, #0]
 8006096:	3302      	addmi	r3, #2
 8006098:	6033      	strmi	r3, [r6, #0]
 800609a:	6825      	ldr	r5, [r4, #0]
 800609c:	f015 0506 	ands.w	r5, r5, #6
 80060a0:	d106      	bne.n	80060b0 <_printf_common+0x48>
 80060a2:	f104 0a19 	add.w	sl, r4, #25
 80060a6:	68e3      	ldr	r3, [r4, #12]
 80060a8:	6832      	ldr	r2, [r6, #0]
 80060aa:	1a9b      	subs	r3, r3, r2
 80060ac:	42ab      	cmp	r3, r5
 80060ae:	dc26      	bgt.n	80060fe <_printf_common+0x96>
 80060b0:	f894 3043 	ldrb.w	r3, [r4, #67]	@ 0x43
 80060b4:	6822      	ldr	r2, [r4, #0]
 80060b6:	3b00      	subs	r3, #0
 80060b8:	bf18      	it	ne
 80060ba:	2301      	movne	r3, #1
 80060bc:	0692      	lsls	r2, r2, #26
 80060be:	d42b      	bmi.n	8006118 <_printf_common+0xb0>
 80060c0:	f104 0243 	add.w	r2, r4, #67	@ 0x43
 80060c4:	4641      	mov	r1, r8
 80060c6:	4638      	mov	r0, r7
 80060c8:	47c8      	blx	r9
 80060ca:	3001      	adds	r0, #1
 80060cc:	d01e      	beq.n	800610c <_printf_common+0xa4>
 80060ce:	6823      	ldr	r3, [r4, #0]
 80060d0:	6922      	ldr	r2, [r4, #16]
 80060d2:	f003 0306 	and.w	r3, r3, #6
 80060d6:	2b04      	cmp	r3, #4
 80060d8:	bf02      	ittt	eq
 80060da:	68e5      	ldreq	r5, [r4, #12]
 80060dc:	6833      	ldreq	r3, [r6, #0]
 80060de:	1aed      	subeq	r5, r5, r3
 80060e0:	68a3      	ldr	r3, [r4, #8]
 80060e2:	bf0c      	ite	eq
 80060e4:	ea25 75e5 	biceq.w	r5, r5, r5, asr #31
 80060e8:	2500      	movne	r5, #0
 80060ea:	4293      	cmp	r3, r2
 80060ec:	bfc4      	itt	gt
 80060ee:	1a9b      	subgt	r3, r3, r2
 80060f0:	18ed      	addgt	r5, r5, r3
 80060f2:	2600      	movs	r6, #0
 80060f4:	341a      	adds	r4, #26
 80060f6:	42b5      	cmp	r5, r6
 80060f8:	d11a      	bne.n	8006130 <_printf_common+0xc8>
 80060fa:	2000      	movs	r0, #0
 80060fc:	e008      	b.n	8006110 <_printf_common+0xa8>
 80060fe:	2301      	movs	r3, #1
 8006100:	4652      	mov	r2, sl
 8006102:	4641      	mov	r1, r8
 8006104:	4638      	mov	r0, r7
 8006106:	47c8      	blx	r9
 8006108:	3001      	adds	r0, #1
 800610a:	d103      	bne.n	8006114 <_printf_common+0xac>
 800610c:	f04f 30ff 	mov.w	r0, #4294967295
 8006110:	e8bd 87f0 	ldmia.w	sp!, {r4, r5, r6, r7, r8, r9, sl, pc}
 8006114:	3501      	adds	r5, #1
 8006116:	e7c6      	b.n	80060a6 <_printf_common+0x3e>
 8006118:	18e1      	adds	r1, r4, r3
 800611a:	1c5a      	adds	r2, r3, #1
 800611c:	2030      	movs	r0, #48	@ 0x30
 800611e:	f881 0043 	strb.w	r0, [r1, #67]	@ 0x43
 8006122:	4422      	add	r2, r4
 8006124:	f894 1045 	ldrb.w	r1, [r4, #69]	@ 0x45
 8006128:	f882 1043 	strb.w	r1, [r2, #67]	@ 0x43
 800612c:	3302      	adds	r3, #2
 800612e:	e7c7      	b.n	80060c0 <_printf_common+0x58>
 8006130:	2301      	movs	r3, #1
 8006132:	4622      	mov	r2, r4
 8006134:	4641      	mov	r1, r8
 8006136:	4638      	mov	r0, r7
 8006138:	47c8      	blx	r9
 800613a:	3001      	adds	r0, #1
 800613c:	d0e6      	beq.n	800610c <_printf_common+0xa4>
 800613e:	3601      	adds	r6, #1
 8006140:	e7d9      	b.n	80060f6 <_printf_common+0x8e>
	...

08006144 <_printf_i>:
 8006144:	e92d 47ff 	stmdb	sp!, {r0, r1, r2, r3, r4, r5, r6, r7, r8, r9, sl, lr}
 8006148:	7e0f      	ldrb	r7, [r1, #24]
 800614a:	9e0c      	ldr	r6, [sp, #48]	@ 0x30
 800614c:	2f78      	cmp	r7, #120	@ 0x78
 800614e:	4691      	mov	r9, r2
 8006150:	4680      	mov	r8, r0
 8006152:	460c      	mov	r4, r1
 8006154:	469a      	mov	sl, r3
 8006156:	f101 0243 	add.w	r2, r1, #67	@ 0x43
 800615a:	d807      	bhi.n	800616c <_printf_i+0x28>
 800615c:	2f62      	cmp	r7, #98	@ 0x62
 800615e:	d80a      	bhi.n	8006176 <_printf_i+0x32>
 8006160:	2f00      	cmp	r7, #0
 8006162:	f000 80d2 	beq.w	800630a <_printf_i+0x1c6>
 8006166:	2f58      	cmp	r7, #88	@ 0x58
 8006168:	f000 80b9 	beq.w	80062de <_printf_i+0x19a>
 800616c:	f104 0642 	add.w	r6, r4, #66	@ 0x42
 8006170:	f884 7042 	strb.w	r7, [r4, #66]	@ 0x42
 8006174:	e03a      	b.n	80061ec <_printf_i+0xa8>
 8006176:	f1a7 0363 	sub.w	r3, r7, #99	@ 0x63
 800617a:	2b15      	cmp	r3, #21
 800617c:	d8f6      	bhi.n	800616c <_printf_i+0x28>
 800617e:	a101      	add	r1, pc, #4	@ (adr r1, 8006184 <_printf_i+0x40>)
 8006180:	f851 f023 	ldr.w	pc, [r1, r3, lsl #2]
 8006184:	080061dd 	.word	0x080061dd
 8006188:	080061f1 	.word	0x080061f1
 800618c:	0800616d 	.word	0x0800616d
 8006190:	0800616d 	.word	0x0800616d
 8006194:	0800616d 	.word	0x0800616d
 8006198:	0800616d 	.word	0x0800616d
 800619c:	080061f1 	.word	0x080061f1
 80061a0:	0800616d 	.word	0x0800616d
 80061a4:	0800616d 	.word	0x0800616d
 80061a8:	0800616d 	.word	0x0800616d
 80061ac:	0800616d 	.word	0x0800616d
 80061b0:	080062f1 	.word	0x080062f1
 80061b4:	0800621b 	.word	0x0800621b
 80061b8:	080062ab 	.word	0x080062ab
 80061bc:	0800616d 	.word	0x0800616d
 80061c0:	0800616d 	.word	0x0800616d
 80061c4:	08006313 	.word	0x08006313
 80061c8:	0800616d 	.word	0x0800616d
 80061cc:	0800621b 	.word	0x0800621b
 80061d0:	0800616d 	.word	0x0800616d
 80061d4:	0800616d 	.word	0x0800616d
 80061d8:	080062b3 	.word	0x080062b3
 80061dc:	6833      	ldr	r3, [r6, #0]
 80061de:	1d1a      	adds	r2, r3, #4
 80061e0:	681b      	ldr	r3, [r3, #0]
 80061e2:	6032      	str	r2, [r6, #0]
 80061e4:	f104 0642 	add.w	r6, r4, #66	@ 0x42
 80061e8:	f884 3042 	strb.w	r3, [r4, #66]	@ 0x42
 80061ec:	2301      	movs	r3, #1
 80061ee:	e09d      	b.n	800632c <_printf_i+0x1e8>
 80061f0:	6833      	ldr	r3, [r6, #0]
 80061f2:	6820      	ldr	r0, [r4, #0]
 80061f4:	1d19      	adds	r1, r3, #4
 80061f6:	6031      	str	r1, [r6, #0]
 80061f8:	0606      	lsls	r6, r0, #24
 80061fa:	d501      	bpl.n	8006200 <_printf_i+0xbc>
 80061fc:	681d      	ldr	r5, [r3, #0]
 80061fe:	e003      	b.n	8006208 <_printf_i+0xc4>
 8006200:	0645      	lsls	r5, r0, #25
 8006202:	d5fb      	bpl.n	80061fc <_printf_i+0xb8>
 8006204:	f9b3 5000 	ldrsh.w	r5, [r3]
 8006208:	2d00      	cmp	r5, #0
 800620a:	da03      	bge.n	8006214 <_printf_i+0xd0>
 800620c:	232d      	movs	r3, #45	@ 0x2d
 800620e:	426d      	negs	r5, r5
 8006210:	f884 3043 	strb.w	r3, [r4, #67]	@ 0x43
 8006214:	4859      	ldr	r0, [pc, #356]	@ (800637c <_printf_i+0x238>)
 8006216:	230a      	movs	r3, #10
 8006218:	e011      	b.n	800623e <_printf_i+0xfa>
 800621a:	6821      	ldr	r1, [r4, #0]
 800621c:	6833      	ldr	r3, [r6, #0]
 800621e:	0608      	lsls	r0, r1, #24
 8006220:	f853 5b04 	ldr.w	r5, [r3], #4
 8006224:	d402      	bmi.n	800622c <_printf_i+0xe8>
 8006226:	0649      	lsls	r1, r1, #25
 8006228:	bf48      	it	mi
 800622a:	b2ad      	uxthmi	r5, r5
 800622c:	2f6f      	cmp	r7, #111	@ 0x6f
 800622e:	4853      	ldr	r0, [pc, #332]	@ (800637c <_printf_i+0x238>)
 8006230:	6033      	str	r3, [r6, #0]
 8006232:	bf14      	ite	ne
 8006234:	230a      	movne	r3, #10
 8006236:	2308      	moveq	r3, #8
 8006238:	2100      	movs	r1, #0
 800623a:	f884 1043 	strb.w	r1, [r4, #67]	@ 0x43
 800623e:	6866      	ldr	r6, [r4, #4]
 8006240:	60a6      	str	r6, [r4, #8]
 8006242:	2e00      	cmp	r6, #0
 8006244:	bfa2      	ittt	ge
 8006246:	6821      	ldrge	r1, [r4, #0]
 8006248:	f021 0104 	bicge.w	r1, r1, #4
 800624c:	6021      	strge	r1, [r4, #0]
 800624e:	b90d      	cbnz	r5, 8006254 <_printf_i+0x110>
 8006250:	2e00      	cmp	r6, #0
 8006252:	d04b      	beq.n	80062ec <_printf_i+0x1a8>
 8006254:	4616      	mov	r6, r2
 8006256:	fbb5 f1f3 	udiv	r1, r5, r3
 800625a:	fb03 5711 	mls	r7, r3, r1, r5
 800625e:	5dc7      	ldrb	r7, [r0, r7]
 8006260:	f806 7d01 	strb.w	r7, [r6, #-1]!
 8006264:	462f      	mov	r7, r5
 8006266:	42bb      	cmp	r3, r7
 8006268:	460d      	mov	r5, r1
 800626a:	d9f4      	bls.n	8006256 <_printf_i+0x112>
 800626c:	2b08      	cmp	r3, #8
 800626e:	d10b      	bne.n	8006288 <_printf_i+0x144>
 8006270:	6823      	ldr	r3, [r4, #0]
 8006272:	07df      	lsls	r7, r3, #31
 8006274:	d508      	bpl.n	8006288 <_printf_i+0x144>
 8006276:	6923      	ldr	r3, [r4, #16]
 8006278:	6861      	ldr	r1, [r4, #4]
 800627a:	4299      	cmp	r1, r3
 800627c:	bfde      	ittt	le
 800627e:	2330      	movle	r3, #48	@ 0x30
 8006280:	f806 3c01 	strble.w	r3, [r6, #-1]
 8006284:	f106 36ff 	addle.w	r6, r6, #4294967295
 8006288:	1b92      	subs	r2, r2, r6
 800628a:	6122      	str	r2, [r4, #16]
 800628c:	f8cd a000 	str.w	sl, [sp]
 8006290:	464b      	mov	r3, r9
 8006292:	aa03      	add	r2, sp, #12
 8006294:	4621      	mov	r1, r4
 8006296:	4640      	mov	r0, r8
 8006298:	f7ff fee6 	bl	8006068 <_printf_common>
 800629c:	3001      	adds	r0, #1
 800629e:	d14a      	bne.n	8006336 <_printf_i+0x1f2>
 80062a0:	f04f 30ff 	mov.w	r0, #4294967295
 80062a4:	b004      	add	sp, #16
 80062a6:	e8bd 87f0 	ldmia.w	sp!, {r4, r5, r6, r7, r8, r9, sl, pc}
 80062aa:	6823      	ldr	r3, [r4, #0]
 80062ac:	f043 0320 	orr.w	r3, r3, #32
 80062b0:	6023      	str	r3, [r4, #0]
 80062b2:	4833      	ldr	r0, [pc, #204]	@ (8006380 <_printf_i+0x23c>)
 80062b4:	2778      	movs	r7, #120	@ 0x78
 80062b6:	f884 7045 	strb.w	r7, [r4, #69]	@ 0x45
 80062ba:	6823      	ldr	r3, [r4, #0]
 80062bc:	6831      	ldr	r1, [r6, #0]
 80062be:	061f      	lsls	r7, r3, #24
 80062c0:	f851 5b04 	ldr.w	r5, [r1], #4
 80062c4:	d402      	bmi.n	80062cc <_printf_i+0x188>
 80062c6:	065f      	lsls	r7, r3, #25
 80062c8:	bf48      	it	mi
 80062ca:	b2ad      	uxthmi	r5, r5
 80062cc:	6031      	str	r1, [r6, #0]
 80062ce:	07d9      	lsls	r1, r3, #31
 80062d0:	bf44      	itt	mi
 80062d2:	f043 0320 	orrmi.w	r3, r3, #32
 80062d6:	6023      	strmi	r3, [r4, #0]
 80062d8:	b11d      	cbz	r5, 80062e2 <_printf_i+0x19e>
 80062da:	2310      	movs	r3, #16
 80062dc:	e7ac      	b.n	8006238 <_printf_i+0xf4>
 80062de:	4827      	ldr	r0, [pc, #156]	@ (800637c <_printf_i+0x238>)
 80062e0:	e7e9      	b.n	80062b6 <_printf_i+0x172>
 80062e2:	6823      	ldr	r3, [r4, #0]
 80062e4:	f023 0320 	bic.w	r3, r3, #32
 80062e8:	6023      	str	r3, [r4, #0]
 80062ea:	e7f6      	b.n	80062da <_printf_i+0x196>
 80062ec:	4616      	mov	r6, r2
 80062ee:	e7bd      	b.n	800626c <_printf_i+0x128>
 80062f0:	6833      	ldr	r3, [r6, #0]
 80062f2:	6825      	ldr	r5, [r4, #0]
 80062f4:	6961      	ldr	r1, [r4, #20]
 80062f6:	1d18      	adds	r0, r3, #4
 80062f8:	6030      	str	r0, [r6, #0]
 80062fa:	062e      	lsls	r6, r5, #24
 80062fc:	681b      	ldr	r3, [r3, #0]
 80062fe:	d501      	bpl.n	8006304 <_printf_i+0x1c0>
 8006300:	6019      	str	r1, [r3, #0]
 8006302:	e002      	b.n	800630a <_printf_i+0x1c6>
 8006304:	0668      	lsls	r0, r5, #25
 8006306:	d5fb      	bpl.n	8006300 <_printf_i+0x1bc>
 8006308:	8019      	strh	r1, [r3, #0]
 800630a:	2300      	movs	r3, #0
 800630c:	6123      	str	r3, [r4, #16]
 800630e:	4616      	mov	r6, r2
 8006310:	e7bc      	b.n	800628c <_printf_i+0x148>
 8006312:	6833      	ldr	r3, [r6, #0]
 8006314:	1d1a      	adds	r2, r3, #4
 8006316:	6032      	str	r2, [r6, #0]
 8006318:	681e      	ldr	r6, [r3, #0]
 800631a:	6862      	ldr	r2, [r4, #4]
 800631c:	2100      	movs	r1, #0
 800631e:	4630      	mov	r0, r6
 8006320:	f7f9 ff8e 	bl	8000240 <memchr>
 8006324:	b108      	cbz	r0, 800632a <_printf_i+0x1e6>
 8006326:	1b80      	subs	r0, r0, r6
 8006328:	6060      	str	r0, [r4, #4]
 800632a:	6863      	ldr	r3, [r4, #4]
 800632c:	6123      	str	r3, [r4, #16]
 800632e:	2300      	movs	r3, #0
 8006330:	f884 3043 	strb.w	r3, [r4, #67]	@ 0x43
 8006334:	e7aa      	b.n	800628c <_printf_i+0x148>
 8006336:	6923      	ldr	r3, [r4, #16]
 8006338:	4632      	mov	r2, r6
 800633a:	4649      	mov	r1, r9
 800633c:	4640      	mov	r0, r8
 800633e:	47d0      	blx	sl
 8006340:	3001      	adds	r0, #1
 8006342:	d0ad      	beq.n	80062a0 <_printf_i+0x15c>
 8006344:	6823      	ldr	r3, [r4, #0]
 8006346:	079b      	lsls	r3, r3, #30
 8006348:	d413      	bmi.n	8006372 <_printf_i+0x22e>
 800634a:	68e0      	ldr	r0, [r4, #12]
 800634c:	9b03      	ldr	r3, [sp, #12]
 800634e:	4298      	cmp	r0, r3
 8006350:	bfb8      	it	lt
 8006352:	4618      	movlt	r0, r3
 8006354:	e7a6      	b.n	80062a4 <_printf_i+0x160>
 8006356:	2301      	movs	r3, #1
 8006358:	4632      	mov	r2, r6
 800635a:	4649      	mov	r1, r9
 800635c:	4640      	mov	r0, r8
 800635e:	47d0      	blx	sl
 8006360:	3001      	adds	r0, #1
 8006362:	d09d      	beq.n	80062a0 <_printf_i+0x15c>
 8006364:	3501      	adds	r5, #1
 8006366:	68e3      	ldr	r3, [r4, #12]
 8006368:	9903      	ldr	r1, [sp, #12]
 800636a:	1a5b      	subs	r3, r3, r1
 800636c:	42ab      	cmp	r3, r5
 800636e:	dcf2      	bgt.n	8006356 <_printf_i+0x212>
 8006370:	e7eb      	b.n	800634a <_printf_i+0x206>
 8006372:	2500      	movs	r5, #0
 8006374:	f104 0619 	add.w	r6, r4, #25
 8006378:	e7f5      	b.n	8006366 <_printf_i+0x222>
 800637a:	bf00      	nop
 800637c:	08007011 	.word	0x08007011
 8006380:	08007022 	.word	0x08007022

08006384 <memmove>:
 8006384:	4288      	cmp	r0, r1
 8006386:	b510      	push	{r4, lr}
 8006388:	eb01 0402 	add.w	r4, r1, r2
 800638c:	d902      	bls.n	8006394 <memmove+0x10>
 800638e:	4284      	cmp	r4, r0
 8006390:	4623      	mov	r3, r4
 8006392:	d807      	bhi.n	80063a4 <memmove+0x20>
 8006394:	1e43      	subs	r3, r0, #1
 8006396:	42a1      	cmp	r1, r4
 8006398:	d008      	beq.n	80063ac <memmove+0x28>
 800639a:	f811 2b01 	ldrb.w	r2, [r1], #1
 800639e:	f803 2f01 	strb.w	r2, [r3, #1]!
 80063a2:	e7f8      	b.n	8006396 <memmove+0x12>
 80063a4:	4402      	add	r2, r0
 80063a6:	4601      	mov	r1, r0
 80063a8:	428a      	cmp	r2, r1
 80063aa:	d100      	bne.n	80063ae <memmove+0x2a>
 80063ac:	bd10      	pop	{r4, pc}
 80063ae:	f813 4d01 	ldrb.w	r4, [r3, #-1]!
 80063b2:	f802 4d01 	strb.w	r4, [r2, #-1]!
 80063b6:	e7f7      	b.n	80063a8 <memmove+0x24>

080063b8 <_sbrk_r>:
 80063b8:	b538      	push	{r3, r4, r5, lr}
 80063ba:	4d06      	ldr	r5, [pc, #24]	@ (80063d4 <_sbrk_r+0x1c>)
 80063bc:	2300      	movs	r3, #0
 80063be:	4604      	mov	r4, r0
 80063c0:	4608      	mov	r0, r1
 80063c2:	602b      	str	r3, [r5, #0]
 80063c4:	f7fb fc80 	bl	8001cc8 <_sbrk>
 80063c8:	1c43      	adds	r3, r0, #1
 80063ca:	d102      	bne.n	80063d2 <_sbrk_r+0x1a>
 80063cc:	682b      	ldr	r3, [r5, #0]
 80063ce:	b103      	cbz	r3, 80063d2 <_sbrk_r+0x1a>
 80063d0:	6023      	str	r3, [r4, #0]
 80063d2:	bd38      	pop	{r3, r4, r5, pc}
 80063d4:	20000310 	.word	0x20000310

080063d8 <memcpy>:
 80063d8:	440a      	add	r2, r1
 80063da:	4291      	cmp	r1, r2
 80063dc:	f100 33ff 	add.w	r3, r0, #4294967295
 80063e0:	d100      	bne.n	80063e4 <memcpy+0xc>
 80063e2:	4770      	bx	lr
 80063e4:	b510      	push	{r4, lr}
 80063e6:	f811 4b01 	ldrb.w	r4, [r1], #1
 80063ea:	f803 4f01 	strb.w	r4, [r3, #1]!
 80063ee:	4291      	cmp	r1, r2
 80063f0:	d1f9      	bne.n	80063e6 <memcpy+0xe>
 80063f2:	bd10      	pop	{r4, pc}

080063f4 <_realloc_r>:
 80063f4:	e92d 41f0 	stmdb	sp!, {r4, r5, r6, r7, r8, lr}
 80063f8:	4680      	mov	r8, r0
 80063fa:	4615      	mov	r5, r2
 80063fc:	460c      	mov	r4, r1
 80063fe:	b921      	cbnz	r1, 800640a <_realloc_r+0x16>
 8006400:	e8bd 41f0 	ldmia.w	sp!, {r4, r5, r6, r7, r8, lr}
 8006404:	4611      	mov	r1, r2
 8006406:	f7ff bc4b 	b.w	8005ca0 <_malloc_r>
 800640a:	b92a      	cbnz	r2, 8006418 <_realloc_r+0x24>
 800640c:	f7ff fbdc 	bl	8005bc8 <_free_r>
 8006410:	2400      	movs	r4, #0
 8006412:	4620      	mov	r0, r4
 8006414:	e8bd 81f0 	ldmia.w	sp!, {r4, r5, r6, r7, r8, pc}
 8006418:	f000 f81a 	bl	8006450 <_malloc_usable_size_r>
 800641c:	4285      	cmp	r5, r0
 800641e:	4606      	mov	r6, r0
 8006420:	d802      	bhi.n	8006428 <_realloc_r+0x34>
 8006422:	ebb5 0f50 	cmp.w	r5, r0, lsr #1
 8006426:	d8f4      	bhi.n	8006412 <_realloc_r+0x1e>
 8006428:	4629      	mov	r1, r5
 800642a:	4640      	mov	r0, r8
 800642c:	f7ff fc38 	bl	8005ca0 <_malloc_r>
 8006430:	4607      	mov	r7, r0
 8006432:	2800      	cmp	r0, #0
 8006434:	d0ec      	beq.n	8006410 <_realloc_r+0x1c>
 8006436:	42b5      	cmp	r5, r6
 8006438:	462a      	mov	r2, r5
 800643a:	4621      	mov	r1, r4
 800643c:	bf28      	it	cs
 800643e:	4632      	movcs	r2, r6
 8006440:	f7ff ffca 	bl	80063d8 <memcpy>
 8006444:	4621      	mov	r1, r4
 8006446:	4640      	mov	r0, r8
 8006448:	f7ff fbbe 	bl	8005bc8 <_free_r>
 800644c:	463c      	mov	r4, r7
 800644e:	e7e0      	b.n	8006412 <_realloc_r+0x1e>

08006450 <_malloc_usable_size_r>:
 8006450:	f851 3c04 	ldr.w	r3, [r1, #-4]
 8006454:	1f18      	subs	r0, r3, #4
 8006456:	2b00      	cmp	r3, #0
 8006458:	bfbc      	itt	lt
 800645a:	580b      	ldrlt	r3, [r1, r0]
 800645c:	18c0      	addlt	r0, r0, r3
 800645e:	4770      	bx	lr

08006460 <_init>:
 8006460:	b5f8      	push	{r3, r4, r5, r6, r7, lr}
 8006462:	bf00      	nop
 8006464:	bcf8      	pop	{r3, r4, r5, r6, r7}
 8006466:	bc08      	pop	{r3}
 8006468:	469e      	mov	lr, r3
 800646a:	4770      	bx	lr

0800646c <_fini>:
 800646c:	b5f8      	push	{r3, r4, r5, r6, r7, lr}
 800646e:	bf00      	nop
 8006470:	bcf8      	pop	{r3, r4, r5, r6, r7}
 8006472:	bc08      	pop	{r3}
 8006474:	469e      	mov	lr, r3
 8006476:	4770      	bx	lr
